
/home/xietianle/ysyx-workbench/am-kernels/kernels/demo/build/demo-riscv32e-npc.elf:     file format elf32-littleriscv


Disassembly of section .text:

80000000 <_start>:
80000000:	00000413          	li	s0,0
80000004:	00011117          	auipc	sp,0x11
80000008:	ffc10113          	addi	sp,sp,-4 # 80011000 <_end>
8000000c:	654020ef          	jal	ra,80002660 <_trm_init>

80000010 <donut>:
80000010:	f9010113          	addi	sp,sp,-112
80000014:	05f10793          	addi	a5,sp,95
80000018:	ff87f793          	andi	a5,a5,-8
8000001c:	04f12a23          	sw	a5,84(sp)
80000020:	40000793          	li	a5,1024
80000024:	00f12c23          	sw	a5,24(sp)
80000028:	02f12223          	sw	a5,36(sp)
8000002c:	000017b7          	lui	a5,0x1
80000030:	80078793          	addi	a5,a5,-2048 # 800 <_entry_offset+0x800>
80000034:	06112623          	sw	ra,108(sp)
80000038:	06812423          	sw	s0,104(sp)
8000003c:	06912223          	sw	s1,100(sp)
80000040:	00012a23          	sw	zero,20(sp)
80000044:	02012423          	sw	zero,40(sp)
80000048:	04f12823          	sw	a5,80(sp)
8000004c:	6e000613          	li	a2,1760
80000050:	02000593          	li	a1,32
80000054:	00008517          	auipc	a0,0x8
80000058:	b7c50513          	addi	a0,a0,-1156 # 80007bd0 <b>
8000005c:	3d5020ef          	jal	ra,80002c30 <memset>
80000060:	6e000613          	li	a2,1760
80000064:	07f00593          	li	a1,127
80000068:	00008517          	auipc	a0,0x8
8000006c:	24850513          	addi	a0,a0,584 # 800082b0 <z>
80000070:	3c1020ef          	jal	ra,80002c30 <memset>
80000074:	02812783          	lw	a5,40(sp)
80000078:	04012423          	sw	zero,72(sp)
8000007c:	40f007b3          	neg	a5,a5
80000080:	02f12e23          	sw	a5,60(sp)
80000084:	02412783          	lw	a5,36(sp)
80000088:	40f007b3          	neg	a5,a5
8000008c:	04f12023          	sw	a5,64(sp)
80000090:	05a00793          	li	a5,90
80000094:	04f12623          	sw	a5,76(sp)
80000098:	40000793          	li	a5,1024
8000009c:	04f12223          	sw	a5,68(sp)
800000a0:	04812403          	lw	s0,72(sp)
800000a4:	02812503          	lw	a0,40(sp)
800000a8:	00040593          	mv	a1,s0
800000ac:	7cc020ef          	jal	ra,80002878 <__mulsi3>
800000b0:	00050793          	mv	a5,a0
800000b4:	02412503          	lw	a0,36(sp)
800000b8:	00040593          	mv	a1,s0
800000bc:	40a7d793          	srai	a5,a5,0xa
800000c0:	00f12e23          	sw	a5,28(sp)
800000c4:	7b4020ef          	jal	ra,80002878 <__mulsi3>
800000c8:	00050793          	mv	a5,a0
800000cc:	04412403          	lw	s0,68(sp)
800000d0:	40a7d693          	srai	a3,a5,0xa
800000d4:	c0057713          	andi	a4,a0,-1024
800000d8:	01812503          	lw	a0,24(sp)
800000dc:	02d12c23          	sw	a3,56(sp)
800000e0:	005006b7          	lui	a3,0x500
800000e4:	00d70733          	add	a4,a4,a3
800000e8:	00040593          	mv	a1,s0
800000ec:	02e12623          	sw	a4,44(sp)
800000f0:	788020ef          	jal	ra,80002878 <__mulsi3>
800000f4:	40a55713          	srai	a4,a0,0xa
800000f8:	02e12a23          	sw	a4,52(sp)
800000fc:	05012703          	lw	a4,80(sp)
80000100:	00000693          	li	a3,0
80000104:	00e407b3          	add	a5,s0,a4
80000108:	02f12823          	sw	a5,48(sp)
8000010c:	14400793          	li	a5,324
80000110:	00f12223          	sw	a5,4(sp)
80000114:	40000793          	li	a5,1024
80000118:	03012403          	lw	s0,48(sp)
8000011c:	00078513          	mv	a0,a5
80000120:	00d12023          	sw	a3,0(sp)
80000124:	00040593          	mv	a1,s0
80000128:	00f12823          	sw	a5,16(sp)
8000012c:	74c020ef          	jal	ra,80002878 <__mulsi3>
80000130:	00012683          	lw	a3,0(sp)
80000134:	00050493          	mv	s1,a0
80000138:	40a4d793          	srai	a5,s1,0xa
8000013c:	00040593          	mv	a1,s0
80000140:	00068513          	mv	a0,a3
80000144:	00f12023          	sw	a5,0(sp)
80000148:	00d12623          	sw	a3,12(sp)
8000014c:	72c020ef          	jal	ra,80002878 <__mulsi3>
80000150:	40a55493          	srai	s1,a0,0xa
80000154:	02a12023          	sw	a0,32(sp)
80000158:	02412503          	lw	a0,36(sp)
8000015c:	00048593          	mv	a1,s1
80000160:	718020ef          	jal	ra,80002878 <__mulsi3>
80000164:	01c12683          	lw	a3,28(sp)
80000168:	40a55413          	srai	s0,a0,0xa
8000016c:	02812503          	lw	a0,40(sp)
80000170:	00048593          	mv	a1,s1
80000174:	40868433          	sub	s0,a3,s0
80000178:	700020ef          	jal	ra,80002878 <__mulsi3>
8000017c:	02c12603          	lw	a2,44(sp)
80000180:	00050493          	mv	s1,a0
80000184:	01412503          	lw	a0,20(sp)
80000188:	00040593          	mv	a1,s0
8000018c:	00c484b3          	add	s1,s1,a2
80000190:	6e8020ef          	jal	ra,80002878 <__mulsi3>
80000194:	00050713          	mv	a4,a0
80000198:	00012583          	lw	a1,0(sp)
8000019c:	01812503          	lw	a0,24(sp)
800001a0:	00e12423          	sw	a4,8(sp)
800001a4:	6d4020ef          	jal	ra,80002878 <__mulsi3>
800001a8:	00812703          	lw	a4,8(sp)
800001ac:	00048593          	mv	a1,s1
800001b0:	00a70733          	add	a4,a4,a0
800001b4:	00471513          	slli	a0,a4,0x4
800001b8:	40e50533          	sub	a0,a0,a4
800001bc:	608020ef          	jal	ra,800027c4 <__divsi3>
800001c0:	00b50613          	addi	a2,a0,11
800001c4:	00a12423          	sw	a0,8(sp)
800001c8:	01400313          	li	t1,20
800001cc:	00c12683          	lw	a3,12(sp)
800001d0:	01012783          	lw	a5,16(sp)
800001d4:	14c36663          	bltu	t1,a2,80000320 <donut+0x310>
800001d8:	00012583          	lw	a1,0(sp)
800001dc:	01412503          	lw	a0,20(sp)
800001e0:	00d12823          	sw	a3,16(sp)
800001e4:	00f12623          	sw	a5,12(sp)
800001e8:	690020ef          	jal	ra,80002878 <__mulsi3>
800001ec:	00050613          	mv	a2,a0
800001f0:	01812503          	lw	a0,24(sp)
800001f4:	00040593          	mv	a1,s0
800001f8:	00060413          	mv	s0,a2
800001fc:	67c020ef          	jal	ra,80002878 <__mulsi3>
80000200:	40a40533          	sub	a0,s0,a0
80000204:	00451613          	slli	a2,a0,0x4
80000208:	40a60533          	sub	a0,a2,a0
8000020c:	00048593          	mv	a1,s1
80000210:	00151513          	slli	a0,a0,0x1
80000214:	5b0020ef          	jal	ra,800027c4 <__divsi3>
80000218:	01850613          	addi	a2,a0,24
8000021c:	04e00313          	li	t1,78
80000220:	00c12783          	lw	a5,12(sp)
80000224:	01012683          	lw	a3,16(sp)
80000228:	0ec36c63          	bltu	t1,a2,80000320 <donut+0x310>
8000022c:	00812703          	lw	a4,8(sp)
80000230:	01950513          	addi	a0,a0,25
80000234:	00008317          	auipc	t1,0x8
80000238:	07c30313          	addi	t1,t1,124 # 800082b0 <z>
8000023c:	00c70713          	addi	a4,a4,12
80000240:	00271613          	slli	a2,a4,0x2
80000244:	00e60633          	add	a2,a2,a4
80000248:	00461613          	slli	a2,a2,0x4
8000024c:	00a60633          	add	a2,a2,a0
80000250:	ffb002b7          	lui	t0,0xffb00
80000254:	00c30333          	add	t1,t1,a2
80000258:	00548733          	add	a4,s1,t0
8000025c:	40f75713          	srai	a4,a4,0xf
80000260:	00030583          	lb	a1,0(t1)
80000264:	01871713          	slli	a4,a4,0x18
80000268:	41875713          	srai	a4,a4,0x18
8000026c:	0ab75a63          	bge	a4,a1,80000320 <donut+0x310>
80000270:	00f12023          	sw	a5,0(sp)
80000274:	02012783          	lw	a5,32(sp)
80000278:	00b69593          	slli	a1,a3,0xb
8000027c:	00e30023          	sb	a4,0(t1)
80000280:	40b78433          	sub	s0,a5,a1
80000284:	03c12583          	lw	a1,60(sp)
80000288:	40a45413          	srai	s0,s0,0xa
8000028c:	00008797          	auipc	a5,0x8
80000290:	94478793          	addi	a5,a5,-1724 # 80007bd0 <b>
80000294:	00040513          	mv	a0,s0
80000298:	00c784b3          	add	s1,a5,a2
8000029c:	00d12423          	sw	a3,8(sp)
800002a0:	5d8020ef          	jal	ra,80002878 <__mulsi3>
800002a4:	04012583          	lw	a1,64(sp)
800002a8:	00050713          	mv	a4,a0
800002ac:	00040513          	mv	a0,s0
800002b0:	00070413          	mv	s0,a4
800002b4:	5c4020ef          	jal	ra,80002878 <__mulsi3>
800002b8:	01c12683          	lw	a3,28(sp)
800002bc:	01412583          	lw	a1,20(sp)
800002c0:	40a55513          	srai	a0,a0,0xa
800002c4:	00d50533          	add	a0,a0,a3
800002c8:	5b0020ef          	jal	ra,80002878 <__mulsi3>
800002cc:	00012783          	lw	a5,0(sp)
800002d0:	00050713          	mv	a4,a0
800002d4:	03412503          	lw	a0,52(sp)
800002d8:	00078593          	mv	a1,a5
800002dc:	40e40433          	sub	s0,s0,a4
800002e0:	598020ef          	jal	ra,80002878 <__mulsi3>
800002e4:	03812783          	lw	a5,56(sp)
800002e8:	40a40733          	sub	a4,s0,a0
800002ec:	40a75713          	srai	a4,a4,0xa
800002f0:	40f70733          	sub	a4,a4,a5
800002f4:	40775713          	srai	a4,a4,0x7
800002f8:	fff74613          	not	a2,a4
800002fc:	41f65613          	srai	a2,a2,0x1f
80000300:	00003797          	auipc	a5,0x3
80000304:	9ac78793          	addi	a5,a5,-1620 # 80002cac <_etext+0x14>
80000308:	00c77733          	and	a4,a4,a2
8000030c:	00e78733          	add	a4,a5,a4
80000310:	00074703          	lbu	a4,0(a4)
80000314:	00812683          	lw	a3,8(sp)
80000318:	00012783          	lw	a5,0(sp)
8000031c:	00e48023          	sb	a4,0(s1)
80000320:	00269713          	slli	a4,a3,0x2
80000324:	00d70733          	add	a4,a4,a3
80000328:	00279413          	slli	s0,a5,0x2
8000032c:	40875713          	srai	a4,a4,0x8
80000330:	40e78733          	sub	a4,a5,a4
80000334:	00f40433          	add	s0,s0,a5
80000338:	00070593          	mv	a1,a4
8000033c:	00070513          	mv	a0,a4
80000340:	40845413          	srai	s0,s0,0x8
80000344:	00d40433          	add	s0,s0,a3
80000348:	00e12023          	sw	a4,0(sp)
8000034c:	52c020ef          	jal	ra,80002878 <__mulsi3>
80000350:	003007b7          	lui	a5,0x300
80000354:	00040593          	mv	a1,s0
80000358:	00050493          	mv	s1,a0
8000035c:	00040513          	mv	a0,s0
80000360:	409784b3          	sub	s1,a5,s1
80000364:	514020ef          	jal	ra,80002878 <__mulsi3>
80000368:	00012703          	lw	a4,0(sp)
8000036c:	40a484b3          	sub	s1,s1,a0
80000370:	40b4d493          	srai	s1,s1,0xb
80000374:	00048593          	mv	a1,s1
80000378:	00070513          	mv	a0,a4
8000037c:	4fc020ef          	jal	ra,80002878 <__mulsi3>
80000380:	00050793          	mv	a5,a0
80000384:	40a7d793          	srai	a5,a5,0xa
80000388:	00f12023          	sw	a5,0(sp)
8000038c:	00412783          	lw	a5,4(sp)
80000390:	00040513          	mv	a0,s0
80000394:	00048593          	mv	a1,s1
80000398:	fff78413          	addi	s0,a5,-1 # 2fffff <_entry_offset+0x2fffff>
8000039c:	00812223          	sw	s0,4(sp)
800003a0:	4d8020ef          	jal	ra,80002878 <__mulsi3>
800003a4:	00012783          	lw	a5,0(sp)
800003a8:	40a55693          	srai	a3,a0,0xa
800003ac:	d60416e3          	bnez	s0,80000118 <donut+0x108>
800003b0:	04812703          	lw	a4,72(sp)
800003b4:	04412683          	lw	a3,68(sp)
800003b8:	00371793          	slli	a5,a4,0x3
800003bc:	00e787b3          	add	a5,a5,a4
800003c0:	00369413          	slli	s0,a3,0x3
800003c4:	4077d793          	srai	a5,a5,0x7
800003c8:	40f687b3          	sub	a5,a3,a5
800003cc:	00d40433          	add	s0,s0,a3
800003d0:	00078593          	mv	a1,a5
800003d4:	00078513          	mv	a0,a5
800003d8:	40745413          	srai	s0,s0,0x7
800003dc:	00e40433          	add	s0,s0,a4
800003e0:	00f12023          	sw	a5,0(sp)
800003e4:	494020ef          	jal	ra,80002878 <__mulsi3>
800003e8:	00040593          	mv	a1,s0
800003ec:	003007b7          	lui	a5,0x300
800003f0:	00050493          	mv	s1,a0
800003f4:	00040513          	mv	a0,s0
800003f8:	409784b3          	sub	s1,a5,s1
800003fc:	47c020ef          	jal	ra,80002878 <__mulsi3>
80000400:	00012783          	lw	a5,0(sp)
80000404:	40a484b3          	sub	s1,s1,a0
80000408:	40b4d493          	srai	s1,s1,0xb
8000040c:	00048593          	mv	a1,s1
80000410:	00078513          	mv	a0,a5
80000414:	464020ef          	jal	ra,80002878 <__mulsi3>
80000418:	00050793          	mv	a5,a0
8000041c:	40a7d793          	srai	a5,a5,0xa
80000420:	04f12223          	sw	a5,68(sp)
80000424:	04c12783          	lw	a5,76(sp)
80000428:	00040513          	mv	a0,s0
8000042c:	00048593          	mv	a1,s1
80000430:	fff78413          	addi	s0,a5,-1 # 2fffff <_entry_offset+0x2fffff>
80000434:	04812623          	sw	s0,76(sp)
80000438:	440020ef          	jal	ra,80002878 <__mulsi3>
8000043c:	40a55793          	srai	a5,a0,0xa
80000440:	04f12423          	sw	a5,72(sp)
80000444:	c4041ee3          	bnez	s0,800000a0 <donut+0x90>
80000448:	02412703          	lw	a4,36(sp)
8000044c:	02812683          	lw	a3,40(sp)
80000450:	00271793          	slli	a5,a4,0x2
80000454:	00e787b3          	add	a5,a5,a4
80000458:	00269413          	slli	s0,a3,0x2
8000045c:	4077d793          	srai	a5,a5,0x7
80000460:	40f687b3          	sub	a5,a3,a5
80000464:	00d40433          	add	s0,s0,a3
80000468:	00078593          	mv	a1,a5
8000046c:	00078513          	mv	a0,a5
80000470:	40745413          	srai	s0,s0,0x7
80000474:	00e40433          	add	s0,s0,a4
80000478:	00f12023          	sw	a5,0(sp)
8000047c:	3fc020ef          	jal	ra,80002878 <__mulsi3>
80000480:	00040593          	mv	a1,s0
80000484:	003007b7          	lui	a5,0x300
80000488:	00050493          	mv	s1,a0
8000048c:	00040513          	mv	a0,s0
80000490:	409784b3          	sub	s1,a5,s1
80000494:	3e4020ef          	jal	ra,80002878 <__mulsi3>
80000498:	00012783          	lw	a5,0(sp)
8000049c:	40a484b3          	sub	s1,s1,a0
800004a0:	40b4d493          	srai	s1,s1,0xb
800004a4:	00048593          	mv	a1,s1
800004a8:	00078513          	mv	a0,a5
800004ac:	3cc020ef          	jal	ra,80002878 <__mulsi3>
800004b0:	00050793          	mv	a5,a0
800004b4:	40a7d713          	srai	a4,a5,0xa
800004b8:	00048593          	mv	a1,s1
800004bc:	00040513          	mv	a0,s0
800004c0:	02e12423          	sw	a4,40(sp)
800004c4:	3b4020ef          	jal	ra,80002878 <__mulsi3>
800004c8:	01812683          	lw	a3,24(sp)
800004cc:	01412603          	lw	a2,20(sp)
800004d0:	00050713          	mv	a4,a0
800004d4:	00269793          	slli	a5,a3,0x2
800004d8:	00d787b3          	add	a5,a5,a3
800004dc:	00261493          	slli	s1,a2,0x2
800004e0:	4087d793          	srai	a5,a5,0x8
800004e4:	40f607b3          	sub	a5,a2,a5
800004e8:	00c484b3          	add	s1,s1,a2
800004ec:	40a75713          	srai	a4,a4,0xa
800004f0:	00078593          	mv	a1,a5
800004f4:	00078513          	mv	a0,a5
800004f8:	4084d493          	srai	s1,s1,0x8
800004fc:	00d484b3          	add	s1,s1,a3
80000500:	02e12223          	sw	a4,36(sp)
80000504:	00f12023          	sw	a5,0(sp)
80000508:	370020ef          	jal	ra,80002878 <__mulsi3>
8000050c:	00048593          	mv	a1,s1
80000510:	003007b7          	lui	a5,0x300
80000514:	00050413          	mv	s0,a0
80000518:	00048513          	mv	a0,s1
8000051c:	40878433          	sub	s0,a5,s0
80000520:	358020ef          	jal	ra,80002878 <__mulsi3>
80000524:	00012783          	lw	a5,0(sp)
80000528:	40a40433          	sub	s0,s0,a0
8000052c:	40b45413          	srai	s0,s0,0xb
80000530:	00040593          	mv	a1,s0
80000534:	00078513          	mv	a0,a5
80000538:	340020ef          	jal	ra,80002878 <__mulsi3>
8000053c:	00050793          	mv	a5,a0
80000540:	00040593          	mv	a1,s0
80000544:	40a7d793          	srai	a5,a5,0xa
80000548:	00048513          	mv	a0,s1
8000054c:	00f12a23          	sw	a5,20(sp)
80000550:	328020ef          	jal	ra,80002878 <__mulsi3>
80000554:	00050793          	mv	a5,a0
80000558:	40a7d793          	srai	a5,a5,0xa
8000055c:	00002517          	auipc	a0,0x2
80000560:	73c50513          	addi	a0,a0,1852 # 80002c98 <_etext>
80000564:	00f12c23          	sw	a5,24(sp)
80000568:	00000493          	li	s1,0
8000056c:	330020ef          	jal	ra,8000289c <printf>
80000570:	00000413          	li	s0,0
80000574:	00012023          	sw	zero,0(sp)
80000578:	05000593          	li	a1,80
8000057c:	00048513          	mv	a0,s1
80000580:	2c8020ef          	jal	ra,80002848 <__modsi3>
80000584:	03100793          	li	a5,49
80000588:	0a050863          	beqz	a0,80000638 <donut+0x628>
8000058c:	00140613          	addi	a2,s0,1
80000590:	0687dc63          	bge	a5,s0,80000608 <donut+0x5f8>
80000594:	00060413          	mv	s0,a2
80000598:	00148493          	addi	s1,s1,1
8000059c:	6e100793          	li	a5,1761
800005a0:	fcf49ce3          	bne	s1,a5,80000578 <donut+0x568>
800005a4:	05412403          	lw	s0,84(sp)
800005a8:	00600513          	li	a0,6
800005ac:	000184b7          	lui	s1,0x18
800005b0:	00040593          	mv	a1,s0
800005b4:	1ac020ef          	jal	ra,80002760 <ioe_read>
800005b8:	00042783          	lw	a5,0(s0)
800005bc:	00442703          	lw	a4,4(s0)
800005c0:	6a048493          	addi	s1,s1,1696 # 186a0 <_entry_offset+0x186a0>
800005c4:	009784b3          	add	s1,a5,s1
800005c8:	00f4b7b3          	sltu	a5,s1,a5
800005cc:	00040593          	mv	a1,s0
800005d0:	00e78433          	add	s0,a5,a4
800005d4:	00048793          	mv	a5,s1
800005d8:	00040493          	mv	s1,s0
800005dc:	00078413          	mv	s0,a5
800005e0:	00600513          	li	a0,6
800005e4:	00b12023          	sw	a1,0(sp)
800005e8:	178020ef          	jal	ra,80002760 <ioe_read>
800005ec:	00012583          	lw	a1,0(sp)
800005f0:	0045a783          	lw	a5,4(a1)
800005f4:	0005a703          	lw	a4,0(a1)
800005f8:	fe97e4e3          	bltu	a5,s1,800005e0 <donut+0x5d0>
800005fc:	a4f498e3          	bne	s1,a5,8000004c <donut+0x3c>
80000600:	fe8760e3          	bltu	a4,s0,800005e0 <donut+0x5d0>
80000604:	a49ff06f          	j	8000004c <donut+0x3c>
80000608:	00007797          	auipc	a5,0x7
8000060c:	5c878793          	addi	a5,a5,1480 # 80007bd0 <b>
80000610:	009787b3          	add	a5,a5,s1
80000614:	0007c683          	lbu	a3,0(a5)
80000618:	00012783          	lw	a5,0(sp)
8000061c:	00002517          	auipc	a0,0x2
80000620:	68450513          	addi	a0,a0,1668 # 80002ca0 <_etext+0x8>
80000624:	00c12223          	sw	a2,4(sp)
80000628:	00178593          	addi	a1,a5,1
8000062c:	270020ef          	jal	ra,8000289c <printf>
80000630:	00412603          	lw	a2,4(sp)
80000634:	f61ff06f          	j	80000594 <donut+0x584>
80000638:	00012783          	lw	a5,0(sp)
8000063c:	00100413          	li	s0,1
80000640:	00178793          	addi	a5,a5,1
80000644:	00f12023          	sw	a5,0(sp)
80000648:	f51ff06f          	j	80000598 <donut+0x588>

8000064c <add_disk>:
8000064c:	00351713          	slli	a4,a0,0x3
80000650:	00a70733          	add	a4,a4,a0
80000654:	00271713          	slli	a4,a4,0x2
80000658:	00008797          	auipc	a5,0x8
8000065c:	33878793          	addi	a5,a5,824 # 80008990 <t>
80000660:	00e787b3          	add	a5,a5,a4
80000664:	0047a683          	lw	a3,4(a5)
80000668:	0007a603          	lw	a2,0(a5)
8000066c:	fd810113          	addi	sp,sp,-40
80000670:	02812023          	sw	s0,32(sp)
80000674:	02112223          	sw	ra,36(sp)
80000678:	00912e23          	sw	s1,28(sp)
8000067c:	00168313          	addi	t1,a3,1 # 500001 <_entry_offset+0x500001>
80000680:	00269693          	slli	a3,a3,0x2
80000684:	0067a223          	sw	t1,4(a5)
80000688:	00d60633          	add	a2,a2,a3
8000068c:	00b62023          	sw	a1,0(a2)
80000690:	0047a683          	lw	a3,4(a5)
80000694:	00451413          	slli	s0,a0,0x4
80000698:	01710793          	addi	a5,sp,23
8000069c:	ff87f793          	andi	a5,a5,-8
800006a0:	00840413          	addi	s0,s0,8
800006a4:	00f12423          	sw	a5,8(sp)
800006a8:	40b407b3          	sub	a5,s0,a1
800006ac:	00f12223          	sw	a5,4(sp)
800006b0:	06058863          	beqz	a1,80000720 <add_disk+0xd4>
800006b4:	00058713          	mv	a4,a1
800006b8:	00900593          	li	a1,9
800006bc:	40d58433          	sub	s0,a1,a3
800006c0:	00e12623          	sw	a4,12(sp)
800006c4:	00002497          	auipc	s1,0x2
800006c8:	5dc48493          	addi	s1,s1,1500 # 80002ca0 <_etext+0x8>
800006cc:	00412603          	lw	a2,4(sp)
800006d0:	03d00693          	li	a3,61
800006d4:	00160613          	addi	a2,a2,1
800006d8:	00040593          	mv	a1,s0
800006dc:	00048513          	mv	a0,s1
800006e0:	00c12023          	sw	a2,0(sp)
800006e4:	1b8020ef          	jal	ra,8000289c <printf>
800006e8:	00412783          	lw	a5,4(sp)
800006ec:	00012603          	lw	a2,0(sp)
800006f0:	00002717          	auipc	a4,0x2
800006f4:	5cc70713          	addi	a4,a4,1484 # 80002cbc <_etext+0x24>
800006f8:	40f607b3          	sub	a5,a2,a5
800006fc:	00f707b3          	add	a5,a4,a5
80000700:	0007c683          	lbu	a3,0(a5)
80000704:	fc0698e3          	bnez	a3,800006d4 <add_disk+0x88>
80000708:	00c12783          	lw	a5,12(sp)
8000070c:	fff78793          	addi	a5,a5,-1
80000710:	00f12623          	sw	a5,12(sp)
80000714:	00078663          	beqz	a5,80000720 <add_disk+0xd4>
80000718:	00c12223          	sw	a2,4(sp)
8000071c:	fb1ff06f          	j	800006cc <add_disk+0x80>
80000720:	00812403          	lw	s0,8(sp)
80000724:	00600513          	li	a0,6
80000728:	00040593          	mv	a1,s0
8000072c:	034020ef          	jal	ra,80002760 <ioe_read>
80000730:	00042783          	lw	a5,0(s0)
80000734:	00018737          	lui	a4,0x18
80000738:	00442683          	lw	a3,4(s0)
8000073c:	6a070713          	addi	a4,a4,1696 # 186a0 <_entry_offset+0x186a0>
80000740:	00e784b3          	add	s1,a5,a4
80000744:	00f4b7b3          	sltu	a5,s1,a5
80000748:	00d78433          	add	s0,a5,a3
8000074c:	00812583          	lw	a1,8(sp)
80000750:	00600513          	li	a0,6
80000754:	00c020ef          	jal	ra,80002760 <ioe_read>
80000758:	00812703          	lw	a4,8(sp)
8000075c:	00472783          	lw	a5,4(a4)
80000760:	00072703          	lw	a4,0(a4)
80000764:	fe87e4e3          	bltu	a5,s0,8000074c <add_disk+0x100>
80000768:	00f41463          	bne	s0,a5,80000770 <add_disk+0x124>
8000076c:	fe9760e3          	bltu	a4,s1,8000074c <add_disk+0x100>
80000770:	02412083          	lw	ra,36(sp)
80000774:	02012403          	lw	s0,32(sp)
80000778:	01c12483          	lw	s1,28(sp)
8000077c:	02810113          	addi	sp,sp,40
80000780:	00008067          	ret

80000784 <remove_disk>:
80000784:	00351713          	slli	a4,a0,0x3
80000788:	00a70733          	add	a4,a4,a0
8000078c:	00271713          	slli	a4,a4,0x2
80000790:	00008797          	auipc	a5,0x8
80000794:	20078793          	addi	a5,a5,512 # 80008990 <t>
80000798:	00e787b3          	add	a5,a5,a4
8000079c:	0047a603          	lw	a2,4(a5)
800007a0:	0007a703          	lw	a4,0(a5)
800007a4:	fe410113          	addi	sp,sp,-28
800007a8:	fff60693          	addi	a3,a2,-1
800007ac:	00812a23          	sw	s0,20(sp)
800007b0:	00112c23          	sw	ra,24(sp)
800007b4:	00912823          	sw	s1,16(sp)
800007b8:	00269593          	slli	a1,a3,0x2
800007bc:	00d7a223          	sw	a3,4(a5)
800007c0:	00b707b3          	add	a5,a4,a1
800007c4:	0007a783          	lw	a5,0(a5)
800007c8:	00451413          	slli	s0,a0,0x4
800007cc:	00840413          	addi	s0,s0,8
800007d0:	40f40733          	sub	a4,s0,a5
800007d4:	00f12623          	sw	a5,12(sp)
800007d8:	00e12223          	sw	a4,4(sp)
800007dc:	06078663          	beqz	a5,80000848 <remove_disk+0xc4>
800007e0:	00900593          	li	a1,9
800007e4:	40c58433          	sub	s0,a1,a2
800007e8:	00f12423          	sw	a5,8(sp)
800007ec:	00002497          	auipc	s1,0x2
800007f0:	4b448493          	addi	s1,s1,1204 # 80002ca0 <_etext+0x8>
800007f4:	00412603          	lw	a2,4(sp)
800007f8:	02000693          	li	a3,32
800007fc:	00160613          	addi	a2,a2,1
80000800:	00040593          	mv	a1,s0
80000804:	00048513          	mv	a0,s1
80000808:	00c12023          	sw	a2,0(sp)
8000080c:	090020ef          	jal	ra,8000289c <printf>
80000810:	00412783          	lw	a5,4(sp)
80000814:	00012603          	lw	a2,0(sp)
80000818:	00002717          	auipc	a4,0x2
8000081c:	4a870713          	addi	a4,a4,1192 # 80002cc0 <_etext+0x28>
80000820:	40f607b3          	sub	a5,a2,a5
80000824:	00f707b3          	add	a5,a4,a5
80000828:	0007c683          	lbu	a3,0(a5)
8000082c:	fc0698e3          	bnez	a3,800007fc <remove_disk+0x78>
80000830:	00812783          	lw	a5,8(sp)
80000834:	fff78793          	addi	a5,a5,-1
80000838:	00f12423          	sw	a5,8(sp)
8000083c:	00078663          	beqz	a5,80000848 <remove_disk+0xc4>
80000840:	00c12223          	sw	a2,4(sp)
80000844:	fb1ff06f          	j	800007f4 <remove_disk+0x70>
80000848:	01812083          	lw	ra,24(sp)
8000084c:	01412403          	lw	s0,20(sp)
80000850:	00c12503          	lw	a0,12(sp)
80000854:	01012483          	lw	s1,16(sp)
80000858:	01c10113          	addi	sp,sp,28
8000085c:	00008067          	ret

80000860 <move>:
80000860:	f8c10113          	addi	sp,sp,-116
80000864:	06112823          	sw	ra,112(sp)
80000868:	06812623          	sw	s0,108(sp)
8000086c:	06912423          	sw	s1,104(sp)
80000870:	04a12c23          	sw	a0,88(sp)
80000874:	02b12a23          	sw	a1,52(sp)
80000878:	02c12e23          	sw	a2,60(sp)
8000087c:	02d12c23          	sw	a3,56(sp)
80000880:	3c050663          	beqz	a0,80000c4c <move+0x3ec>
80000884:	05812783          	lw	a5,88(sp)
80000888:	fff78793          	addi	a5,a5,-1
8000088c:	04f12c23          	sw	a5,88(sp)
80000890:	38078c63          	beqz	a5,80000c28 <move+0x3c8>
80000894:	03c12703          	lw	a4,60(sp)
80000898:	04f12623          	sw	a5,76(sp)
8000089c:	04c12783          	lw	a5,76(sp)
800008a0:	02e12223          	sw	a4,36(sp)
800008a4:	03412703          	lw	a4,52(sp)
800008a8:	fff78793          	addi	a5,a5,-1
800008ac:	04f12623          	sw	a5,76(sp)
800008b0:	02e12023          	sw	a4,32(sp)
800008b4:	32078663          	beqz	a5,80000be0 <move+0x380>
800008b8:	03812703          	lw	a4,56(sp)
800008bc:	04f12823          	sw	a5,80(sp)
800008c0:	05012783          	lw	a5,80(sp)
800008c4:	02e12623          	sw	a4,44(sp)
800008c8:	02012703          	lw	a4,32(sp)
800008cc:	fff78793          	addi	a5,a5,-1
800008d0:	04f12823          	sw	a5,80(sp)
800008d4:	02e12423          	sw	a4,40(sp)
800008d8:	2c078063          	beqz	a5,80000b98 <move+0x338>
800008dc:	02412703          	lw	a4,36(sp)
800008e0:	04f12a23          	sw	a5,84(sp)
800008e4:	05412783          	lw	a5,84(sp)
800008e8:	00e12823          	sw	a4,16(sp)
800008ec:	02812703          	lw	a4,40(sp)
800008f0:	fff78793          	addi	a5,a5,-1
800008f4:	04f12a23          	sw	a5,84(sp)
800008f8:	02e12823          	sw	a4,48(sp)
800008fc:	24078a63          	beqz	a5,80000b50 <move+0x2f0>
80000900:	00f12623          	sw	a5,12(sp)
80000904:	00c12783          	lw	a5,12(sp)
80000908:	03012703          	lw	a4,48(sp)
8000090c:	02c12483          	lw	s1,44(sp)
80000910:	fff78793          	addi	a5,a5,-1
80000914:	00e12423          	sw	a4,8(sp)
80000918:	00f12623          	sw	a5,12(sp)
8000091c:	1e078663          	beqz	a5,80000b08 <move+0x2a8>
80000920:	00f12a23          	sw	a5,20(sp)
80000924:	01412783          	lw	a5,20(sp)
80000928:	01012703          	lw	a4,16(sp)
8000092c:	00912223          	sw	s1,4(sp)
80000930:	fff78793          	addi	a5,a5,-1
80000934:	00e12023          	sw	a4,0(sp)
80000938:	00f12a23          	sw	a5,20(sp)
8000093c:	00812403          	lw	s0,8(sp)
80000940:	18078063          	beqz	a5,80000ac0 <move+0x260>
80000944:	00f12e23          	sw	a5,28(sp)
80000948:	01c12783          	lw	a5,28(sp)
8000094c:	00412703          	lw	a4,4(sp)
80000950:	00812c23          	sw	s0,24(sp)
80000954:	fff78793          	addi	a5,a5,-1
80000958:	00f12e23          	sw	a5,28(sp)
8000095c:	00040493          	mv	s1,s0
80000960:	00070413          	mv	s0,a4
80000964:	10078863          	beqz	a5,80000a74 <move+0x214>
80000968:	00048713          	mv	a4,s1
8000096c:	04912023          	sw	s1,64(sp)
80000970:	00078493          	mv	s1,a5
80000974:	fff48493          	addi	s1,s1,-1
80000978:	00012683          	lw	a3,0(sp)
8000097c:	0a048863          	beqz	s1,80000a2c <move+0x1cc>
80000980:	00040613          	mv	a2,s0
80000984:	00048293          	mv	t0,s1
80000988:	00070793          	mv	a5,a4
8000098c:	00040313          	mv	t1,s0
80000990:	fff28293          	addi	t0,t0,-1 # ffafffff <_end+0x7faeefff>
80000994:	00078593          	mv	a1,a5
80000998:	00028513          	mv	a0,t0
8000099c:	00078413          	mv	s0,a5
800009a0:	06e12223          	sw	a4,100(sp)
800009a4:	06612023          	sw	t1,96(sp)
800009a8:	04c12e23          	sw	a2,92(sp)
800009ac:	04512423          	sw	t0,72(sp)
800009b0:	04d12223          	sw	a3,68(sp)
800009b4:	eadff0ef          	jal	ra,80000860 <move>
800009b8:	00040513          	mv	a0,s0
800009bc:	dc9ff0ef          	jal	ra,80000784 <remove_disk>
800009c0:	04412683          	lw	a3,68(sp)
800009c4:	00050593          	mv	a1,a0
800009c8:	00068513          	mv	a0,a3
800009cc:	c81ff0ef          	jal	ra,8000064c <add_disk>
800009d0:	05c12603          	lw	a2,92(sp)
800009d4:	04812283          	lw	t0,72(sp)
800009d8:	04412683          	lw	a3,68(sp)
800009dc:	00060793          	mv	a5,a2
800009e0:	06012303          	lw	t1,96(sp)
800009e4:	06412703          	lw	a4,100(sp)
800009e8:	00040613          	mv	a2,s0
800009ec:	fa0292e3          	bnez	t0,80000990 <move+0x130>
800009f0:	00070513          	mv	a0,a4
800009f4:	00030413          	mv	s0,t1
800009f8:	04d12423          	sw	a3,72(sp)
800009fc:	04e12223          	sw	a4,68(sp)
80000a00:	d85ff0ef          	jal	ra,80000784 <remove_disk>
80000a04:	00050593          	mv	a1,a0
80000a08:	00040513          	mv	a0,s0
80000a0c:	c41ff0ef          	jal	ra,8000064c <add_disk>
80000a10:	04412703          	lw	a4,68(sp)
80000a14:	04812683          	lw	a3,72(sp)
80000a18:	fff48493          	addi	s1,s1,-1
80000a1c:	00070613          	mv	a2,a4
80000a20:	00068713          	mv	a4,a3
80000a24:	00060693          	mv	a3,a2
80000a28:	f4049ce3          	bnez	s1,80000980 <move+0x120>
80000a2c:	00070513          	mv	a0,a4
80000a30:	04012483          	lw	s1,64(sp)
80000a34:	d51ff0ef          	jal	ra,80000784 <remove_disk>
80000a38:	00050593          	mv	a1,a0
80000a3c:	00040513          	mv	a0,s0
80000a40:	c0dff0ef          	jal	ra,8000064c <add_disk>
80000a44:	00048513          	mv	a0,s1
80000a48:	d3dff0ef          	jal	ra,80000784 <remove_disk>
80000a4c:	00050593          	mv	a1,a0
80000a50:	00012503          	lw	a0,0(sp)
80000a54:	bf9ff0ef          	jal	ra,8000064c <add_disk>
80000a58:	00048793          	mv	a5,s1
80000a5c:	00040493          	mv	s1,s0
80000a60:	00078413          	mv	s0,a5
80000a64:	01c12783          	lw	a5,28(sp)
80000a68:	fff78793          	addi	a5,a5,-1
80000a6c:	00f12e23          	sw	a5,28(sp)
80000a70:	ee079ce3          	bnez	a5,80000968 <move+0x108>
80000a74:	00048513          	mv	a0,s1
80000a78:	01812403          	lw	s0,24(sp)
80000a7c:	d09ff0ef          	jal	ra,80000784 <remove_disk>
80000a80:	00012483          	lw	s1,0(sp)
80000a84:	00050593          	mv	a1,a0
80000a88:	00048513          	mv	a0,s1
80000a8c:	bc1ff0ef          	jal	ra,8000064c <add_disk>
80000a90:	00040513          	mv	a0,s0
80000a94:	cf1ff0ef          	jal	ra,80000784 <remove_disk>
80000a98:	00050593          	mv	a1,a0
80000a9c:	00412503          	lw	a0,4(sp)
80000aa0:	badff0ef          	jal	ra,8000064c <add_disk>
80000aa4:	00040793          	mv	a5,s0
80000aa8:	00f12023          	sw	a5,0(sp)
80000aac:	01412783          	lw	a5,20(sp)
80000ab0:	00048413          	mv	s0,s1
80000ab4:	fff78793          	addi	a5,a5,-1
80000ab8:	00f12a23          	sw	a5,20(sp)
80000abc:	e80794e3          	bnez	a5,80000944 <move+0xe4>
80000ac0:	00412483          	lw	s1,4(sp)
80000ac4:	00040513          	mv	a0,s0
80000ac8:	cbdff0ef          	jal	ra,80000784 <remove_disk>
80000acc:	00050593          	mv	a1,a0
80000ad0:	00048513          	mv	a0,s1
80000ad4:	b79ff0ef          	jal	ra,8000064c <add_disk>
80000ad8:	00812403          	lw	s0,8(sp)
80000adc:	00040513          	mv	a0,s0
80000ae0:	ca5ff0ef          	jal	ra,80000784 <remove_disk>
80000ae4:	00050593          	mv	a1,a0
80000ae8:	01012503          	lw	a0,16(sp)
80000aec:	b61ff0ef          	jal	ra,8000064c <add_disk>
80000af0:	00c12783          	lw	a5,12(sp)
80000af4:	00912423          	sw	s1,8(sp)
80000af8:	00040493          	mv	s1,s0
80000afc:	fff78793          	addi	a5,a5,-1
80000b00:	00f12623          	sw	a5,12(sp)
80000b04:	e0079ee3          	bnez	a5,80000920 <move+0xc0>
80000b08:	00812503          	lw	a0,8(sp)
80000b0c:	c79ff0ef          	jal	ra,80000784 <remove_disk>
80000b10:	01012403          	lw	s0,16(sp)
80000b14:	00050593          	mv	a1,a0
80000b18:	00040513          	mv	a0,s0
80000b1c:	b31ff0ef          	jal	ra,8000064c <add_disk>
80000b20:	03012483          	lw	s1,48(sp)
80000b24:	00048513          	mv	a0,s1
80000b28:	c5dff0ef          	jal	ra,80000784 <remove_disk>
80000b2c:	00050593          	mv	a1,a0
80000b30:	02c12503          	lw	a0,44(sp)
80000b34:	b19ff0ef          	jal	ra,8000064c <add_disk>
80000b38:	05412783          	lw	a5,84(sp)
80000b3c:	02812823          	sw	s0,48(sp)
80000b40:	00912823          	sw	s1,16(sp)
80000b44:	fff78793          	addi	a5,a5,-1
80000b48:	04f12a23          	sw	a5,84(sp)
80000b4c:	da079ae3          	bnez	a5,80000900 <move+0xa0>
80000b50:	03012503          	lw	a0,48(sp)
80000b54:	c31ff0ef          	jal	ra,80000784 <remove_disk>
80000b58:	02c12403          	lw	s0,44(sp)
80000b5c:	00050593          	mv	a1,a0
80000b60:	00040513          	mv	a0,s0
80000b64:	ae9ff0ef          	jal	ra,8000064c <add_disk>
80000b68:	02812483          	lw	s1,40(sp)
80000b6c:	00048513          	mv	a0,s1
80000b70:	c15ff0ef          	jal	ra,80000784 <remove_disk>
80000b74:	00050593          	mv	a1,a0
80000b78:	02412503          	lw	a0,36(sp)
80000b7c:	ad1ff0ef          	jal	ra,8000064c <add_disk>
80000b80:	05012783          	lw	a5,80(sp)
80000b84:	02812423          	sw	s0,40(sp)
80000b88:	02912623          	sw	s1,44(sp)
80000b8c:	fff78793          	addi	a5,a5,-1
80000b90:	04f12823          	sw	a5,80(sp)
80000b94:	d40794e3          	bnez	a5,800008dc <move+0x7c>
80000b98:	02812503          	lw	a0,40(sp)
80000b9c:	be9ff0ef          	jal	ra,80000784 <remove_disk>
80000ba0:	02412403          	lw	s0,36(sp)
80000ba4:	00050593          	mv	a1,a0
80000ba8:	00040513          	mv	a0,s0
80000bac:	aa1ff0ef          	jal	ra,8000064c <add_disk>
80000bb0:	02012483          	lw	s1,32(sp)
80000bb4:	00048513          	mv	a0,s1
80000bb8:	bcdff0ef          	jal	ra,80000784 <remove_disk>
80000bbc:	00050593          	mv	a1,a0
80000bc0:	03812503          	lw	a0,56(sp)
80000bc4:	a89ff0ef          	jal	ra,8000064c <add_disk>
80000bc8:	04c12783          	lw	a5,76(sp)
80000bcc:	02812023          	sw	s0,32(sp)
80000bd0:	02912223          	sw	s1,36(sp)
80000bd4:	fff78793          	addi	a5,a5,-1
80000bd8:	04f12623          	sw	a5,76(sp)
80000bdc:	cc079ee3          	bnez	a5,800008b8 <move+0x58>
80000be0:	02012503          	lw	a0,32(sp)
80000be4:	ba1ff0ef          	jal	ra,80000784 <remove_disk>
80000be8:	03812403          	lw	s0,56(sp)
80000bec:	00050593          	mv	a1,a0
80000bf0:	00040513          	mv	a0,s0
80000bf4:	a59ff0ef          	jal	ra,8000064c <add_disk>
80000bf8:	03412483          	lw	s1,52(sp)
80000bfc:	00048513          	mv	a0,s1
80000c00:	b85ff0ef          	jal	ra,80000784 <remove_disk>
80000c04:	00050593          	mv	a1,a0
80000c08:	03c12503          	lw	a0,60(sp)
80000c0c:	a41ff0ef          	jal	ra,8000064c <add_disk>
80000c10:	05812783          	lw	a5,88(sp)
80000c14:	02812a23          	sw	s0,52(sp)
80000c18:	02912c23          	sw	s1,56(sp)
80000c1c:	fff78793          	addi	a5,a5,-1
80000c20:	04f12c23          	sw	a5,88(sp)
80000c24:	c60798e3          	bnez	a5,80000894 <move+0x34>
80000c28:	03412503          	lw	a0,52(sp)
80000c2c:	b59ff0ef          	jal	ra,80000784 <remove_disk>
80000c30:	06c12403          	lw	s0,108(sp)
80000c34:	07012083          	lw	ra,112(sp)
80000c38:	06812483          	lw	s1,104(sp)
80000c3c:	00050593          	mv	a1,a0
80000c40:	03c12503          	lw	a0,60(sp)
80000c44:	07410113          	addi	sp,sp,116
80000c48:	a05ff06f          	j	8000064c <add_disk>
80000c4c:	07012083          	lw	ra,112(sp)
80000c50:	06c12403          	lw	s0,108(sp)
80000c54:	06812483          	lw	s1,104(sp)
80000c58:	07410113          	addi	sp,sp,116
80000c5c:	00008067          	ret

80000c60 <hanoi>:
80000c60:	ff010113          	addi	sp,sp,-16
80000c64:	00002517          	auipc	a0,0x2
80000c68:	03450513          	addi	a0,a0,52 # 80002c98 <_etext>
80000c6c:	00812423          	sw	s0,8(sp)
80000c70:	00912223          	sw	s1,4(sp)
80000c74:	00112623          	sw	ra,12(sp)
80000c78:	00008417          	auipc	s0,0x8
80000c7c:	d1840413          	addi	s0,s0,-744 # 80008990 <t>
80000c80:	41d010ef          	jal	ra,8000289c <printf>
80000c84:	00008497          	auipc	s1,0x8
80000c88:	d7848493          	addi	s1,s1,-648 # 800089fc <t>
80000c8c:	00040513          	mv	a0,s0
80000c90:	02400613          	li	a2,36
80000c94:	00000593          	li	a1,0
80000c98:	799010ef          	jal	ra,80002c30 <memset>
80000c9c:	00840793          	addi	a5,s0,8
80000ca0:	00f42023          	sw	a5,0(s0)
80000ca4:	02440413          	addi	s0,s0,36
80000ca8:	fe9412e3          	bne	s0,s1,80000c8c <hanoi+0x2c>
80000cac:	00700413          	li	s0,7
80000cb0:	00040593          	mv	a1,s0
80000cb4:	00000513          	li	a0,0
80000cb8:	fff40413          	addi	s0,s0,-1
80000cbc:	991ff0ef          	jal	ra,8000064c <add_disk>
80000cc0:	fe0418e3          	bnez	s0,80000cb0 <hanoi+0x50>
80000cc4:	00100613          	li	a2,1
80000cc8:	00700493          	li	s1,7
80000ccc:	fff48493          	addi	s1,s1,-1
80000cd0:	00200693          	li	a3,2
80000cd4:	00040593          	mv	a1,s0
80000cd8:	00048513          	mv	a0,s1
80000cdc:	00c12023          	sw	a2,0(sp)
80000ce0:	b81ff0ef          	jal	ra,80000860 <move>
80000ce4:	00040513          	mv	a0,s0
80000ce8:	a9dff0ef          	jal	ra,80000784 <remove_disk>
80000cec:	00050593          	mv	a1,a0
80000cf0:	00200513          	li	a0,2
80000cf4:	959ff0ef          	jal	ra,8000064c <add_disk>
80000cf8:	00012603          	lw	a2,0(sp)
80000cfc:	00060793          	mv	a5,a2
80000d00:	00040613          	mv	a2,s0
80000d04:	00048663          	beqz	s1,80000d10 <hanoi+0xb0>
80000d08:	00078413          	mv	s0,a5
80000d0c:	fc1ff06f          	j	80000ccc <hanoi+0x6c>
80000d10:	00c12083          	lw	ra,12(sp)
80000d14:	00812403          	lw	s0,8(sp)
80000d18:	00412483          	lw	s1,4(sp)
80000d1c:	01010113          	addi	sp,sp,16
80000d20:	00008067          	ret

80000d24 <ant>:
80000d24:	fc410113          	addi	sp,sp,-60
80000d28:	02b10793          	addi	a5,sp,43
80000d2c:	ff87f793          	andi	a5,a5,-8
80000d30:	02812a23          	sw	s0,52(sp)
80000d34:	02f12023          	sw	a5,32(sp)
80000d38:	00007417          	auipc	s0,0x7
80000d3c:	c8440413          	addi	s0,s0,-892 # 800079bc <w>
80000d40:	05000793          	li	a5,80
80000d44:	02112c23          	sw	ra,56(sp)
80000d48:	00007717          	auipc	a4,0x7
80000d4c:	c6c70713          	addi	a4,a4,-916 # 800079b4 <h>
80000d50:	02912823          	sw	s1,48(sp)
80000d54:	00f42023          	sw	a5,0(s0)
80000d58:	78000513          	li	a0,1920
80000d5c:	01800793          	li	a5,24
80000d60:	00f72023          	sw	a5,0(a4)
80000d64:	691010ef          	jal	ra,80002bf4 <malloc>
80000d68:	00008797          	auipc	a5,0x8
80000d6c:	dd478793          	addi	a5,a5,-556 # 80008b3c <pix>
80000d70:	78000613          	li	a2,1920
80000d74:	00000593          	li	a1,0
80000d78:	00a7a023          	sw	a0,0(a5)
80000d7c:	6b5010ef          	jal	ra,80002c30 <memset>
80000d80:	00002517          	auipc	a0,0x2
80000d84:	f1850513          	addi	a0,a0,-232 # 80002c98 <_etext>
80000d88:	315010ef          	jal	ra,8000289c <printf>
80000d8c:	00c00793          	li	a5,12
80000d90:	00f12423          	sw	a5,8(sp)
80000d94:	02800793          	li	a5,40
80000d98:	00f12623          	sw	a5,12(sp)
80000d9c:	00100793          	li	a5,1
80000da0:	00f12a23          	sw	a5,20(sp)
80000da4:	02a00793          	li	a5,42
80000da8:	00f12c23          	sw	a5,24(sp)
80000dac:	00e00793          	li	a5,14
80000db0:	00012823          	sw	zero,16(sp)
80000db4:	00f12223          	sw	a5,4(sp)
80000db8:	00042583          	lw	a1,0(s0)
80000dbc:	00812503          	lw	a0,8(sp)
80000dc0:	2b9010ef          	jal	ra,80002878 <__mulsi3>
80000dc4:	00c12703          	lw	a4,12(sp)
80000dc8:	00008797          	auipc	a5,0x8
80000dcc:	d7478793          	addi	a5,a5,-652 # 80008b3c <pix>
80000dd0:	0007a783          	lw	a5,0(a5)
80000dd4:	00e50533          	add	a0,a0,a4
80000dd8:	00a787b3          	add	a5,a5,a0
80000ddc:	0007c703          	lbu	a4,0(a5)
80000de0:	12070c63          	beqz	a4,80000f18 <ant+0x1f4>
80000de4:	01412703          	lw	a4,20(sp)
80000de8:	02000693          	li	a3,32
80000dec:	40e00633          	neg	a2,a4
80000df0:	01012703          	lw	a4,16(sp)
80000df4:	00c12823          	sw	a2,16(sp)
80000df8:	00e12a23          	sw	a4,20(sp)
80000dfc:	00000713          	li	a4,0
80000e00:	00e78023          	sb	a4,0(a5)
80000e04:	00c12783          	lw	a5,12(sp)
80000e08:	01012703          	lw	a4,16(sp)
80000e0c:	01812603          	lw	a2,24(sp)
80000e10:	00412583          	lw	a1,4(sp)
80000e14:	00e784b3          	add	s1,a5,a4
80000e18:	00002517          	auipc	a0,0x2
80000e1c:	e8850513          	addi	a0,a0,-376 # 80002ca0 <_etext+0x8>
80000e20:	00912623          	sw	s1,12(sp)
80000e24:	279010ef          	jal	ra,8000289c <printf>
80000e28:	00812783          	lw	a5,8(sp)
80000e2c:	01412703          	lw	a4,20(sp)
80000e30:	00e787b3          	add	a5,a5,a4
80000e34:	00f12423          	sw	a5,8(sp)
80000e38:	2c04c063          	bltz	s1,800010f8 <ant+0x3d4>
80000e3c:	00007797          	auipc	a5,0x7
80000e40:	b7878793          	addi	a5,a5,-1160 # 800079b4 <h>
80000e44:	0007a683          	lw	a3,0(a5)
80000e48:	00042483          	lw	s1,0(s0)
80000e4c:	00c12783          	lw	a5,12(sp)
80000e50:	1c97dc63          	bge	a5,s1,80001028 <ant+0x304>
80000e54:	00812783          	lw	a5,8(sp)
80000e58:	0ed7d063          	bge	a5,a3,80000f38 <ant+0x214>
80000e5c:	00812783          	lw	a5,8(sp)
80000e60:	2807c463          	bltz	a5,800010e8 <ant+0x3c4>
80000e64:	01f00593          	li	a1,31
80000e68:	00002517          	auipc	a0,0x2
80000e6c:	e5c50513          	addi	a0,a0,-420 # 80002cc4 <_etext+0x2c>
80000e70:	22d010ef          	jal	ra,8000289c <printf>
80000e74:	00c12783          	lw	a5,12(sp)
80000e78:	02b00693          	li	a3,43
80000e7c:	00002517          	auipc	a0,0x2
80000e80:	e2450513          	addi	a0,a0,-476 # 80002ca0 <_etext+0x8>
80000e84:	00278613          	addi	a2,a5,2
80000e88:	00812783          	lw	a5,8(sp)
80000e8c:	00c12c23          	sw	a2,24(sp)
80000e90:	00278793          	addi	a5,a5,2
80000e94:	00078593          	mv	a1,a5
80000e98:	00f12223          	sw	a5,4(sp)
80000e9c:	201010ef          	jal	ra,8000289c <printf>
80000ea0:	00000593          	li	a1,0
80000ea4:	00002517          	auipc	a0,0x2
80000ea8:	e2050513          	addi	a0,a0,-480 # 80002cc4 <_etext+0x2c>
80000eac:	1f1010ef          	jal	ra,8000289c <printf>
80000eb0:	02012483          	lw	s1,32(sp)
80000eb4:	00600513          	li	a0,6
80000eb8:	00048593          	mv	a1,s1
80000ebc:	0a5010ef          	jal	ra,80002760 <ioe_read>
80000ec0:	00048693          	mv	a3,s1
80000ec4:	0004a483          	lw	s1,0(s1)
80000ec8:	000027b7          	lui	a5,0x2
80000ecc:	0046a703          	lw	a4,4(a3)
80000ed0:	71078793          	addi	a5,a5,1808 # 2710 <_entry_offset+0x2710>
80000ed4:	00f487b3          	add	a5,s1,a5
80000ed8:	0097b4b3          	sltu	s1,a5,s1
80000edc:	00e484b3          	add	s1,s1,a4
80000ee0:	00912023          	sw	s1,0(sp)
80000ee4:	00f12e23          	sw	a5,28(sp)
80000ee8:	00068493          	mv	s1,a3
80000eec:	00048593          	mv	a1,s1
80000ef0:	00600513          	li	a0,6
80000ef4:	06d010ef          	jal	ra,80002760 <ioe_read>
80000ef8:	0044a783          	lw	a5,4(s1)
80000efc:	00012703          	lw	a4,0(sp)
80000f00:	0004a683          	lw	a3,0(s1)
80000f04:	fee7e4e3          	bltu	a5,a4,80000eec <ant+0x1c8>
80000f08:	eaf718e3          	bne	a4,a5,80000db8 <ant+0x94>
80000f0c:	01c12783          	lw	a5,28(sp)
80000f10:	fcf6eee3          	bltu	a3,a5,80000eec <ant+0x1c8>
80000f14:	ea5ff06f          	j	80000db8 <ant+0x94>
80000f18:	01012703          	lw	a4,16(sp)
80000f1c:	06f00693          	li	a3,111
80000f20:	40e00633          	neg	a2,a4
80000f24:	01412703          	lw	a4,20(sp)
80000f28:	00c12a23          	sw	a2,20(sp)
80000f2c:	00e12823          	sw	a4,16(sp)
80000f30:	00100713          	li	a4,1
80000f34:	ecdff06f          	j	80000e00 <ant+0xdc>
80000f38:	00008797          	auipc	a5,0x8
80000f3c:	c0478793          	addi	a5,a5,-1020 # 80008b3c <pix>
80000f40:	0007a703          	lw	a4,0(a5)
80000f44:	fff68513          	addi	a0,a3,-1
80000f48:	00048593          	mv	a1,s1
80000f4c:	00e12023          	sw	a4,0(sp)
80000f50:	129010ef          	jal	ra,80002878 <__mulsi3>
80000f54:	00012703          	lw	a4,0(sp)
80000f58:	00050613          	mv	a2,a0
80000f5c:	00a12223          	sw	a0,4(sp)
80000f60:	009705b3          	add	a1,a4,s1
80000f64:	00070513          	mv	a0,a4
80000f68:	4e9010ef          	jal	ra,80002c50 <memmove>
80000f6c:	00412783          	lw	a5,4(sp)
80000f70:	00012703          	lw	a4,0(sp)
80000f74:	00048613          	mv	a2,s1
80000f78:	00000593          	li	a1,0
80000f7c:	00f70533          	add	a0,a4,a5
80000f80:	4b1010ef          	jal	ra,80002c30 <memset>
80000f84:	00812783          	lw	a5,8(sp)
80000f88:	fff78793          	addi	a5,a5,-1
80000f8c:	00f12423          	sw	a5,8(sp)
80000f90:	00002517          	auipc	a0,0x2
80000f94:	d0850513          	addi	a0,a0,-760 # 80002c98 <_etext>
80000f98:	105010ef          	jal	ra,8000289c <printf>
80000f9c:	00007797          	auipc	a5,0x7
80000fa0:	a1878793          	addi	a5,a5,-1512 # 800079b4 <h>
80000fa4:	0007a703          	lw	a4,0(a5)
80000fa8:	00000493          	li	s1,0
80000fac:	00000593          	li	a1,0
80000fb0:	eae05ae3          	blez	a4,80000e64 <ant+0x140>
80000fb4:	00042783          	lw	a5,0(s0)
80000fb8:	00158593          	addi	a1,a1,1
80000fbc:	00000613          	li	a2,0
80000fc0:	04f05a63          	blez	a5,80001014 <ant+0x2f0>
80000fc4:	00008797          	auipc	a5,0x8
80000fc8:	b7878793          	addi	a5,a5,-1160 # 80008b3c <pix>
80000fcc:	0007a783          	lw	a5,0(a5)
80000fd0:	00160613          	addi	a2,a2,1
80000fd4:	00002517          	auipc	a0,0x2
80000fd8:	ccc50513          	addi	a0,a0,-820 # 80002ca0 <_etext+0x8>
80000fdc:	009787b3          	add	a5,a5,s1
80000fe0:	0007c683          	lbu	a3,0(a5)
80000fe4:	00c12223          	sw	a2,4(sp)
80000fe8:	00b12023          	sw	a1,0(sp)
80000fec:	00d036b3          	snez	a3,a3
80000ff0:	40d006b3          	neg	a3,a3
80000ff4:	0036f693          	andi	a3,a3,3
80000ff8:	02068693          	addi	a3,a3,32
80000ffc:	0a1010ef          	jal	ra,8000289c <printf>
80001000:	00042783          	lw	a5,0(s0)
80001004:	00412603          	lw	a2,4(sp)
80001008:	00012583          	lw	a1,0(sp)
8000100c:	00148493          	addi	s1,s1,1
80001010:	faf64ae3          	blt	a2,a5,80000fc4 <ant+0x2a0>
80001014:	00007797          	auipc	a5,0x7
80001018:	9a078793          	addi	a5,a5,-1632 # 800079b4 <h>
8000101c:	0007a783          	lw	a5,0(a5)
80001020:	f8f5cae3          	blt	a1,a5,80000fb4 <ant+0x290>
80001024:	e41ff06f          	j	80000e64 <ant+0x140>
80001028:	00008797          	auipc	a5,0x8
8000102c:	b1478793          	addi	a5,a5,-1260 # 80008b3c <pix>
80001030:	0007a703          	lw	a4,0(a5)
80001034:	00068593          	mv	a1,a3
80001038:	00048513          	mv	a0,s1
8000103c:	00d12c23          	sw	a3,24(sp)
80001040:	00e12023          	sw	a4,0(sp)
80001044:	035010ef          	jal	ra,80002878 <__mulsi3>
80001048:	00012703          	lw	a4,0(sp)
8000104c:	fff50613          	addi	a2,a0,-1
80001050:	00a12223          	sw	a0,4(sp)
80001054:	00170593          	addi	a1,a4,1
80001058:	00070513          	mv	a0,a4
8000105c:	3f5010ef          	jal	ra,80002c50 <memmove>
80001060:	00412303          	lw	t1,4(sp)
80001064:	fff48793          	addi	a5,s1,-1
80001068:	00012703          	lw	a4,0(sp)
8000106c:	01812683          	lw	a3,24(sp)
80001070:	0067da63          	bge	a5,t1,80001084 <ant+0x360>
80001074:	00f70633          	add	a2,a4,a5
80001078:	00060023          	sb	zero,0(a2)
8000107c:	009787b3          	add	a5,a5,s1
80001080:	fe67cae3          	blt	a5,t1,80001074 <ant+0x350>
80001084:	00c12783          	lw	a5,12(sp)
80001088:	fff78793          	addi	a5,a5,-1
8000108c:	00f12623          	sw	a5,12(sp)
80001090:	00812783          	lw	a5,8(sp)
80001094:	ead7d8e3          	bge	a5,a3,80000f44 <ant+0x220>
80001098:	00812783          	lw	a5,8(sp)
8000109c:	ee07dae3          	bgez	a5,80000f90 <ant+0x26c>
800010a0:	fff68513          	addi	a0,a3,-1
800010a4:	00048593          	mv	a1,s1
800010a8:	00e12023          	sw	a4,0(sp)
800010ac:	7cc010ef          	jal	ra,80002878 <__mulsi3>
800010b0:	00012703          	lw	a4,0(sp)
800010b4:	00050613          	mv	a2,a0
800010b8:	00070593          	mv	a1,a4
800010bc:	00970533          	add	a0,a4,s1
800010c0:	391010ef          	jal	ra,80002c50 <memmove>
800010c4:	00012703          	lw	a4,0(sp)
800010c8:	00048613          	mv	a2,s1
800010cc:	00000593          	li	a1,0
800010d0:	00070513          	mv	a0,a4
800010d4:	35d010ef          	jal	ra,80002c30 <memset>
800010d8:	00812783          	lw	a5,8(sp)
800010dc:	00178793          	addi	a5,a5,1
800010e0:	00f12423          	sw	a5,8(sp)
800010e4:	eadff06f          	j	80000f90 <ant+0x26c>
800010e8:	00008797          	auipc	a5,0x8
800010ec:	a5478793          	addi	a5,a5,-1452 # 80008b3c <pix>
800010f0:	0007a703          	lw	a4,0(a5)
800010f4:	fadff06f          	j	800010a0 <ant+0x37c>
800010f8:	00007797          	auipc	a5,0x7
800010fc:	8bc78793          	addi	a5,a5,-1860 # 800079b4 <h>
80001100:	0007a683          	lw	a3,0(a5)
80001104:	00042483          	lw	s1,0(s0)
80001108:	00008797          	auipc	a5,0x8
8000110c:	a3478793          	addi	a5,a5,-1484 # 80008b3c <pix>
80001110:	0007a703          	lw	a4,0(a5)
80001114:	00068593          	mv	a1,a3
80001118:	00048513          	mv	a0,s1
8000111c:	00d12c23          	sw	a3,24(sp)
80001120:	00e12023          	sw	a4,0(sp)
80001124:	754010ef          	jal	ra,80002878 <__mulsi3>
80001128:	00012703          	lw	a4,0(sp)
8000112c:	fff50613          	addi	a2,a0,-1
80001130:	00a12223          	sw	a0,4(sp)
80001134:	00070593          	mv	a1,a4
80001138:	00170513          	addi	a0,a4,1
8000113c:	315010ef          	jal	ra,80002c50 <memmove>
80001140:	00412303          	lw	t1,4(sp)
80001144:	00012703          	lw	a4,0(sp)
80001148:	01812683          	lw	a3,24(sp)
8000114c:	00000793          	li	a5,0
80001150:	00605a63          	blez	t1,80001164 <ant+0x440>
80001154:	00f70633          	add	a2,a4,a5
80001158:	00060023          	sb	zero,0(a2)
8000115c:	009787b3          	add	a5,a5,s1
80001160:	fe67cae3          	blt	a5,t1,80001154 <ant+0x430>
80001164:	00c12783          	lw	a5,12(sp)
80001168:	00178793          	addi	a5,a5,1
8000116c:	00f12623          	sw	a5,12(sp)
80001170:	00812783          	lw	a5,8(sp)
80001174:	f2d7c2e3          	blt	a5,a3,80001098 <ant+0x374>
80001178:	dcdff06f          	j	80000f44 <ant+0x220>

8000117c <bf>:
8000117c:	fe010113          	addi	sp,sp,-32
80001180:	00c00513          	li	a0,12
80001184:	00112e23          	sw	ra,28(sp)
80001188:	00812c23          	sw	s0,24(sp)
8000118c:	00912a23          	sw	s1,20(sp)
80001190:	265010ef          	jal	ra,80002bf4 <malloc>
80001194:	00c00613          	li	a2,12
80001198:	00000593          	li	a1,0
8000119c:	00a12823          	sw	a0,16(sp)
800011a0:	291010ef          	jal	ra,80002c30 <memset>
800011a4:	00002517          	auipc	a0,0x2
800011a8:	af450513          	addi	a0,a0,-1292 # 80002c98 <_etext>
800011ac:	6f0010ef          	jal	ra,8000289c <printf>
800011b0:	00002497          	auipc	s1,0x2
800011b4:	b1d48493          	addi	s1,s1,-1251 # 80002ccd <_etext+0x35>
800011b8:	02000713          	li	a4,32
800011bc:	00012023          	sw	zero,0(sp)
800011c0:	00000413          	li	s0,0
800011c4:	00000693          	li	a3,0
800011c8:	05b00293          	li	t0,91
800011cc:	00148493          	addi	s1,s1,1
800011d0:	08070463          	beqz	a4,80001258 <bf+0xdc>
800011d4:	00570a63          	beq	a4,t0,800011e8 <bf+0x6c>
800011d8:	0ee2fa63          	bgeu	t0,a4,800012cc <bf+0x150>
800011dc:	05d00793          	li	a5,93
800011e0:	06f71663          	bne	a4,a5,8000124c <bf+0xd0>
800011e4:	06068463          	beqz	a3,8000124c <bf+0xd0>
800011e8:	00c00513          	li	a0,12
800011ec:	00e12423          	sw	a4,8(sp)
800011f0:	00d12223          	sw	a3,4(sp)
800011f4:	201010ef          	jal	ra,80002bf4 <malloc>
800011f8:	00412683          	lw	a3,4(sp)
800011fc:	00812703          	lw	a4,8(sp)
80001200:	30050263          	beqz	a0,80001504 <bf+0x388>
80001204:	00c00613          	li	a2,12
80001208:	00000593          	li	a1,0
8000120c:	00e12623          	sw	a4,12(sp)
80001210:	00d12223          	sw	a3,4(sp)
80001214:	00a12423          	sw	a0,8(sp)
80001218:	219010ef          	jal	ra,80002c30 <memset>
8000121c:	00012603          	lw	a2,0(sp)
80001220:	00412683          	lw	a3,4(sp)
80001224:	00812783          	lw	a5,8(sp)
80001228:	00c12703          	lw	a4,12(sp)
8000122c:	05b00293          	li	t0,91
80001230:	0c060e63          	beqz	a2,8000130c <bf+0x190>
80001234:	00f62223          	sw	a5,4(a2)
80001238:	00e78023          	sb	a4,0(a5)
8000123c:	0a570e63          	beq	a4,t0,800012f8 <bf+0x17c>
80001240:	05d00613          	li	a2,93
80001244:	00f12023          	sw	a5,0(sp)
80001248:	06c70463          	beq	a4,a2,800012b0 <bf+0x134>
8000124c:	0004c703          	lbu	a4,0(s1)
80001250:	00148493          	addi	s1,s1,1
80001254:	f80710e3          	bnez	a4,800011d4 <bf+0x58>
80001258:	02000713          	li	a4,32
8000125c:	00068c63          	beqz	a3,80001274 <bf+0xf8>
80001260:	00068793          	mv	a5,a3
80001264:	0086a683          	lw	a3,8(a3)
80001268:	0007a423          	sw	zero,8(a5)
8000126c:	00e78023          	sb	a4,0(a5)
80001270:	fe0698e3          	bnez	a3,80001260 <bf+0xe4>
80001274:	01012283          	lw	t0,16(sp)
80001278:	00040713          	mv	a4,s0
8000127c:	00005397          	auipc	t2,0x5
80001280:	81c38393          	addi	t2,t2,-2020 # 80005a98 <_etext+0x2e00>
80001284:	26040a63          	beqz	s0,800014f8 <bf+0x37c>
80001288:	00074783          	lbu	a5,0(a4)
8000128c:	03200693          	li	a3,50
80001290:	fd578793          	addi	a5,a5,-43
80001294:	0ff7f793          	zext.b	a5,a5
80001298:	08f6e463          	bltu	a3,a5,80001320 <bf+0x1a4>
8000129c:	00279793          	slli	a5,a5,0x2
800012a0:	007787b3          	add	a5,a5,t2
800012a4:	0007a783          	lw	a5,0(a5)
800012a8:	007787b3          	add	a5,a5,t2
800012ac:	00078067          	jr	a5
800012b0:	00d7a423          	sw	a3,8(a5)
800012b4:	0086a783          	lw	a5,8(a3)
800012b8:	00012703          	lw	a4,0(sp)
800012bc:	00e6a423          	sw	a4,8(a3)
800012c0:	0004c703          	lbu	a4,0(s1)
800012c4:	00078693          	mv	a3,a5
800012c8:	f89ff06f          	j	80001250 <bf+0xd4>
800012cc:	fd570613          	addi	a2,a4,-43
800012d0:	0ff67613          	zext.b	a2,a2
800012d4:	01300793          	li	a5,19
800012d8:	f6c7eae3          	bltu	a5,a2,8000124c <bf+0xd0>
800012dc:	000a07b7          	lui	a5,0xa0
800012e0:	00f78793          	addi	a5,a5,15 # a000f <_entry_offset+0xa000f>
800012e4:	00c7d7b3          	srl	a5,a5,a2
800012e8:	0017f793          	andi	a5,a5,1
800012ec:	ee079ee3          	bnez	a5,800011e8 <bf+0x6c>
800012f0:	0004c703          	lbu	a4,0(s1)
800012f4:	f5dff06f          	j	80001250 <bf+0xd4>
800012f8:	00d7a423          	sw	a3,8(a5)
800012fc:	0004c703          	lbu	a4,0(s1)
80001300:	00078693          	mv	a3,a5
80001304:	00f12023          	sw	a5,0(sp)
80001308:	f49ff06f          	j	80001250 <bf+0xd4>
8000130c:	00078413          	mv	s0,a5
80001310:	f29ff06f          	j	80001238 <bf+0xbc>
80001314:	0002c783          	lbu	a5,0(t0)
80001318:	00178793          	addi	a5,a5,1
8000131c:	00f28023          	sb	a5,0(t0)
80001320:	00472703          	lw	a4,4(a4)
80001324:	f60712e3          	bnez	a4,80001288 <bf+0x10c>
80001328:	01012783          	lw	a5,16(sp)
8000132c:	02078263          	beqz	a5,80001350 <bf+0x1d4>
80001330:	01012783          	lw	a5,16(sp)
80001334:	00078513          	mv	a0,a5
80001338:	0047a783          	lw	a5,4(a5)
8000133c:	00078493          	mv	s1,a5
80001340:	00f12823          	sw	a5,16(sp)
80001344:	0e9010ef          	jal	ra,80002c2c <free>
80001348:	fe0494e3          	bnez	s1,80001330 <bf+0x1b4>
8000134c:	00040a63          	beqz	s0,80001360 <bf+0x1e4>
80001350:	00040513          	mv	a0,s0
80001354:	00442403          	lw	s0,4(s0)
80001358:	0d5010ef          	jal	ra,80002c2c <free>
8000135c:	fe041ae3          	bnez	s0,80001350 <bf+0x1d4>
80001360:	01c12083          	lw	ra,28(sp)
80001364:	01812403          	lw	s0,24(sp)
80001368:	01412483          	lw	s1,20(sp)
8000136c:	02010113          	addi	sp,sp,32
80001370:	00008067          	ret
80001374:	0002c783          	lbu	a5,0(t0)
80001378:	fa0784e3          	beqz	a5,80001320 <bf+0x1a4>
8000137c:	00872703          	lw	a4,8(a4)
80001380:	00472703          	lw	a4,4(a4)
80001384:	f00712e3          	bnez	a4,80001288 <bf+0x10c>
80001388:	fa1ff06f          	j	80001328 <bf+0x1ac>
8000138c:	0002c783          	lbu	a5,0(t0)
80001390:	f80798e3          	bnez	a5,80001320 <bf+0x1a4>
80001394:	00872703          	lw	a4,8(a4)
80001398:	fe9ff06f          	j	80001380 <bf+0x204>
8000139c:	0042a783          	lw	a5,4(t0)
800013a0:	08078c63          	beqz	a5,80001438 <bf+0x2bc>
800013a4:	00078293          	mv	t0,a5
800013a8:	00472703          	lw	a4,4(a4)
800013ac:	ec071ee3          	bnez	a4,80001288 <bf+0x10c>
800013b0:	f79ff06f          	j	80001328 <bf+0x1ac>
800013b4:	0082a283          	lw	t0,8(t0)
800013b8:	f60294e3          	bnez	t0,80001320 <bf+0x1a4>
800013bc:	00004517          	auipc	a0,0x4
800013c0:	6c850513          	addi	a0,a0,1736 # 80005a84 <_etext+0x2dec>
800013c4:	4d8010ef          	jal	ra,8000289c <printf>
800013c8:	00100513          	li	a0,1
800013cc:	288010ef          	jal	ra,80002654 <halt>
800013d0:	0002c683          	lbu	a3,0(t0)
800013d4:	00a00793          	li	a5,10
800013d8:	0af68463          	beq	a3,a5,80001480 <bf+0x304>
800013dc:	00007797          	auipc	a5,0x7
800013e0:	76478793          	addi	a5,a5,1892 # 80008b40 <x.0>
800013e4:	0007a603          	lw	a2,0(a5)
800013e8:	00167593          	andi	a1,a2,1
800013ec:	0a058e63          	beqz	a1,800014a8 <bf+0x32c>
800013f0:	00472703          	lw	a4,4(a4)
800013f4:	00160613          	addi	a2,a2,1
800013f8:	00c7a023          	sw	a2,0(a5)
800013fc:	e80716e3          	bnez	a4,80001288 <bf+0x10c>
80001400:	f29ff06f          	j	80001328 <bf+0x1ac>
80001404:	0002c783          	lbu	a5,0(t0)
80001408:	fff78793          	addi	a5,a5,-1
8000140c:	00f28023          	sb	a5,0(t0)
80001410:	00472703          	lw	a4,4(a4)
80001414:	e6071ae3          	bnez	a4,80001288 <bf+0x10c>
80001418:	f11ff06f          	j	80001328 <bf+0x1ac>
8000141c:	0004c783          	lbu	a5,0(s1)
80001420:	00148493          	addi	s1,s1,1
80001424:	ee078ee3          	beqz	a5,80001320 <bf+0x1a4>
80001428:	00f28023          	sb	a5,0(t0)
8000142c:	00472703          	lw	a4,4(a4)
80001430:	e4071ce3          	bnez	a4,80001288 <bf+0x10c>
80001434:	ef5ff06f          	j	80001328 <bf+0x1ac>
80001438:	00c00513          	li	a0,12
8000143c:	00512023          	sw	t0,0(sp)
80001440:	00e12223          	sw	a4,4(sp)
80001444:	7b0010ef          	jal	ra,80002bf4 <malloc>
80001448:	00012283          	lw	t0,0(sp)
8000144c:	00a2a223          	sw	a0,4(t0)
80001450:	0a050a63          	beqz	a0,80001504 <bf+0x388>
80001454:	00c00613          	li	a2,12
80001458:	00000593          	li	a1,0
8000145c:	7d4010ef          	jal	ra,80002c30 <memset>
80001460:	00012283          	lw	t0,0(sp)
80001464:	00412703          	lw	a4,4(sp)
80001468:	00004397          	auipc	t2,0x4
8000146c:	63038393          	addi	t2,t2,1584 # 80005a98 <_etext+0x2e00>
80001470:	0042a783          	lw	a5,4(t0)
80001474:	0057a423          	sw	t0,8(a5)
80001478:	00078293          	mv	t0,a5
8000147c:	f2dff06f          	j	800013a8 <bf+0x22c>
80001480:	00007697          	auipc	a3,0x7
80001484:	6c468693          	addi	a3,a3,1732 # 80008b44 <y.1>
80001488:	0006a783          	lw	a5,0(a3)
8000148c:	00472703          	lw	a4,4(a4)
80001490:	00007617          	auipc	a2,0x7
80001494:	6a062823          	sw	zero,1712(a2) # 80008b40 <x.0>
80001498:	00178793          	addi	a5,a5,1
8000149c:	00f6a023          	sw	a5,0(a3)
800014a0:	de0714e3          	bnez	a4,80001288 <bf+0x10c>
800014a4:	e85ff06f          	j	80001328 <bf+0x1ac>
800014a8:	01f65593          	srli	a1,a2,0x1f
800014ac:	00c58633          	add	a2,a1,a2
800014b0:	40165613          	srai	a2,a2,0x1
800014b4:	00007597          	auipc	a1,0x7
800014b8:	6905a583          	lw	a1,1680(a1) # 80008b44 <y.1>
800014bc:	00160613          	addi	a2,a2,1
800014c0:	00158593          	addi	a1,a1,1
800014c4:	00001517          	auipc	a0,0x1
800014c8:	7dc50513          	addi	a0,a0,2012 # 80002ca0 <_etext+0x8>
800014cc:	00512223          	sw	t0,4(sp)
800014d0:	00e12023          	sw	a4,0(sp)
800014d4:	3c8010ef          	jal	ra,8000289c <printf>
800014d8:	00007797          	auipc	a5,0x7
800014dc:	66878793          	addi	a5,a5,1640 # 80008b40 <x.0>
800014e0:	0007a603          	lw	a2,0(a5)
800014e4:	00412283          	lw	t0,4(sp)
800014e8:	00012703          	lw	a4,0(sp)
800014ec:	00004397          	auipc	t2,0x4
800014f0:	5ac38393          	addi	t2,t2,1452 # 80005a98 <_etext+0x2e00>
800014f4:	efdff06f          	j	800013f0 <bf+0x274>
800014f8:	01012783          	lw	a5,16(sp)
800014fc:	e2079ae3          	bnez	a5,80001330 <bf+0x1b4>
80001500:	e61ff06f          	j	80001360 <bf+0x1e4>
80001504:	00004517          	auipc	a0,0x4
80001508:	56450513          	addi	a0,a0,1380 # 80005a68 <_etext+0x2dd0>
8000150c:	390010ef          	jal	ra,8000289c <printf>
80001510:	00100513          	li	a0,1
80001514:	140010ef          	jal	ra,80002654 <halt>

80001518 <show>:
80001518:	fe410113          	addi	sp,sp,-28
8000151c:	00812a23          	sw	s0,20(sp)
80001520:	00006417          	auipc	s0,0x6
80001524:	4a040413          	addi	s0,s0,1184 # 800079c0 <w>
80001528:	00042783          	lw	a5,0(s0)
8000152c:	00912823          	sw	s1,16(sp)
80001530:	00050493          	mv	s1,a0
80001534:	00001517          	auipc	a0,0x1
80001538:	76450513          	addi	a0,a0,1892 # 80002c98 <_etext>
8000153c:	00f12023          	sw	a5,0(sp)
80001540:	00112c23          	sw	ra,24(sp)
80001544:	358010ef          	jal	ra,8000289c <printf>
80001548:	00006797          	auipc	a5,0x6
8000154c:	47078793          	addi	a5,a5,1136 # 800079b8 <h>
80001550:	0007a783          	lw	a5,0(a5)
80001554:	08f05663          	blez	a5,800015e0 <show+0xc8>
80001558:	00012783          	lw	a5,0(sp)
8000155c:	00912423          	sw	s1,8(sp)
80001560:	00000593          	li	a1,0
80001564:	00279793          	slli	a5,a5,0x2
80001568:	00f12623          	sw	a5,12(sp)
8000156c:	00042703          	lw	a4,0(s0)
80001570:	00812483          	lw	s1,8(sp)
80001574:	00158593          	addi	a1,a1,1
80001578:	00000613          	li	a2,0
8000157c:	04e05263          	blez	a4,800015c0 <show+0xa8>
80001580:	0004a683          	lw	a3,0(s1)
80001584:	00160613          	addi	a2,a2,1
80001588:	00001517          	auipc	a0,0x1
8000158c:	71850513          	addi	a0,a0,1816 # 80002ca0 <_etext+0x8>
80001590:	00d036b3          	snez	a3,a3
80001594:	40d006b3          	neg	a3,a3
80001598:	04f6f693          	andi	a3,a3,79
8000159c:	02068693          	addi	a3,a3,32
800015a0:	00c12223          	sw	a2,4(sp)
800015a4:	00b12023          	sw	a1,0(sp)
800015a8:	2f4010ef          	jal	ra,8000289c <printf>
800015ac:	00042703          	lw	a4,0(s0)
800015b0:	00412603          	lw	a2,4(sp)
800015b4:	00012583          	lw	a1,0(sp)
800015b8:	00448493          	addi	s1,s1,4
800015bc:	fce642e3          	blt	a2,a4,80001580 <show+0x68>
800015c0:	00812703          	lw	a4,8(sp)
800015c4:	00c12683          	lw	a3,12(sp)
800015c8:	00006797          	auipc	a5,0x6
800015cc:	3f078793          	addi	a5,a5,1008 # 800079b8 <h>
800015d0:	0007a783          	lw	a5,0(a5)
800015d4:	00d70733          	add	a4,a4,a3
800015d8:	00e12423          	sw	a4,8(sp)
800015dc:	f8f5c8e3          	blt	a1,a5,8000156c <show+0x54>
800015e0:	01812083          	lw	ra,24(sp)
800015e4:	01412403          	lw	s0,20(sp)
800015e8:	01012483          	lw	s1,16(sp)
800015ec:	01c10113          	addi	sp,sp,28
800015f0:	00008067          	ret

800015f4 <evolve>:
800015f4:	fac10113          	addi	sp,sp,-84
800015f8:	00006797          	auipc	a5,0x6
800015fc:	3c87a783          	lw	a5,968(a5) # 800079c0 <w>
80001600:	00006717          	auipc	a4,0x6
80001604:	3b872703          	lw	a4,952(a4) # 800079b8 <h>
80001608:	00f12623          	sw	a5,12(sp)
8000160c:	04112823          	sw	ra,80(sp)
80001610:	04812623          	sw	s0,76(sp)
80001614:	04912423          	sw	s1,72(sp)
80001618:	00e12e23          	sw	a4,28(sp)
8000161c:	02a12023          	sw	a0,32(sp)
80001620:	00007797          	auipc	a5,0x7
80001624:	5287a783          	lw	a5,1320(a5) # 80008b48 <new_array>
80001628:	1ce05463          	blez	a4,800017f0 <evolve+0x1fc>
8000162c:	01c12683          	lw	a3,28(sp)
80001630:	00c12603          	lw	a2,12(sp)
80001634:	00078593          	mv	a1,a5
80001638:	00169713          	slli	a4,a3,0x1
8000163c:	fff68693          	addi	a3,a3,-1
80001640:	02d12623          	sw	a3,44(sp)
80001644:	00261693          	slli	a3,a2,0x2
80001648:	00d12a23          	sw	a3,20(sp)
8000164c:	02012683          	lw	a3,32(sp)
80001650:	fff70713          	addi	a4,a4,-1
80001654:	04f12223          	sw	a5,68(sp)
80001658:	00160793          	addi	a5,a2,1
8000165c:	02e12e23          	sw	a4,60(sp)
80001660:	00179713          	slli	a4,a5,0x1
80001664:	04d12023          	sw	a3,64(sp)
80001668:	02e12823          	sw	a4,48(sp)
8000166c:	02d12c23          	sw	a3,56(sp)
80001670:	02b12a23          	sw	a1,52(sp)
80001674:	00c12783          	lw	a5,12(sp)
80001678:	0ef05c63          	blez	a5,80001770 <evolve+0x17c>
8000167c:	00c12783          	lw	a5,12(sp)
80001680:	00278713          	addi	a4,a5,2
80001684:	fff78793          	addi	a5,a5,-1
80001688:	00f12823          	sw	a5,16(sp)
8000168c:	03812783          	lw	a5,56(sp)
80001690:	00e12223          	sw	a4,4(sp)
80001694:	02f12223          	sw	a5,36(sp)
80001698:	03412783          	lw	a5,52(sp)
8000169c:	02f12423          	sw	a5,40(sp)
800016a0:	02c12783          	lw	a5,44(sp)
800016a4:	00378793          	addi	a5,a5,3
800016a8:	00f12c23          	sw	a5,24(sp)
800016ac:	02c12783          	lw	a5,44(sp)
800016b0:	00000413          	li	s0,0
800016b4:	00f12423          	sw	a5,8(sp)
800016b8:	01c12583          	lw	a1,28(sp)
800016bc:	00812503          	lw	a0,8(sp)
800016c0:	188010ef          	jal	ra,80002848 <__modsi3>
800016c4:	01412583          	lw	a1,20(sp)
800016c8:	1b0010ef          	jal	ra,80002878 <__mulsi3>
800016cc:	02012783          	lw	a5,32(sp)
800016d0:	01012483          	lw	s1,16(sp)
800016d4:	00a787b3          	add	a5,a5,a0
800016d8:	00f12023          	sw	a5,0(sp)
800016dc:	00c12583          	lw	a1,12(sp)
800016e0:	00048513          	mv	a0,s1
800016e4:	00148493          	addi	s1,s1,1
800016e8:	160010ef          	jal	ra,80002848 <__modsi3>
800016ec:	00012783          	lw	a5,0(sp)
800016f0:	00251513          	slli	a0,a0,0x2
800016f4:	00a78533          	add	a0,a5,a0
800016f8:	00052703          	lw	a4,0(a0)
800016fc:	00412783          	lw	a5,4(sp)
80001700:	00e03733          	snez	a4,a4
80001704:	00e40433          	add	s0,s0,a4
80001708:	fcf49ae3          	bne	s1,a5,800016dc <evolve+0xe8>
8000170c:	00812783          	lw	a5,8(sp)
80001710:	01812703          	lw	a4,24(sp)
80001714:	00178793          	addi	a5,a5,1
80001718:	00f12423          	sw	a5,8(sp)
8000171c:	f8e79ee3          	bne	a5,a4,800016b8 <evolve+0xc4>
80001720:	02412783          	lw	a5,36(sp)
80001724:	0007a783          	lw	a5,0(a5)
80001728:	0c079e63          	bnez	a5,80001804 <evolve+0x210>
8000172c:	ffd40793          	addi	a5,s0,-3
80001730:	0017b793          	seqz	a5,a5
80001734:	02812703          	lw	a4,40(sp)
80001738:	00f72023          	sw	a5,0(a4)
8000173c:	00470713          	addi	a4,a4,4
80001740:	02e12423          	sw	a4,40(sp)
80001744:	02412703          	lw	a4,36(sp)
80001748:	00412783          	lw	a5,4(sp)
8000174c:	00470713          	addi	a4,a4,4
80001750:	02e12223          	sw	a4,36(sp)
80001754:	01012703          	lw	a4,16(sp)
80001758:	00178793          	addi	a5,a5,1
8000175c:	00f12223          	sw	a5,4(sp)
80001760:	00170713          	addi	a4,a4,1
80001764:	00e12823          	sw	a4,16(sp)
80001768:	03012703          	lw	a4,48(sp)
8000176c:	f4e790e3          	bne	a5,a4,800016ac <evolve+0xb8>
80001770:	03412683          	lw	a3,52(sp)
80001774:	01412703          	lw	a4,20(sp)
80001778:	02c12783          	lw	a5,44(sp)
8000177c:	00e686b3          	add	a3,a3,a4
80001780:	02d12a23          	sw	a3,52(sp)
80001784:	03812683          	lw	a3,56(sp)
80001788:	00178793          	addi	a5,a5,1
8000178c:	02f12623          	sw	a5,44(sp)
80001790:	00e68733          	add	a4,a3,a4
80001794:	02e12c23          	sw	a4,56(sp)
80001798:	03c12703          	lw	a4,60(sp)
8000179c:	ece79ce3          	bne	a5,a4,80001674 <evolve+0x80>
800017a0:	04012303          	lw	t1,64(sp)
800017a4:	04412283          	lw	t0,68(sp)
800017a8:	00c12503          	lw	a0,12(sp)
800017ac:	01c12403          	lw	s0,28(sp)
800017b0:	01412383          	lw	t2,20(sp)
800017b4:	00000593          	li	a1,0
800017b8:	00030693          	mv	a3,t1
800017bc:	00028713          	mv	a4,t0
800017c0:	00000793          	li	a5,0
800017c4:	00a05e63          	blez	a0,800017e0 <evolve+0x1ec>
800017c8:	00072603          	lw	a2,0(a4)
800017cc:	00178793          	addi	a5,a5,1
800017d0:	00470713          	addi	a4,a4,4
800017d4:	00c6a023          	sw	a2,0(a3)
800017d8:	00468693          	addi	a3,a3,4
800017dc:	fef516e3          	bne	a0,a5,800017c8 <evolve+0x1d4>
800017e0:	00158593          	addi	a1,a1,1
800017e4:	007282b3          	add	t0,t0,t2
800017e8:	00730333          	add	t1,t1,t2
800017ec:	fc8596e3          	bne	a1,s0,800017b8 <evolve+0x1c4>
800017f0:	05012083          	lw	ra,80(sp)
800017f4:	04c12403          	lw	s0,76(sp)
800017f8:	04812483          	lw	s1,72(sp)
800017fc:	05410113          	addi	sp,sp,84
80001800:	00008067          	ret
80001804:	fff40713          	addi	a4,s0,-1
80001808:	00300693          	li	a3,3
8000180c:	00100793          	li	a5,1
80001810:	f2d702e3          	beq	a4,a3,80001734 <evolve+0x140>
80001814:	ffd40413          	addi	s0,s0,-3
80001818:	00143793          	seqz	a5,s0
8000181c:	f19ff06f          	j	80001734 <evolve+0x140>

80001820 <game_of_life>:
80001820:	fd810113          	addi	sp,sp,-40
80001824:	02812023          	sw	s0,32(sp)
80001828:	05000793          	li	a5,80
8000182c:	00002437          	lui	s0,0x2
80001830:	01710593          	addi	a1,sp,23
80001834:	00006717          	auipc	a4,0x6
80001838:	18f72623          	sw	a5,396(a4) # 800079c0 <w>
8000183c:	e0040513          	addi	a0,s0,-512 # 1e00 <_entry_offset+0x1e00>
80001840:	01800793          	li	a5,24
80001844:	00006717          	auipc	a4,0x6
80001848:	16f72a23          	sw	a5,372(a4) # 800079b8 <h>
8000184c:	02112223          	sw	ra,36(sp)
80001850:	00912e23          	sw	s1,28(sp)
80001854:	ff85f493          	andi	s1,a1,-8
80001858:	39c010ef          	jal	ra,80002bf4 <malloc>
8000185c:	00050693          	mv	a3,a0
80001860:	e0040513          	addi	a0,s0,-512
80001864:	00007797          	auipc	a5,0x7
80001868:	2ed7a423          	sw	a3,744(a5) # 80008b4c <univ_array>
8000186c:	00d12223          	sw	a3,4(sp)
80001870:	384010ef          	jal	ra,80002bf4 <malloc>
80001874:	00007697          	auipc	a3,0x7
80001878:	2ca6aa23          	sw	a0,724(a3) # 80008b48 <new_array>
8000187c:	00412683          	lw	a3,4(sp)
80001880:	f4040793          	addi	a5,s0,-192
80001884:	e0040713          	addi	a4,s0,-512
80001888:	00f687b3          	add	a5,a3,a5
8000188c:	00f12423          	sw	a5,8(sp)
80001890:	ffffe7b7          	lui	a5,0xffffe
80001894:	00e68733          	add	a4,a3,a4
80001898:	20078793          	addi	a5,a5,512 # ffffe200 <_end+0x7ffed200>
8000189c:	00e12023          	sw	a4,0(sp)
800018a0:	00f12623          	sw	a5,12(sp)
800018a4:	00012783          	lw	a5,0(sp)
800018a8:	00c12703          	lw	a4,12(sp)
800018ac:	00e78433          	add	s0,a5,a4
800018b0:	2e4010ef          	jal	ra,80002b94 <rand>
800018b4:	01f55713          	srli	a4,a0,0x1f
800018b8:	00e50533          	add	a0,a0,a4
800018bc:	00157513          	andi	a0,a0,1
800018c0:	00012783          	lw	a5,0(sp)
800018c4:	40e50533          	sub	a0,a0,a4
800018c8:	00a42023          	sw	a0,0(s0)
800018cc:	14040413          	addi	s0,s0,320
800018d0:	fef410e3          	bne	s0,a5,800018b0 <game_of_life+0x90>
800018d4:	00812703          	lw	a4,8(sp)
800018d8:	00440793          	addi	a5,s0,4
800018dc:	00f12023          	sw	a5,0(sp)
800018e0:	fce792e3          	bne	a5,a4,800018a4 <game_of_life+0x84>
800018e4:	000317b7          	lui	a5,0x31
800018e8:	d4078793          	addi	a5,a5,-704 # 30d40 <_entry_offset+0x30d40>
800018ec:	00f12423          	sw	a5,8(sp)
800018f0:	00412403          	lw	s0,4(sp)
800018f4:	00040513          	mv	a0,s0
800018f8:	c21ff0ef          	jal	ra,80001518 <show>
800018fc:	00040513          	mv	a0,s0
80001900:	cf5ff0ef          	jal	ra,800015f4 <evolve>
80001904:	00048593          	mv	a1,s1
80001908:	00600513          	li	a0,6
8000190c:	655000ef          	jal	ra,80002760 <ioe_read>
80001910:	00812703          	lw	a4,8(sp)
80001914:	0004a403          	lw	s0,0(s1)
80001918:	0044a783          	lw	a5,4(s1)
8000191c:	00e40733          	add	a4,s0,a4
80001920:	00873433          	sltu	s0,a4,s0
80001924:	00e12023          	sw	a4,0(sp)
80001928:	00f40433          	add	s0,s0,a5
8000192c:	00048593          	mv	a1,s1
80001930:	00600513          	li	a0,6
80001934:	62d000ef          	jal	ra,80002760 <ioe_read>
80001938:	0044a783          	lw	a5,4(s1)
8000193c:	0004a703          	lw	a4,0(s1)
80001940:	fe87e6e3          	bltu	a5,s0,8000192c <game_of_life+0x10c>
80001944:	faf416e3          	bne	s0,a5,800018f0 <game_of_life+0xd0>
80001948:	00012783          	lw	a5,0(sp)
8000194c:	fef760e3          	bltu	a4,a5,8000192c <game_of_life+0x10c>
80001950:	fa1ff06f          	j	800018f0 <game_of_life+0xd0>

80001954 <aclock>:
80001954:	fc010113          	addi	sp,sp,-64
80001958:	02f10793          	addi	a5,sp,47
8000195c:	ff87f793          	andi	a5,a5,-8
80001960:	02812c23          	sw	s0,56(sp)
80001964:	02112e23          	sw	ra,60(sp)
80001968:	02912a23          	sw	s1,52(sp)
8000196c:	00f12623          	sw	a5,12(sp)
80001970:	00001417          	auipc	s0,0x1
80001974:	33040413          	addi	s0,s0,816 # 80002ca0 <_etext+0x8>
80001978:	01010593          	addi	a1,sp,16
8000197c:	00500513          	li	a0,5
80001980:	5e1000ef          	jal	ra,80002760 <ioe_read>
80001984:	01c12783          	lw	a5,28(sp)
80001988:	00001517          	auipc	a0,0x1
8000198c:	31050513          	addi	a0,a0,784 # 80002c98 <_etext>
80001990:	00004497          	auipc	s1,0x4
80001994:	1e048493          	addi	s1,s1,480 # 80005b70 <circle+0xc>
80001998:	00f12023          	sw	a5,0(sp)
8000199c:	02012783          	lw	a5,32(sp)
800019a0:	00f12223          	sw	a5,4(sp)
800019a4:	02412783          	lw	a5,36(sp)
800019a8:	00f12423          	sw	a5,8(sp)
800019ac:	6f1000ef          	jal	ra,8000289c <printf>
800019b0:	06f00693          	li	a3,111
800019b4:	00c00593          	li	a1,12
800019b8:	03e00613          	li	a2,62
800019bc:	0140006f          	j	800019d0 <aclock+0x7c>
800019c0:	0004a603          	lw	a2,0(s1)
800019c4:	0044a583          	lw	a1,4(s1)
800019c8:	0084a683          	lw	a3,8(s1)
800019cc:	00c48493          	addi	s1,s1,12
800019d0:	0ff6f693          	zext.b	a3,a3
800019d4:	ff160613          	addi	a2,a2,-15
800019d8:	00158593          	addi	a1,a1,1
800019dc:	00040513          	mv	a0,s0
800019e0:	6bd000ef          	jal	ra,8000289c <printf>
800019e4:	00004797          	auipc	a5,0x4
800019e8:	45078793          	addi	a5,a5,1104 # 80005e34 <hour>
800019ec:	fc979ae3          	bne	a5,s1,800019c0 <aclock+0x6c>
800019f0:	00012703          	lw	a4,0(sp)
800019f4:	00c00793          	li	a5,12
800019f8:	16e7d863          	bge	a5,a4,80001b68 <aclock+0x214>
800019fc:	ff470793          	addi	a5,a4,-12
80001a00:	00279493          	slli	s1,a5,0x2
80001a04:	00f484b3          	add	s1,s1,a5
80001a08:	00412503          	lw	a0,4(sp)
80001a0c:	00a00593          	li	a1,10
80001a10:	5b5000ef          	jal	ra,800027c4 <__divsi3>
80001a14:	00950533          	add	a0,a0,s1
80001a18:	00151493          	slli	s1,a0,0x1
80001a1c:	00a484b3          	add	s1,s1,a0
80001a20:	00449793          	slli	a5,s1,0x4
80001a24:	00004717          	auipc	a4,0x4
80001a28:	41070713          	addi	a4,a4,1040 # 80005e34 <hour>
80001a2c:	00f704b3          	add	s1,a4,a5
80001a30:	00004717          	auipc	a4,0x4
80001a34:	43470713          	addi	a4,a4,1076 # 80005e64 <hour+0x30>
80001a38:	00f707b3          	add	a5,a4,a5
80001a3c:	00f12023          	sw	a5,0(sp)
80001a40:	0004a603          	lw	a2,0(s1)
80001a44:	0044a583          	lw	a1,4(s1)
80001a48:	06800693          	li	a3,104
80001a4c:	ff160613          	addi	a2,a2,-15
80001a50:	00158593          	addi	a1,a1,1
80001a54:	00040513          	mv	a0,s0
80001a58:	645000ef          	jal	ra,8000289c <printf>
80001a5c:	00012783          	lw	a5,0(sp)
80001a60:	00848493          	addi	s1,s1,8
80001a64:	fcf49ee3          	bne	s1,a5,80001a40 <aclock+0xec>
80001a68:	00412783          	lw	a5,4(sp)
80001a6c:	00005717          	auipc	a4,0x5
80001a70:	f0870713          	addi	a4,a4,-248 # 80006974 <minute>
80001a74:	00679793          	slli	a5,a5,0x6
80001a78:	00f704b3          	add	s1,a4,a5
80001a7c:	00005717          	auipc	a4,0x5
80001a80:	f3870713          	addi	a4,a4,-200 # 800069b4 <minute+0x40>
80001a84:	00f707b3          	add	a5,a4,a5
80001a88:	00f12023          	sw	a5,0(sp)
80001a8c:	0004a603          	lw	a2,0(s1)
80001a90:	0044a583          	lw	a1,4(s1)
80001a94:	04d00693          	li	a3,77
80001a98:	ff160613          	addi	a2,a2,-15
80001a9c:	00158593          	addi	a1,a1,1
80001aa0:	00040513          	mv	a0,s0
80001aa4:	5f9000ef          	jal	ra,8000289c <printf>
80001aa8:	00012783          	lw	a5,0(sp)
80001aac:	00848493          	addi	s1,s1,8
80001ab0:	fcf49ee3          	bne	s1,a5,80001a8c <aclock+0x138>
80001ab4:	00812783          	lw	a5,8(sp)
80001ab8:	00005717          	auipc	a4,0x5
80001abc:	ebc70713          	addi	a4,a4,-324 # 80006974 <minute>
80001ac0:	00679793          	slli	a5,a5,0x6
80001ac4:	00f704b3          	add	s1,a4,a5
80001ac8:	00005717          	auipc	a4,0x5
80001acc:	eec70713          	addi	a4,a4,-276 # 800069b4 <minute+0x40>
80001ad0:	00f707b3          	add	a5,a4,a5
80001ad4:	00f12023          	sw	a5,0(sp)
80001ad8:	0004a603          	lw	a2,0(s1)
80001adc:	0044a583          	lw	a1,4(s1)
80001ae0:	02e00693          	li	a3,46
80001ae4:	ff160613          	addi	a2,a2,-15
80001ae8:	00158593          	addi	a1,a1,1
80001aec:	00040513          	mv	a0,s0
80001af0:	5ad000ef          	jal	ra,8000289c <printf>
80001af4:	00012783          	lw	a5,0(sp)
80001af8:	00848493          	addi	s1,s1,8
80001afc:	fc979ee3          	bne	a5,s1,80001ad8 <aclock+0x184>
80001b00:	00c12483          	lw	s1,12(sp)
80001b04:	00600513          	li	a0,6
80001b08:	00048593          	mv	a1,s1
80001b0c:	455000ef          	jal	ra,80002760 <ioe_read>
80001b10:	00048693          	mv	a3,s1
80001b14:	0004a483          	lw	s1,0(s1)
80001b18:	000f47b7          	lui	a5,0xf4
80001b1c:	0046a703          	lw	a4,4(a3)
80001b20:	24078793          	addi	a5,a5,576 # f4240 <_entry_offset+0xf4240>
80001b24:	00f487b3          	add	a5,s1,a5
80001b28:	0097b4b3          	sltu	s1,a5,s1
80001b2c:	00e484b3          	add	s1,s1,a4
80001b30:	00912023          	sw	s1,0(sp)
80001b34:	00f12223          	sw	a5,4(sp)
80001b38:	00068493          	mv	s1,a3
80001b3c:	00048593          	mv	a1,s1
80001b40:	00600513          	li	a0,6
80001b44:	41d000ef          	jal	ra,80002760 <ioe_read>
80001b48:	0044a783          	lw	a5,4(s1)
80001b4c:	00012703          	lw	a4,0(sp)
80001b50:	0004a683          	lw	a3,0(s1)
80001b54:	fee7e4e3          	bltu	a5,a4,80001b3c <aclock+0x1e8>
80001b58:	e2f710e3          	bne	a4,a5,80001978 <aclock+0x24>
80001b5c:	00412783          	lw	a5,4(sp)
80001b60:	fcf6eee3          	bltu	a3,a5,80001b3c <aclock+0x1e8>
80001b64:	e15ff06f          	j	80001978 <aclock+0x24>
80001b68:	00012703          	lw	a4,0(sp)
80001b6c:	00271793          	slli	a5,a4,0x2
80001b70:	00e784b3          	add	s1,a5,a4
80001b74:	e95ff06f          	j	80001a08 <aclock+0xb4>

80001b78 <sub_d.constprop.0>:
80001b78:	41f55713          	srai	a4,a0,0x1f
80001b7c:	01c75713          	srli	a4,a4,0x1c
80001b80:	00e507b3          	add	a5,a0,a4
80001b84:	00f7f793          	andi	a5,a5,15
80001b88:	40e787b3          	sub	a5,a5,a4
80001b8c:	ff410113          	addi	sp,sp,-12
80001b90:	00479793          	slli	a5,a5,0x4
80001b94:	00812223          	sw	s0,4(sp)
80001b98:	00912023          	sw	s1,0(sp)
80001b9c:	00112423          	sw	ra,8(sp)
80001ba0:	0ff7f793          	zext.b	a5,a5
80001ba4:	00900713          	li	a4,9
80001ba8:	00058493          	mv	s1,a1
80001bac:	00060413          	mv	s0,a2
80001bb0:	02f77c63          	bgeu	a4,a5,80001be8 <sub_d.constprop.0+0x70>
80001bb4:	fb400793          	li	a5,-76
80001bb8:	40a787b3          	sub	a5,a5,a0
80001bbc:	0ff7f793          	zext.b	a5,a5
80001bc0:	0aa00713          	li	a4,170
80001bc4:	02f76a63          	bltu	a4,a5,80001bf8 <sub_d.constprop.0+0x80>
80001bc8:	04e79663          	bne	a5,a4,80001c14 <sub_d.constprop.0+0x9c>
80001bcc:	01700793          	li	a5,23
80001bd0:	0487fe63          	bgeu	a5,s0,80001c2c <sub_d.constprop.0+0xb4>
80001bd4:	00812083          	lw	ra,8(sp)
80001bd8:	00412403          	lw	s0,4(sp)
80001bdc:	00012483          	lw	s1,0(sp)
80001be0:	00c10113          	addi	sp,sp,12
80001be4:	00008067          	ret
80001be8:	01700793          	li	a5,23
80001bec:	fec7e4e3          	bltu	a5,a2,80001bd4 <sub_d.constprop.0+0x5c>
80001bf0:	02000693          	li	a3,32
80001bf4:	0540006f          	j	80001c48 <sub_d.constprop.0+0xd0>
80001bf8:	02500593          	li	a1,37
80001bfc:	00001517          	auipc	a0,0x1
80001c00:	0c850513          	addi	a0,a0,200 # 80002cc4 <_etext+0x2c>
80001c04:	499000ef          	jal	ra,8000289c <printf>
80001c08:	01700793          	li	a5,23
80001c0c:	fc87e4e3          	bltu	a5,s0,80001bd4 <sub_d.constprop.0+0x5c>
80001c10:	01c0006f          	j	80001c2c <sub_d.constprop.0+0xb4>
80001c14:	02000593          	li	a1,32
80001c18:	00001517          	auipc	a0,0x1
80001c1c:	0ac50513          	addi	a0,a0,172 # 80002cc4 <_etext+0x2c>
80001c20:	47d000ef          	jal	ra,8000289c <printf>
80001c24:	01700793          	li	a5,23
80001c28:	fa87e6e3          	bltu	a5,s0,80001bd4 <sub_d.constprop.0+0x5c>
80001c2c:	00048593          	mv	a1,s1
80001c30:	00040513          	mv	a0,s0
80001c34:	445000ef          	jal	ra,80002878 <__mulsi3>
80001c38:	05e00593          	li	a1,94
80001c3c:	40d000ef          	jal	ra,80002848 <__modsi3>
80001c40:	02150693          	addi	a3,a0,33
80001c44:	0ff6f693          	zext.b	a3,a3
80001c48:	00140593          	addi	a1,s0,1
80001c4c:	00412403          	lw	s0,4(sp)
80001c50:	00812083          	lw	ra,8(sp)
80001c54:	00148613          	addi	a2,s1,1
80001c58:	00012483          	lw	s1,0(sp)
80001c5c:	00001517          	auipc	a0,0x1
80001c60:	04450513          	addi	a0,a0,68 # 80002ca0 <_etext+0x8>
80001c64:	00c10113          	addi	sp,sp,12
80001c68:	4350006f          	j	8000289c <printf>

80001c6c <cmatrix>:
80001c6c:	fb810113          	addi	sp,sp,-72
80001c70:	03710793          	addi	a5,sp,55
80001c74:	ff87f793          	andi	a5,a5,-8
80001c78:	00001517          	auipc	a0,0x1
80001c7c:	02050513          	addi	a0,a0,32 # 80002c98 <_etext>
80001c80:	04112223          	sw	ra,68(sp)
80001c84:	04812023          	sw	s0,64(sp)
80001c88:	02912e23          	sw	s1,60(sp)
80001c8c:	02f12223          	sw	a5,36(sp)
80001c90:	40d000ef          	jal	ra,8000289c <printf>
80001c94:	701000ef          	jal	ra,80002b94 <rand>
80001c98:	00a12023          	sw	a0,0(sp)
80001c9c:	00007497          	auipc	s1,0x7
80001ca0:	d6048493          	addi	s1,s1,-672 # 800089fc <t>
80001ca4:	00007417          	auipc	s0,0x7
80001ca8:	e9840413          	addi	s0,s0,-360 # 80008b3c <pix>
80001cac:	6e9000ef          	jal	ra,80002b94 <rand>
80001cb0:	03200593          	li	a1,50
80001cb4:	40a00533          	neg	a0,a0
80001cb8:	391000ef          	jal	ra,80002848 <__modsi3>
80001cbc:	00a4a023          	sw	a0,0(s1)
80001cc0:	00448493          	addi	s1,s1,4
80001cc4:	fe9414e3          	bne	s0,s1,80001cac <cmatrix+0x40>
80001cc8:	00a00613          	li	a2,10
80001ccc:	00a00593          	li	a1,10
80001cd0:	00100513          	li	a0,1
80001cd4:	ea5ff0ef          	jal	ra,80001b78 <sub_d.constprop.0>
80001cd8:	00012783          	lw	a5,0(sp)
80001cdc:	00278493          	addi	s1,a5,2
80001ce0:	00a78713          	addi	a4,a5,10
80001ce4:	00b78793          	addi	a5,a5,11
80001ce8:	00f12823          	sw	a5,16(sp)
80001cec:	000187b7          	lui	a5,0x18
80001cf0:	6a078793          	addi	a5,a5,1696 # 186a0 <_entry_offset+0x186a0>
80001cf4:	00e12023          	sw	a4,0(sp)
80001cf8:	02f12423          	sw	a5,40(sp)
80001cfc:	02912623          	sw	s1,44(sp)
80001d00:	04f00793          	li	a5,79
80001d04:	02c12403          	lw	s0,44(sp)
80001d08:	00f12223          	sw	a5,4(sp)
80001d0c:	07c0006f          	j	80001d88 <cmatrix+0x11c>
80001d10:	00100713          	li	a4,1
80001d14:	00e6a023          	sw	a4,0(a3)
80001d18:	e61ff0ef          	jal	ra,80001b78 <sub_d.constprop.0>
80001d1c:	ffd00613          	li	a2,-3
80001d20:	00048593          	mv	a1,s1
80001d24:	00040513          	mv	a0,s0
80001d28:	e51ff0ef          	jal	ra,80001b78 <sub_d.constprop.0>
80001d2c:	00012503          	lw	a0,0(sp)
80001d30:	ffe00613          	li	a2,-2
80001d34:	00048593          	mv	a1,s1
80001d38:	e41ff0ef          	jal	ra,80001b78 <sub_d.constprop.0>
80001d3c:	00012503          	lw	a0,0(sp)
80001d40:	fff00613          	li	a2,-1
80001d44:	00048593          	mv	a1,s1
80001d48:	e31ff0ef          	jal	ra,80001b78 <sub_d.constprop.0>
80001d4c:	01012503          	lw	a0,16(sp)
80001d50:	00000613          	li	a2,0
80001d54:	00048593          	mv	a1,s1
80001d58:	e21ff0ef          	jal	ra,80001b78 <sub_d.constprop.0>
80001d5c:	00000713          	li	a4,0
80001d60:	02000693          	li	a3,32
80001d64:	00148613          	addi	a2,s1,1
80001d68:	00270593          	addi	a1,a4,2
80001d6c:	00001517          	auipc	a0,0x1
80001d70:	f3450513          	addi	a0,a0,-204 # 80002ca0 <_etext+0x8>
80001d74:	329000ef          	jal	ra,8000289c <printf>
80001d78:	00412783          	lw	a5,4(sp)
80001d7c:	fff78793          	addi	a5,a5,-1
80001d80:	00f12223          	sw	a5,4(sp)
80001d84:	10078c63          	beqz	a5,80001e9c <cmatrix+0x230>
80001d88:	60d000ef          	jal	ra,80002b94 <rand>
80001d8c:	04f00593          	li	a1,79
80001d90:	2b9000ef          	jal	ra,80002848 <__modsi3>
80001d94:	00050493          	mv	s1,a0
80001d98:	00007797          	auipc	a5,0x7
80001d9c:	c6478793          	addi	a5,a5,-924 # 800089fc <t>
80001da0:	00249693          	slli	a3,s1,0x2
80001da4:	00d786b3          	add	a3,a5,a3
80001da8:	0006a703          	lw	a4,0(a3)
80001dac:	01c00793          	li	a5,28
80001db0:	ffc00613          	li	a2,-4
80001db4:	00040513          	mv	a0,s0
80001db8:	00048593          	mv	a1,s1
80001dbc:	01700393          	li	t2,23
80001dc0:	00170313          	addi	t1,a4,1
80001dc4:	ffb70093          	addi	ra,a4,-5
80001dc8:	f4e7c4e3          	blt	a5,a4,80001d10 <cmatrix+0xa4>
80001dcc:	ffd70793          	addi	a5,a4,-3
80001dd0:	00f12e23          	sw	a5,28(sp)
80001dd4:	ffe70793          	addi	a5,a4,-2
80001dd8:	00f12c23          	sw	a5,24(sp)
80001ddc:	fff70793          	addi	a5,a4,-1
80001de0:	0066a023          	sw	t1,0(a3)
80001de4:	ffc70293          	addi	t0,a4,-4
80001de8:	00f12a23          	sw	a5,20(sp)
80001dec:	02000693          	li	a3,32
80001df0:	00148613          	addi	a2,s1,1
80001df4:	00001517          	auipc	a0,0x1
80001df8:	eac50513          	addi	a0,a0,-340 # 80002ca0 <_etext+0x8>
80001dfc:	00028593          	mv	a1,t0
80001e00:	0213e063          	bltu	t2,ra,80001e20 <cmatrix+0x1b4>
80001e04:	02612023          	sw	t1,32(sp)
80001e08:	00512623          	sw	t0,12(sp)
80001e0c:	00e12423          	sw	a4,8(sp)
80001e10:	28d000ef          	jal	ra,8000289c <printf>
80001e14:	00812703          	lw	a4,8(sp)
80001e18:	00c12283          	lw	t0,12(sp)
80001e1c:	02012303          	lw	t1,32(sp)
80001e20:	00028613          	mv	a2,t0
80001e24:	00048593          	mv	a1,s1
80001e28:	00040513          	mv	a0,s0
80001e2c:	00612623          	sw	t1,12(sp)
80001e30:	00e12423          	sw	a4,8(sp)
80001e34:	d45ff0ef          	jal	ra,80001b78 <sub_d.constprop.0>
80001e38:	01c12603          	lw	a2,28(sp)
80001e3c:	00048593          	mv	a1,s1
80001e40:	00040513          	mv	a0,s0
80001e44:	d35ff0ef          	jal	ra,80001b78 <sub_d.constprop.0>
80001e48:	01812603          	lw	a2,24(sp)
80001e4c:	00012503          	lw	a0,0(sp)
80001e50:	00048593          	mv	a1,s1
80001e54:	d25ff0ef          	jal	ra,80001b78 <sub_d.constprop.0>
80001e58:	01412603          	lw	a2,20(sp)
80001e5c:	00012503          	lw	a0,0(sp)
80001e60:	00048593          	mv	a1,s1
80001e64:	d15ff0ef          	jal	ra,80001b78 <sub_d.constprop.0>
80001e68:	00812703          	lw	a4,8(sp)
80001e6c:	01012503          	lw	a0,16(sp)
80001e70:	00048593          	mv	a1,s1
80001e74:	00070613          	mv	a2,a4
80001e78:	d01ff0ef          	jal	ra,80001b78 <sub_d.constprop.0>
80001e7c:	00c12303          	lw	t1,12(sp)
80001e80:	01700693          	li	a3,23
80001e84:	00812703          	lw	a4,8(sp)
80001e88:	ec66fce3          	bgeu	a3,t1,80001d60 <cmatrix+0xf4>
80001e8c:	00412783          	lw	a5,4(sp)
80001e90:	fff78793          	addi	a5,a5,-1
80001e94:	00f12223          	sw	a5,4(sp)
80001e98:	ee0798e3          	bnez	a5,80001d88 <cmatrix+0x11c>
80001e9c:	02412403          	lw	s0,36(sp)
80001ea0:	00600513          	li	a0,6
80001ea4:	00040593          	mv	a1,s0
80001ea8:	0b9000ef          	jal	ra,80002760 <ioe_read>
80001eac:	00042783          	lw	a5,0(s0)
80001eb0:	02812683          	lw	a3,40(sp)
80001eb4:	00442703          	lw	a4,4(s0)
80001eb8:	00d784b3          	add	s1,a5,a3
80001ebc:	00f4b7b3          	sltu	a5,s1,a5
80001ec0:	00e787b3          	add	a5,a5,a4
80001ec4:	00f12223          	sw	a5,4(sp)
80001ec8:	00040593          	mv	a1,s0
80001ecc:	00600513          	li	a0,6
80001ed0:	091000ef          	jal	ra,80002760 <ioe_read>
80001ed4:	00442783          	lw	a5,4(s0)
80001ed8:	00412683          	lw	a3,4(sp)
80001edc:	00042703          	lw	a4,0(s0)
80001ee0:	fed7e4e3          	bltu	a5,a3,80001ec8 <cmatrix+0x25c>
80001ee4:	e0f69ee3          	bne	a3,a5,80001d00 <cmatrix+0x94>
80001ee8:	fe9760e3          	bltu	a4,s1,80001ec8 <cmatrix+0x25c>
80001eec:	e15ff06f          	j	80001d00 <cmatrix+0x94>

80001ef0 <galton>:
80001ef0:	fbc10113          	addi	sp,sp,-68
80001ef4:	03310793          	addi	a5,sp,51
80001ef8:	ff87f793          	andi	a5,a5,-8
80001efc:	00007717          	auipc	a4,0x7
80001f00:	c5c70713          	addi	a4,a4,-932 # 80008b58 <h>
80001f04:	04112023          	sw	ra,64(sp)
80001f08:	02812e23          	sw	s0,60(sp)
80001f0c:	02912c23          	sw	s1,56(sp)
80001f10:	00f12a23          	sw	a5,20(sp)
80001f14:	00001517          	auipc	a0,0x1
80001f18:	d8450513          	addi	a0,a0,-636 # 80002c98 <_etext>
80001f1c:	01e00793          	li	a5,30
80001f20:	00070413          	mv	s0,a4
80001f24:	00f72023          	sw	a5,0(a4)
80001f28:	175000ef          	jal	ra,8000289c <printf>
80001f2c:	00042383          	lw	t2,0(s0)
80001f30:	00439613          	slli	a2,t2,0x4
80001f34:	007604b3          	add	s1,a2,t2
80001f38:	00048513          	mv	a0,s1
80001f3c:	00712023          	sw	t2,0(sp)
80001f40:	4b5000ef          	jal	ra,80002bf4 <malloc>
80001f44:	00007797          	auipc	a5,0x7
80001f48:	c0c78793          	addi	a5,a5,-1012 # 80008b50 <b>
80001f4c:	00048613          	mv	a2,s1
80001f50:	02000593          	li	a1,32
80001f54:	00a7a023          	sw	a0,0(a5)
80001f58:	00050413          	mv	s0,a0
80001f5c:	4d5000ef          	jal	ra,80002c30 <memset>
80001f60:	00002537          	lui	a0,0x2
80001f64:	491000ef          	jal	ra,80002bf4 <malloc>
80001f68:	00001737          	lui	a4,0x1
80001f6c:	00012383          	lw	t2,0(sp)
80001f70:	00e50733          	add	a4,a0,a4
80001f74:	00007697          	auipc	a3,0x7
80001f78:	bec68693          	addi	a3,a3,-1044 # 80008b60 <x>
80001f7c:	00007797          	auipc	a5,0x7
80001f80:	be878793          	addi	a5,a5,-1048 # 80008b64 <y>
80001f84:	00a6a023          	sw	a0,0(a3)
80001f88:	00e7a023          	sw	a4,0(a5)
80001f8c:	02240613          	addi	a2,s0,34
80001f90:	00000513          	li	a0,0
80001f94:	00000593          	li	a1,0
80001f98:	02a00693          	li	a3,42
80001f9c:	ff800313          	li	t1,-8
80001fa0:	00a60713          	addi	a4,a2,10
80001fa4:	ffe57293          	andi	t0,a0,-2
80001fa8:	00860793          	addi	a5,a2,8
80001fac:	00570733          	add	a4,a4,t0
80001fb0:	00d78023          	sb	a3,0(a5)
80001fb4:	00278793          	addi	a5,a5,2
80001fb8:	fef71ce3          	bne	a4,a5,80001fb0 <galton+0xc0>
80001fbc:	fff58593          	addi	a1,a1,-1
80001fc0:	00250513          	addi	a0,a0,2 # 2002 <_entry_offset+0x2002>
80001fc4:	02160613          	addi	a2,a2,33
80001fc8:	fc659ce3          	bne	a1,t1,80001fa0 <galton+0xb0>
80001fcc:	00001497          	auipc	s1,0x1
80001fd0:	cd448493          	addi	s1,s1,-812 # 80002ca0 <_etext+0x8>
80001fd4:	fef00793          	li	a5,-17
80001fd8:	00f12823          	sw	a5,16(sp)
80001fdc:	00000413          	li	s0,0
80001fe0:	08704c63          	bgtz	t2,80002078 <galton+0x188>
80001fe4:	1000006f          	j	800020e4 <galton+0x1f4>
80001fe8:	0007c583          	lbu	a1,0(a5)
80001fec:	fe058593          	addi	a1,a1,-32
80001ff0:	0015b593          	seqz	a1,a1
80001ff4:	01f58593          	addi	a1,a1,31
80001ff8:	0a5000ef          	jal	ra,8000289c <printf>
80001ffc:	00007797          	auipc	a5,0x7
80002000:	b5478793          	addi	a5,a5,-1196 # 80008b50 <b>
80002004:	00012683          	lw	a3,0(sp)
80002008:	0007a783          	lw	a5,0(a5)
8000200c:	00412603          	lw	a2,4(sp)
80002010:	00040593          	mv	a1,s0
80002014:	00d787b3          	add	a5,a5,a3
80002018:	0007c683          	lbu	a3,0(a5)
8000201c:	00048513          	mv	a0,s1
80002020:	07d000ef          	jal	ra,8000289c <printf>
80002024:	00000593          	li	a1,0
80002028:	00001517          	auipc	a0,0x1
8000202c:	c9c50513          	addi	a0,a0,-868 # 80002cc4 <_etext+0x2c>
80002030:	06d000ef          	jal	ra,8000289c <printf>
80002034:	00812603          	lw	a2,8(sp)
80002038:	02000693          	li	a3,32
8000203c:	00040593          	mv	a1,s0
80002040:	00048513          	mv	a0,s1
80002044:	059000ef          	jal	ra,8000289c <printf>
80002048:	00812783          	lw	a5,8(sp)
8000204c:	00c12683          	lw	a3,12(sp)
80002050:	00278713          	addi	a4,a5,2
80002054:	00168693          	addi	a3,a3,1
80002058:	00e12423          	sw	a4,8(sp)
8000205c:	02400793          	li	a5,36
80002060:	00d12623          	sw	a3,12(sp)
80002064:	02f71863          	bne	a4,a5,80002094 <galton+0x1a4>
80002068:	00007797          	auipc	a5,0x7
8000206c:	af078793          	addi	a5,a5,-1296 # 80008b58 <h>
80002070:	0007a783          	lw	a5,0(a5)
80002074:	06f45863          	bge	s0,a5,800020e4 <galton+0x1f4>
80002078:	01012783          	lw	a5,16(sp)
8000207c:	00140413          	addi	s0,s0,1
80002080:	00f12623          	sw	a5,12(sp)
80002084:	01178793          	addi	a5,a5,17
80002088:	00f12823          	sw	a5,16(sp)
8000208c:	00200793          	li	a5,2
80002090:	00f12423          	sw	a5,8(sp)
80002094:	00c12603          	lw	a2,12(sp)
80002098:	00007797          	auipc	a5,0x7
8000209c:	ab878793          	addi	a5,a5,-1352 # 80008b50 <b>
800020a0:	0007a703          	lw	a4,0(a5)
800020a4:	01160693          	addi	a3,a2,17
800020a8:	00d12023          	sw	a3,0(sp)
800020ac:	00c707b3          	add	a5,a4,a2
800020b0:	00d70733          	add	a4,a4,a3
800020b4:	00074683          	lbu	a3,0(a4) # 1000 <_entry_offset+0x1000>
800020b8:	00812703          	lw	a4,8(sp)
800020bc:	02a00313          	li	t1,42
800020c0:	00001517          	auipc	a0,0x1
800020c4:	c0450513          	addi	a0,a0,-1020 # 80002cc4 <_etext+0x2c>
800020c8:	fff70613          	addi	a2,a4,-1
800020cc:	00c12223          	sw	a2,4(sp)
800020d0:	00040593          	mv	a1,s0
800020d4:	f0668ae3          	beq	a3,t1,80001fe8 <galton+0xf8>
800020d8:	00048513          	mv	a0,s1
800020dc:	7c0000ef          	jal	ra,8000289c <printf>
800020e0:	f55ff06f          	j	80002034 <galton+0x144>
800020e4:	01412403          	lw	s0,20(sp)
800020e8:	00600513          	li	a0,6
800020ec:	00040593          	mv	a1,s0
800020f0:	670000ef          	jal	ra,80002760 <ioe_read>
800020f4:	00042783          	lw	a5,0(s0)
800020f8:	00001737          	lui	a4,0x1
800020fc:	00442683          	lw	a3,4(s0)
80002100:	77070713          	addi	a4,a4,1904 # 1770 <_entry_offset+0x1770>
80002104:	00e78733          	add	a4,a5,a4
80002108:	00f737b3          	sltu	a5,a4,a5
8000210c:	00040613          	mv	a2,s0
80002110:	00d78433          	add	s0,a5,a3
80002114:	00812023          	sw	s0,0(sp)
80002118:	00e12223          	sw	a4,4(sp)
8000211c:	00060413          	mv	s0,a2
80002120:	00040593          	mv	a1,s0
80002124:	00600513          	li	a0,6
80002128:	638000ef          	jal	ra,80002760 <ioe_read>
8000212c:	00442783          	lw	a5,4(s0)
80002130:	00012703          	lw	a4,0(sp)
80002134:	00042683          	lw	a3,0(s0)
80002138:	fee7e4e3          	bltu	a5,a4,80002120 <galton+0x230>
8000213c:	00f71663          	bne	a4,a5,80002148 <galton+0x258>
80002140:	00412783          	lw	a5,4(sp)
80002144:	fcf6eee3          	bltu	a3,a5,80002120 <galton+0x230>
80002148:	00007797          	auipc	a5,0x7
8000214c:	a0c78793          	addi	a5,a5,-1524 # 80008b54 <cnt>
80002150:	0007a403          	lw	s0,0(a5)
80002154:	16805463          	blez	s0,800022bc <galton+0x3cc>
80002158:	00000293          	li	t0,0
8000215c:	00007797          	auipc	a5,0x7
80002160:	a0878793          	addi	a5,a5,-1528 # 80008b64 <y>
80002164:	0007a403          	lw	s0,0(a5)
80002168:	00229713          	slli	a4,t0,0x2
8000216c:	00007797          	auipc	a5,0x7
80002170:	9f478793          	addi	a5,a5,-1548 # 80008b60 <x>
80002174:	0007a783          	lw	a5,0(a5)
80002178:	00e40433          	add	s0,s0,a4
8000217c:	00042603          	lw	a2,0(s0)
80002180:	00e787b3          	add	a5,a5,a4
80002184:	0007a683          	lw	a3,0(a5)
80002188:	12064063          	bltz	a2,800022a8 <galton+0x3b8>
8000218c:	00007717          	auipc	a4,0x7
80002190:	9cc70713          	addi	a4,a4,-1588 # 80008b58 <h>
80002194:	00072703          	lw	a4,0(a4)
80002198:	fff70713          	addi	a4,a4,-1
8000219c:	18e60463          	beq	a2,a4,80002324 <galton+0x434>
800021a0:	00160093          	addi	ra,a2,1
800021a4:	00007717          	auipc	a4,0x7
800021a8:	9ac70713          	addi	a4,a4,-1620 # 80008b50 <b>
800021ac:	00072383          	lw	t2,0(a4)
800021b0:	00409713          	slli	a4,ra,0x4
800021b4:	00170733          	add	a4,a4,ra
800021b8:	00e68333          	add	t1,a3,a4
800021bc:	00638333          	add	t1,t2,t1
800021c0:	fef70713          	addi	a4,a4,-17
800021c4:	00034503          	lbu	a0,0(t1)
800021c8:	00e685b3          	add	a1,a3,a4
800021cc:	00b12423          	sw	a1,8(sp)
800021d0:	02000593          	li	a1,32
800021d4:	14b50e63          	beq	a0,a1,80002330 <galton+0x440>
800021d8:	00300593          	li	a1,3
800021dc:	02a00093          	li	ra,42
800021e0:	00b12023          	sw	a1,0(sp)
800021e4:	00151663          	bne	a0,ra,800021f0 <galton+0x300>
800021e8:	00100593          	li	a1,1
800021ec:	00b12023          	sw	a1,0(sp)
800021f0:	00f00513          	li	a0,15
800021f4:	0ed55a63          	bge	a0,a3,800022e8 <galton+0x3f8>
800021f8:	00e685b3          	add	a1,a3,a4
800021fc:	00b385b3          	add	a1,t2,a1
80002200:	00b12223          	sw	a1,4(sp)
80002204:	00412583          	lw	a1,4(sp)
80002208:	fff5c503          	lbu	a0,-1(a1)
8000220c:	02000593          	li	a1,32
80002210:	14b51a63          	bne	a0,a1,80002364 <galton+0x474>
80002214:	fff34583          	lbu	a1,-1(t1)
80002218:	00012423          	sw	zero,8(sp)
8000221c:	02000513          	li	a0,32
80002220:	2ea59463          	bne	a1,a0,80002508 <galton+0x618>
80002224:	02512223          	sw	t0,36(sp)
80002228:	02c12023          	sw	a2,32(sp)
8000222c:	00d12e23          	sw	a3,28(sp)
80002230:	00e12c23          	sw	a4,24(sp)
80002234:	00712823          	sw	t2,16(sp)
80002238:	00f12623          	sw	a5,12(sp)
8000223c:	159000ef          	jal	ra,80002b94 <rand>
80002240:	00012583          	lw	a1,0(sp)
80002244:	604000ef          	jal	ra,80002848 <__modsi3>
80002248:	00c12783          	lw	a5,12(sp)
8000224c:	01012383          	lw	t2,16(sp)
80002250:	01812703          	lw	a4,24(sp)
80002254:	01c12683          	lw	a3,28(sp)
80002258:	02012603          	lw	a2,32(sp)
8000225c:	02412283          	lw	t0,36(sp)
80002260:	28050463          	beqz	a0,800024e8 <galton+0x5f8>
80002264:	00042303          	lw	t1,0(s0)
80002268:	0007a503          	lw	a0,0(a5)
8000226c:	00431593          	slli	a1,t1,0x4
80002270:	006585b3          	add	a1,a1,t1
80002274:	00a585b3          	add	a1,a1,a0
80002278:	00812503          	lw	a0,8(sp)
8000227c:	08050663          	beqz	a0,80002308 <galton+0x418>
80002280:	00168693          	addi	a3,a3,1
80002284:	00e68733          	add	a4,a3,a4
80002288:	00b385b3          	add	a1,t2,a1
8000228c:	02000313          	li	t1,32
80002290:	0005c503          	lbu	a0,0(a1)
80002294:	00658023          	sb	t1,0(a1)
80002298:	00c42023          	sw	a2,0(s0)
8000229c:	00d7a023          	sw	a3,0(a5)
800022a0:	00e383b3          	add	t2,t2,a4
800022a4:	00a38023          	sb	a0,0(t2)
800022a8:	00007797          	auipc	a5,0x7
800022ac:	8ac78793          	addi	a5,a5,-1876 # 80008b54 <cnt>
800022b0:	0007a403          	lw	s0,0(a5)
800022b4:	00128293          	addi	t0,t0,1
800022b8:	ea82c2e3          	blt	t0,s0,8000215c <galton+0x26c>
800022bc:	00007697          	auipc	a3,0x7
800022c0:	8a068693          	addi	a3,a3,-1888 # 80008b5c <step.0>
800022c4:	0006a783          	lw	a5,0(a3)
800022c8:	00200713          	li	a4,2
800022cc:	00178793          	addi	a5,a5,1
800022d0:	00f6a023          	sw	a5,0(a3)
800022d4:	0ae78a63          	beq	a5,a4,80002388 <galton+0x498>
800022d8:	00007797          	auipc	a5,0x7
800022dc:	88078793          	addi	a5,a5,-1920 # 80008b58 <h>
800022e0:	0007a383          	lw	t2,0(a5)
800022e4:	cf1ff06f          	j	80001fd4 <galton+0xe4>
800022e8:	00e680b3          	add	ra,a3,a4
800022ec:	001385b3          	add	a1,t2,ra
800022f0:	0015c503          	lbu	a0,1(a1)
800022f4:	00b12223          	sw	a1,4(sp)
800022f8:	02000593          	li	a1,32
800022fc:	04b50c63          	beq	a0,a1,80002354 <galton+0x464>
80002300:	f00692e3          	bnez	a3,80002204 <galton+0x314>
80002304:	00008593          	mv	a1,ra
80002308:	00b385b3          	add	a1,t2,a1
8000230c:	02000613          	li	a2,32
80002310:	0005c703          	lbu	a4,0(a1)
80002314:	00c58023          	sb	a2,0(a1)
80002318:	00d7a023          	sw	a3,0(a5)
8000231c:	00412783          	lw	a5,4(sp)
80002320:	00e78023          	sb	a4,0(a5)
80002324:	fff00793          	li	a5,-1
80002328:	00f42023          	sw	a5,0(s0)
8000232c:	f7dff06f          	j	800022a8 <galton+0x3b8>
80002330:	00812703          	lw	a4,8(sp)
80002334:	02000613          	li	a2,32
80002338:	00e385b3          	add	a1,t2,a4
8000233c:	0005c703          	lbu	a4,0(a1)
80002340:	00c58023          	sb	a2,0(a1)
80002344:	00142023          	sw	ra,0(s0)
80002348:	00d7a023          	sw	a3,0(a5)
8000234c:	00e30023          	sb	a4,0(t1)
80002350:	f59ff06f          	j	800022a8 <galton+0x3b8>
80002354:	00134503          	lbu	a0,1(t1)
80002358:	02000593          	li	a1,32
8000235c:	0ab50863          	beq	a0,a1,8000240c <galton+0x51c>
80002360:	ea0692e3          	bnez	a3,80002204 <galton+0x314>
80002364:	00812583          	lw	a1,8(sp)
80002368:	02000613          	li	a2,32
8000236c:	00b385b3          	add	a1,t2,a1
80002370:	0005c703          	lbu	a4,0(a1)
80002374:	00c58023          	sb	a2,0(a1)
80002378:	00d7a023          	sw	a3,0(a5)
8000237c:	00412783          	lw	a5,4(sp)
80002380:	00e78023          	sb	a4,0(a5)
80002384:	fa1ff06f          	j	80002324 <galton+0x434>
80002388:	3ff00793          	li	a5,1023
8000238c:	f487c6e3          	blt	a5,s0,800022d8 <galton+0x3e8>
80002390:	00006797          	auipc	a5,0x6
80002394:	7d078793          	addi	a5,a5,2000 # 80008b60 <x>
80002398:	0007a503          	lw	a0,0(a5)
8000239c:	00006797          	auipc	a5,0x6
800023a0:	7c878793          	addi	a5,a5,1992 # 80008b64 <y>
800023a4:	0007a783          	lw	a5,0(a5)
800023a8:	00241693          	slli	a3,s0,0x2
800023ac:	00d50733          	add	a4,a0,a3
800023b0:	00800613          	li	a2,8
800023b4:	00c72023          	sw	a2,0(a4)
800023b8:	00d787b3          	add	a5,a5,a3
800023bc:	0007a023          	sw	zero,0(a5)
800023c0:	00006697          	auipc	a3,0x6
800023c4:	79068693          	addi	a3,a3,1936 # 80008b50 <b>
800023c8:	0006a303          	lw	t1,0(a3)
800023cc:	00072683          	lw	a3,0(a4)
800023d0:	00006617          	auipc	a2,0x6
800023d4:	78062623          	sw	zero,1932(a2) # 80008b5c <step.0>
800023d8:	02000613          	li	a2,32
800023dc:	00d306b3          	add	a3,t1,a3
800023e0:	0006c683          	lbu	a3,0(a3)
800023e4:	0ac68263          	beq	a3,a2,80002488 <galton+0x598>
800023e8:	00612023          	sw	t1,0(sp)
800023ec:	041000ef          	jal	ra,80002c2c <free>
800023f0:	00012303          	lw	t1,0(sp)
800023f4:	03c12403          	lw	s0,60(sp)
800023f8:	04012083          	lw	ra,64(sp)
800023fc:	03812483          	lw	s1,56(sp)
80002400:	00030513          	mv	a0,t1
80002404:	04410113          	addi	sp,sp,68
80002408:	0250006f          	j	80002c2c <free>
8000240c:	02512423          	sw	t0,40(sp)
80002410:	02c12223          	sw	a2,36(sp)
80002414:	02d12023          	sw	a3,32(sp)
80002418:	00612e23          	sw	t1,28(sp)
8000241c:	00e12c23          	sw	a4,24(sp)
80002420:	00712823          	sw	t2,16(sp)
80002424:	00f12623          	sw	a5,12(sp)
80002428:	76c000ef          	jal	ra,80002b94 <rand>
8000242c:	00012583          	lw	a1,0(sp)
80002430:	418000ef          	jal	ra,80002848 <__modsi3>
80002434:	02012683          	lw	a3,32(sp)
80002438:	00153793          	seqz	a5,a0
8000243c:	00f12423          	sw	a5,8(sp)
80002440:	01012383          	lw	t2,16(sp)
80002444:	00c12783          	lw	a5,12(sp)
80002448:	01812703          	lw	a4,24(sp)
8000244c:	01c12303          	lw	t1,28(sp)
80002450:	02412603          	lw	a2,36(sp)
80002454:	02812283          	lw	t0,40(sp)
80002458:	e00686e3          	beqz	a3,80002264 <galton+0x374>
8000245c:	00412583          	lw	a1,4(sp)
80002460:	02000513          	li	a0,32
80002464:	fff5c583          	lbu	a1,-1(a1)
80002468:	dea59ee3          	bne	a1,a0,80002264 <galton+0x374>
8000246c:	00012503          	lw	a0,0(sp)
80002470:	fff34583          	lbu	a1,-1(t1)
80002474:	00150513          	addi	a0,a0,1
80002478:	00a12023          	sw	a0,0(sp)
8000247c:	02000513          	li	a0,32
80002480:	dea592e3          	bne	a1,a0,80002264 <galton+0x374>
80002484:	da1ff06f          	j	80002224 <galton+0x334>
80002488:	00612423          	sw	t1,8(sp)
8000248c:	00f12223          	sw	a5,4(sp)
80002490:	00e12023          	sw	a4,0(sp)
80002494:	700000ef          	jal	ra,80002b94 <rand>
80002498:	00412783          	lw	a5,4(sp)
8000249c:	00012703          	lw	a4,0(sp)
800024a0:	00812303          	lw	t1,8(sp)
800024a4:	0007a683          	lw	a3,0(a5)
800024a8:	00072703          	lw	a4,0(a4)
800024ac:	05000593          	li	a1,80
800024b0:	00469793          	slli	a5,a3,0x4
800024b4:	00d787b3          	add	a5,a5,a3
800024b8:	00f307b3          	add	a5,t1,a5
800024bc:	00e787b3          	add	a5,a5,a4
800024c0:	00f12023          	sw	a5,0(sp)
800024c4:	384000ef          	jal	ra,80002848 <__modsi3>
800024c8:	00012783          	lw	a5,0(sp)
800024cc:	02b50713          	addi	a4,a0,43
800024d0:	00140413          	addi	s0,s0,1
800024d4:	00e78023          	sb	a4,0(a5)
800024d8:	00006797          	auipc	a5,0x6
800024dc:	67c78793          	addi	a5,a5,1660 # 80008b54 <cnt>
800024e0:	0087a023          	sw	s0,0(a5)
800024e4:	df5ff06f          	j	800022d8 <galton+0x3e8>
800024e8:	00042303          	lw	t1,0(s0)
800024ec:	0007a503          	lw	a0,0(a5)
800024f0:	fff68693          	addi	a3,a3,-1
800024f4:	00431593          	slli	a1,t1,0x4
800024f8:	006585b3          	add	a1,a1,t1
800024fc:	00a585b3          	add	a1,a1,a0
80002500:	00e68733          	add	a4,a3,a4
80002504:	d85ff06f          	j	80002288 <galton+0x398>
80002508:	00461593          	slli	a1,a2,0x4
8000250c:	00c585b3          	add	a1,a1,a2
80002510:	00d585b3          	add	a1,a1,a3
80002514:	df5ff06f          	j	80002308 <galton+0x418>

80002518 <main>:
80002518:	fec10113          	addi	sp,sp,-20
8000251c:	00812623          	sw	s0,12(sp)
80002520:	00112823          	sw	ra,16(sp)
80002524:	00050413          	mv	s0,a0
80002528:	1e4000ef          	jal	ra,8000270c <ioe_init>
8000252c:	00044783          	lbu	a5,0(s0)
80002530:	00700713          	li	a4,7
80002534:	fcf78793          	addi	a5,a5,-49
80002538:	0ff7f793          	zext.b	a5,a5
8000253c:	08f76e63          	bltu	a4,a5,800025d8 <main+0xc0>
80002540:	00005717          	auipc	a4,0x5
80002544:	3d870713          	addi	a4,a4,984 # 80007918 <minute+0xfa4>
80002548:	00279793          	slli	a5,a5,0x2
8000254c:	00e787b3          	add	a5,a5,a4
80002550:	0007a783          	lw	a5,0(a5)
80002554:	00e787b3          	add	a5,a5,a4
80002558:	00078067          	jr	a5
8000255c:	ab5fd0ef          	jal	ra,80000010 <donut>
80002560:	00005517          	auipc	a0,0x5
80002564:	3a450513          	addi	a0,a0,932 # 80007904 <minute+0xf90>
80002568:	334000ef          	jal	ra,8000289c <printf>
8000256c:	01d00413          	li	s0,29
80002570:	00010593          	mv	a1,sp
80002574:	00800513          	li	a0,8
80002578:	1e8000ef          	jal	ra,80002760 <ioe_read>
8000257c:	00014783          	lbu	a5,0(sp)
80002580:	00412703          	lw	a4,4(sp)
80002584:	fe0786e3          	beqz	a5,80002570 <main+0x58>
80002588:	fe8714e3          	bne	a4,s0,80002570 <main+0x58>
8000258c:	01012083          	lw	ra,16(sp)
80002590:	00c12403          	lw	s0,12(sp)
80002594:	00000513          	li	a0,0
80002598:	01410113          	addi	sp,sp,20
8000259c:	00008067          	ret
800025a0:	bddfe0ef          	jal	ra,8000117c <bf>
800025a4:	fbdff06f          	j	80002560 <main+0x48>
800025a8:	f7cfe0ef          	jal	ra,80000d24 <ant>
800025ac:	fb5ff06f          	j	80002560 <main+0x48>
800025b0:	941ff0ef          	jal	ra,80001ef0 <galton>
800025b4:	fadff06f          	j	80002560 <main+0x48>
800025b8:	ea8fe0ef          	jal	ra,80000c60 <hanoi>
800025bc:	fa5ff06f          	j	80002560 <main+0x48>
800025c0:	a60ff0ef          	jal	ra,80001820 <game_of_life>
800025c4:	f9dff06f          	j	80002560 <main+0x48>
800025c8:	b8cff0ef          	jal	ra,80001954 <aclock>
800025cc:	f95ff06f          	j	80002560 <main+0x48>
800025d0:	e9cff0ef          	jal	ra,80001c6c <cmatrix>
800025d4:	f8dff06f          	j	80002560 <main+0x48>
800025d8:	00005517          	auipc	a0,0x5
800025dc:	29c50513          	addi	a0,a0,668 # 80007874 <minute+0xf00>
800025e0:	2bc000ef          	jal	ra,8000289c <printf>
800025e4:	00005517          	auipc	a0,0x5
800025e8:	2ac50513          	addi	a0,a0,684 # 80007890 <minute+0xf1c>
800025ec:	2b0000ef          	jal	ra,8000289c <printf>
800025f0:	00005517          	auipc	a0,0x5
800025f4:	2ac50513          	addi	a0,a0,684 # 8000789c <minute+0xf28>
800025f8:	2a4000ef          	jal	ra,8000289c <printf>
800025fc:	00005517          	auipc	a0,0x5
80002600:	2b050513          	addi	a0,a0,688 # 800078ac <minute+0xf38>
80002604:	298000ef          	jal	ra,8000289c <printf>
80002608:	00005517          	auipc	a0,0x5
8000260c:	2b050513          	addi	a0,a0,688 # 800078b8 <minute+0xf44>
80002610:	28c000ef          	jal	ra,8000289c <printf>
80002614:	00005517          	auipc	a0,0x5
80002618:	2b850513          	addi	a0,a0,696 # 800078cc <minute+0xf58>
8000261c:	280000ef          	jal	ra,8000289c <printf>
80002620:	00005517          	auipc	a0,0x5
80002624:	2bc50513          	addi	a0,a0,700 # 800078dc <minute+0xf68>
80002628:	274000ef          	jal	ra,8000289c <printf>
8000262c:	00005517          	auipc	a0,0x5
80002630:	2c050513          	addi	a0,a0,704 # 800078ec <minute+0xf78>
80002634:	268000ef          	jal	ra,8000289c <printf>
80002638:	00005517          	auipc	a0,0x5
8000263c:	2c050513          	addi	a0,a0,704 # 800078f8 <minute+0xf84>
80002640:	25c000ef          	jal	ra,8000289c <printf>
80002644:	f1dff06f          	j	80002560 <main+0x48>

80002648 <putch>:
80002648:	a00007b7          	lui	a5,0xa0000
8000264c:	3ea78c23          	sb	a0,1016(a5) # a00003f8 <_end+0x1ffef3f8>
80002650:	00008067          	ret

80002654 <halt>:
80002654:	00050513          	mv	a0,a0
80002658:	00100073          	ebreak
8000265c:	0000006f          	j	8000265c <halt+0x8>

80002660 <_trm_init>:
80002660:	ff410113          	addi	sp,sp,-12
80002664:	00005517          	auipc	a0,0x5
80002668:	34c50513          	addi	a0,a0,844 # 800079b0 <mainargs>
8000266c:	00112423          	sw	ra,8(sp)
80002670:	ea9ff0ef          	jal	ra,80002518 <main>
80002674:	00050513          	mv	a0,a0
80002678:	00100073          	ebreak
8000267c:	0000006f          	j	8000267c <_trm_init+0x1c>

80002680 <__am_timer_config>:
80002680:	00100793          	li	a5,1
80002684:	00f50023          	sb	a5,0(a0)
80002688:	00f500a3          	sb	a5,1(a0)
8000268c:	00008067          	ret

80002690 <__am_input_config>:
80002690:	00100793          	li	a5,1
80002694:	00f50023          	sb	a5,0(a0)
80002698:	00008067          	ret

8000269c <__am_uart_config>:
8000269c:	00050023          	sb	zero,0(a0)
800026a0:	00008067          	ret

800026a4 <fail>:
800026a4:	ff410113          	addi	sp,sp,-12
800026a8:	00812223          	sw	s0,4(sp)
800026ac:	00112423          	sw	ra,8(sp)
800026b0:	00005417          	auipc	s0,0x5
800026b4:	28840413          	addi	s0,s0,648 # 80007938 <minute+0xfc4>
800026b8:	04100513          	li	a0,65
800026bc:	00140413          	addi	s0,s0,1
800026c0:	f89ff0ef          	jal	ra,80002648 <putch>
800026c4:	00044503          	lbu	a0,0(s0)
800026c8:	fe051ae3          	bnez	a0,800026bc <fail+0x18>
800026cc:	00005417          	auipc	s0,0x5
800026d0:	27840413          	addi	s0,s0,632 # 80007944 <minute+0xfd0>
800026d4:	06100513          	li	a0,97
800026d8:	00140413          	addi	s0,s0,1
800026dc:	f6dff0ef          	jal	ra,80002648 <putch>
800026e0:	00044503          	lbu	a0,0(s0)
800026e4:	fe051ae3          	bnez	a0,800026d8 <fail+0x34>
800026e8:	00005417          	auipc	s0,0x5
800026ec:	27840413          	addi	s0,s0,632 # 80007960 <minute+0xfec>
800026f0:	02000513          	li	a0,32
800026f4:	00140413          	addi	s0,s0,1
800026f8:	f51ff0ef          	jal	ra,80002648 <putch>
800026fc:	00044503          	lbu	a0,0(s0)
80002700:	fe051ae3          	bnez	a0,800026f4 <fail+0x50>
80002704:	00100513          	li	a0,1
80002708:	f4dff0ef          	jal	ra,80002654 <halt>

8000270c <ioe_init>:
8000270c:	ff410113          	addi	sp,sp,-12
80002710:	00112423          	sw	ra,8(sp)
80002714:	00005797          	auipc	a5,0x5
80002718:	2b878793          	addi	a5,a5,696 # 800079cc <lut>
8000271c:	00005697          	auipc	a3,0x5
80002720:	4b068693          	addi	a3,a3,1200 # 80007bcc <next>
80002724:	00000617          	auipc	a2,0x0
80002728:	f8060613          	addi	a2,a2,-128 # 800026a4 <fail>
8000272c:	00c0006f          	j	80002738 <ioe_init+0x2c>
80002730:	00478793          	addi	a5,a5,4
80002734:	00d78c63          	beq	a5,a3,8000274c <ioe_init+0x40>
80002738:	0007a703          	lw	a4,0(a5)
8000273c:	fe071ae3          	bnez	a4,80002730 <ioe_init+0x24>
80002740:	00c7a023          	sw	a2,0(a5)
80002744:	00478793          	addi	a5,a5,4
80002748:	fed798e3          	bne	a5,a3,80002738 <ioe_init+0x2c>
8000274c:	030000ef          	jal	ra,8000277c <__am_timer_init>
80002750:	00812083          	lw	ra,8(sp)
80002754:	00100513          	li	a0,1
80002758:	00c10113          	addi	sp,sp,12
8000275c:	00008067          	ret

80002760 <ioe_read>:
80002760:	00251513          	slli	a0,a0,0x2
80002764:	00005797          	auipc	a5,0x5
80002768:	26878793          	addi	a5,a5,616 # 800079cc <lut>
8000276c:	00a787b3          	add	a5,a5,a0
80002770:	0007a783          	lw	a5,0(a5)
80002774:	00058513          	mv	a0,a1
80002778:	00078067          	jr	a5

8000277c <__am_timer_init>:
8000277c:	00008067          	ret

80002780 <__am_timer_uptime>:
80002780:	a00007b7          	lui	a5,0xa0000
80002784:	0487a703          	lw	a4,72(a5) # a0000048 <_end+0x1ffef048>
80002788:	04c7a783          	lw	a5,76(a5)
8000278c:	00e52023          	sw	a4,0(a0)
80002790:	00f52223          	sw	a5,4(a0)
80002794:	00008067          	ret

80002798 <__am_timer_rtc>:
80002798:	76c00793          	li	a5,1900
8000279c:	00052a23          	sw	zero,20(a0)
800027a0:	00052823          	sw	zero,16(a0)
800027a4:	00052623          	sw	zero,12(a0)
800027a8:	00052423          	sw	zero,8(a0)
800027ac:	00052223          	sw	zero,4(a0)
800027b0:	00f52023          	sw	a5,0(a0)
800027b4:	00008067          	ret

800027b8 <__am_input_keybrd>:
800027b8:	00050023          	sb	zero,0(a0)
800027bc:	00052223          	sw	zero,4(a0)
800027c0:	00008067          	ret

800027c4 <__divsi3>:
800027c4:	06054063          	bltz	a0,80002824 <__umodsi3+0x10>
800027c8:	0605c663          	bltz	a1,80002834 <__umodsi3+0x20>

800027cc <__hidden___udivsi3>:
800027cc:	00058613          	mv	a2,a1
800027d0:	00050593          	mv	a1,a0
800027d4:	fff00513          	li	a0,-1
800027d8:	02060c63          	beqz	a2,80002810 <__hidden___udivsi3+0x44>
800027dc:	00100693          	li	a3,1
800027e0:	00b67a63          	bgeu	a2,a1,800027f4 <__hidden___udivsi3+0x28>
800027e4:	00c05863          	blez	a2,800027f4 <__hidden___udivsi3+0x28>
800027e8:	00161613          	slli	a2,a2,0x1
800027ec:	00169693          	slli	a3,a3,0x1
800027f0:	feb66ae3          	bltu	a2,a1,800027e4 <__hidden___udivsi3+0x18>
800027f4:	00000513          	li	a0,0
800027f8:	00c5e663          	bltu	a1,a2,80002804 <__hidden___udivsi3+0x38>
800027fc:	40c585b3          	sub	a1,a1,a2
80002800:	00d56533          	or	a0,a0,a3
80002804:	0016d693          	srli	a3,a3,0x1
80002808:	00165613          	srli	a2,a2,0x1
8000280c:	fe0696e3          	bnez	a3,800027f8 <__hidden___udivsi3+0x2c>
80002810:	00008067          	ret

80002814 <__umodsi3>:
80002814:	00008293          	mv	t0,ra
80002818:	fb5ff0ef          	jal	ra,800027cc <__hidden___udivsi3>
8000281c:	00058513          	mv	a0,a1
80002820:	00028067          	jr	t0
80002824:	40a00533          	neg	a0,a0
80002828:	00b04863          	bgtz	a1,80002838 <__umodsi3+0x24>
8000282c:	40b005b3          	neg	a1,a1
80002830:	f9dff06f          	j	800027cc <__hidden___udivsi3>
80002834:	40b005b3          	neg	a1,a1
80002838:	00008293          	mv	t0,ra
8000283c:	f91ff0ef          	jal	ra,800027cc <__hidden___udivsi3>
80002840:	40a00533          	neg	a0,a0
80002844:	00028067          	jr	t0

80002848 <__modsi3>:
80002848:	00008293          	mv	t0,ra
8000284c:	0005ca63          	bltz	a1,80002860 <__modsi3+0x18>
80002850:	00054c63          	bltz	a0,80002868 <__modsi3+0x20>
80002854:	f79ff0ef          	jal	ra,800027cc <__hidden___udivsi3>
80002858:	00058513          	mv	a0,a1
8000285c:	00028067          	jr	t0
80002860:	40b005b3          	neg	a1,a1
80002864:	fe0558e3          	bgez	a0,80002854 <__modsi3+0xc>
80002868:	40a00533          	neg	a0,a0
8000286c:	f61ff0ef          	jal	ra,800027cc <__hidden___udivsi3>
80002870:	40b00533          	neg	a0,a1
80002874:	00028067          	jr	t0

80002878 <__mulsi3>:
80002878:	00050613          	mv	a2,a0
8000287c:	00000513          	li	a0,0
80002880:	0015f693          	andi	a3,a1,1
80002884:	00068463          	beqz	a3,8000288c <__mulsi3+0x14>
80002888:	00c50533          	add	a0,a0,a2
8000288c:	0015d593          	srli	a1,a1,0x1
80002890:	00161613          	slli	a2,a2,0x1
80002894:	fe0596e3          	bnez	a1,80002880 <__mulsi3+0x8>
80002898:	00008067          	ret

8000289c <printf>:
8000289c:	be010113          	addi	sp,sp,-1056
800028a0:	40f12e23          	sw	a5,1052(sp)
800028a4:	40112423          	sw	ra,1032(sp)
800028a8:	40812223          	sw	s0,1028(sp)
800028ac:	40912023          	sw	s1,1024(sp)
800028b0:	40b12623          	sw	a1,1036(sp)
800028b4:	40c12823          	sw	a2,1040(sp)
800028b8:	40d12a23          	sw	a3,1044(sp)
800028bc:	40e12c23          	sw	a4,1048(sp)
800028c0:	00050313          	mv	t1,a0
800028c4:	00054503          	lbu	a0,0(a0)
800028c8:	40c10793          	addi	a5,sp,1036
800028cc:	00f12a23          	sw	a5,20(sp)
800028d0:	00012023          	sw	zero,0(sp)
800028d4:	02051863          	bnez	a0,80002904 <printf+0x68>
800028d8:	0c80006f          	j	800029a0 <printf+0x104>
800028dc:	00612223          	sw	t1,4(sp)
800028e0:	d69ff0ef          	jal	ra,80002648 <putch>
800028e4:	00012783          	lw	a5,0(sp)
800028e8:	00412303          	lw	t1,4(sp)
800028ec:	00178793          	addi	a5,a5,1
800028f0:	00f12023          	sw	a5,0(sp)
800028f4:	00030413          	mv	s0,t1
800028f8:	00144503          	lbu	a0,1(s0)
800028fc:	00140313          	addi	t1,s0,1
80002900:	0a050063          	beqz	a0,800029a0 <printf+0x104>
80002904:	02500793          	li	a5,37
80002908:	fcf51ae3          	bne	a0,a5,800028dc <printf+0x40>
8000290c:	00134583          	lbu	a1,1(t1)
80002910:	03000793          	li	a5,48
80002914:	00130413          	addi	s0,t1,1
80002918:	02000493          	li	s1,32
8000291c:	00f59863          	bne	a1,a5,8000292c <printf+0x90>
80002920:	00234583          	lbu	a1,2(t1)
80002924:	00230413          	addi	s0,t1,2
80002928:	03000493          	li	s1,48
8000292c:	fd058693          	addi	a3,a1,-48
80002930:	0ff6f313          	zext.b	t1,a3
80002934:	00900793          	li	a5,9
80002938:	00000613          	li	a2,0
8000293c:	00900513          	li	a0,9
80002940:	0267e463          	bltu	a5,t1,80002968 <printf+0xcc>
80002944:	00144583          	lbu	a1,1(s0)
80002948:	00261793          	slli	a5,a2,0x2
8000294c:	00c787b3          	add	a5,a5,a2
80002950:	00179793          	slli	a5,a5,0x1
80002954:	00f68633          	add	a2,a3,a5
80002958:	fd058693          	addi	a3,a1,-48
8000295c:	0ff6f793          	zext.b	a5,a3
80002960:	00140413          	addi	s0,s0,1
80002964:	fef570e3          	bgeu	a0,a5,80002944 <printf+0xa8>
80002968:	06400793          	li	a5,100
8000296c:	08f58a63          	beq	a1,a5,80002a00 <printf+0x164>
80002970:	07300793          	li	a5,115
80002974:	04f58263          	beq	a1,a5,800029b8 <printf+0x11c>
80002978:	02500513          	li	a0,37
8000297c:	ccdff0ef          	jal	ra,80002648 <putch>
80002980:	00012783          	lw	a5,0(sp)
80002984:	00044503          	lbu	a0,0(s0)
80002988:	00278793          	addi	a5,a5,2
8000298c:	00f12023          	sw	a5,0(sp)
80002990:	cb9ff0ef          	jal	ra,80002648 <putch>
80002994:	00144503          	lbu	a0,1(s0)
80002998:	00140313          	addi	t1,s0,1
8000299c:	f60514e3          	bnez	a0,80002904 <printf+0x68>
800029a0:	40812083          	lw	ra,1032(sp)
800029a4:	40412403          	lw	s0,1028(sp)
800029a8:	00012503          	lw	a0,0(sp)
800029ac:	40012483          	lw	s1,1024(sp)
800029b0:	42010113          	addi	sp,sp,1056
800029b4:	00008067          	ret
800029b8:	01412783          	lw	a5,20(sp)
800029bc:	0007a703          	lw	a4,0(a5)
800029c0:	00478793          	addi	a5,a5,4
800029c4:	00f12a23          	sw	a5,20(sp)
800029c8:	00074503          	lbu	a0,0(a4)
800029cc:	00e12223          	sw	a4,4(sp)
800029d0:	f20504e3          	beqz	a0,800028f8 <printf+0x5c>
800029d4:	00012483          	lw	s1,0(sp)
800029d8:	c71ff0ef          	jal	ra,80002648 <putch>
800029dc:	00012783          	lw	a5,0(sp)
800029e0:	00412703          	lw	a4,4(sp)
800029e4:	00148493          	addi	s1,s1,1
800029e8:	40f487b3          	sub	a5,s1,a5
800029ec:	00f707b3          	add	a5,a4,a5
800029f0:	0007c503          	lbu	a0,0(a5)
800029f4:	fe0512e3          	bnez	a0,800029d8 <printf+0x13c>
800029f8:	00912023          	sw	s1,0(sp)
800029fc:	efdff06f          	j	800028f8 <printf+0x5c>
80002a00:	01412783          	lw	a5,20(sp)
80002a04:	00012703          	lw	a4,0(sp)
80002a08:	00478793          	addi	a5,a5,4
80002a0c:	00170593          	addi	a1,a4,1
80002a10:	ffc7a703          	lw	a4,-4(a5)
80002a14:	00f12a23          	sw	a5,20(sp)
80002a18:	00e12823          	sw	a4,16(sp)
80002a1c:	0c074863          	bltz	a4,80002aec <printf+0x250>
80002a20:	01012783          	lw	a5,16(sp)
80002a24:	16079463          	bnez	a5,80002b8c <printf+0x2f0>
80002a28:	03000793          	li	a5,48
80002a2c:	00f10c23          	sb	a5,24(sp)
80002a30:	00b12223          	sw	a1,4(sp)
80002a34:	00100793          	li	a5,1
80002a38:	0ac7d063          	bge	a5,a2,80002ad8 <printf+0x23c>
80002a3c:	00100793          	li	a5,1
80002a40:	00f12623          	sw	a5,12(sp)
80002a44:	00c12783          	lw	a5,12(sp)
80002a48:	40f607b3          	sub	a5,a2,a5
80002a4c:	00078713          	mv	a4,a5
80002a50:	00f12423          	sw	a5,8(sp)
80002a54:	00000793          	li	a5,0
80002a58:	10e05e63          	blez	a4,80002b74 <printf+0x2d8>
80002a5c:	00178793          	addi	a5,a5,1
80002a60:	00048513          	mv	a0,s1
80002a64:	00f12223          	sw	a5,4(sp)
80002a68:	be1ff0ef          	jal	ra,80002648 <putch>
80002a6c:	00812703          	lw	a4,8(sp)
80002a70:	00412783          	lw	a5,4(sp)
80002a74:	fef714e3          	bne	a4,a5,80002a5c <printf+0x1c0>
80002a78:	01012783          	lw	a5,16(sp)
80002a7c:	01410713          	addi	a4,sp,20
80002a80:	00012683          	lw	a3,0(sp)
80002a84:	3ec78793          	addi	a5,a5,1004
80002a88:	00e787b3          	add	a5,a5,a4
80002a8c:	00812703          	lw	a4,8(sp)
80002a90:	c187c783          	lbu	a5,-1000(a5)
80002a94:	00d70733          	add	a4,a4,a3
80002a98:	00e12023          	sw	a4,0(sp)
80002a9c:	00c12683          	lw	a3,12(sp)
80002aa0:	01810713          	addi	a4,sp,24
80002aa4:	00d704b3          	add	s1,a4,a3
80002aa8:	0080006f          	j	80002ab0 <printf+0x214>
80002aac:	fff4c783          	lbu	a5,-1(s1)
80002ab0:	00078513          	mv	a0,a5
80002ab4:	b95ff0ef          	jal	ra,80002648 <putch>
80002ab8:	fff48493          	addi	s1,s1,-1
80002abc:	01810793          	addi	a5,sp,24
80002ac0:	fe9796e3          	bne	a5,s1,80002aac <printf+0x210>
80002ac4:	00012703          	lw	a4,0(sp)
80002ac8:	00c12783          	lw	a5,12(sp)
80002acc:	00e787b3          	add	a5,a5,a4
80002ad0:	00f12023          	sw	a5,0(sp)
80002ad4:	e25ff06f          	j	800028f8 <printf+0x5c>
80002ad8:	03000513          	li	a0,48
80002adc:	b6dff0ef          	jal	ra,80002648 <putch>
80002ae0:	00412583          	lw	a1,4(sp)
80002ae4:	00b12023          	sw	a1,0(sp)
80002ae8:	e11ff06f          	j	800028f8 <printf+0x5c>
80002aec:	02d00513          	li	a0,45
80002af0:	00c12223          	sw	a2,4(sp)
80002af4:	00b12023          	sw	a1,0(sp)
80002af8:	b51ff0ef          	jal	ra,80002648 <putch>
80002afc:	01012783          	lw	a5,16(sp)
80002b00:	00412603          	lw	a2,4(sp)
80002b04:	40f006b3          	neg	a3,a5
80002b08:	00012623          	sw	zero,12(sp)
80002b0c:	00a00593          	li	a1,10
80002b10:	00068513          	mv	a0,a3
80002b14:	00c12423          	sw	a2,8(sp)
80002b18:	00d12223          	sw	a3,4(sp)
80002b1c:	d2dff0ef          	jal	ra,80002848 <__modsi3>
80002b20:	00c12703          	lw	a4,12(sp)
80002b24:	00412683          	lw	a3,4(sp)
80002b28:	03050793          	addi	a5,a0,48
80002b2c:	00e12823          	sw	a4,16(sp)
80002b30:	00068513          	mv	a0,a3
80002b34:	00170713          	addi	a4,a4,1
80002b38:	01810693          	addi	a3,sp,24
80002b3c:	0ff7f793          	zext.b	a5,a5
80002b40:	00e686b3          	add	a3,a3,a4
80002b44:	fef68fa3          	sb	a5,-1(a3)
80002b48:	00a00593          	li	a1,10
80002b4c:	00f12223          	sw	a5,4(sp)
80002b50:	00e12623          	sw	a4,12(sp)
80002b54:	c71ff0ef          	jal	ra,800027c4 <__divsi3>
80002b58:	00412783          	lw	a5,4(sp)
80002b5c:	00812603          	lw	a2,8(sp)
80002b60:	00050693          	mv	a3,a0
80002b64:	fa0514e3          	bnez	a0,80002b0c <printf+0x270>
80002b68:	00c12703          	lw	a4,12(sp)
80002b6c:	ecc74ce3          	blt	a4,a2,80002a44 <printf+0x1a8>
80002b70:	f2dff06f          	j	80002a9c <printf+0x200>
80002b74:	01012783          	lw	a5,16(sp)
80002b78:	01410713          	addi	a4,sp,20
80002b7c:	3ec78793          	addi	a5,a5,1004
80002b80:	00e787b3          	add	a5,a5,a4
80002b84:	c187c783          	lbu	a5,-1000(a5)
80002b88:	f15ff06f          	j	80002a9c <printf+0x200>
80002b8c:	00078693          	mv	a3,a5
80002b90:	f79ff06f          	j	80002b08 <printf+0x26c>

80002b94 <rand>:
80002b94:	00005697          	auipc	a3,0x5
80002b98:	03868693          	addi	a3,a3,56 # 80007bcc <next>
80002b9c:	0006a603          	lw	a2,0(a3)
80002ba0:	00861713          	slli	a4,a2,0x8
80002ba4:	40c70733          	sub	a4,a4,a2
80002ba8:	00371713          	slli	a4,a4,0x3
80002bac:	00c70733          	add	a4,a4,a2
80002bb0:	00771713          	slli	a4,a4,0x7
80002bb4:	00c70733          	add	a4,a4,a2
80002bb8:	00371713          	slli	a4,a4,0x3
80002bbc:	40c70733          	sub	a4,a4,a2
80002bc0:	00571793          	slli	a5,a4,0x5
80002bc4:	00f707b3          	add	a5,a4,a5
80002bc8:	00279793          	slli	a5,a5,0x2
80002bcc:	40c787b3          	sub	a5,a5,a2
80002bd0:	00279793          	slli	a5,a5,0x2
80002bd4:	00003737          	lui	a4,0x3
80002bd8:	00c787b3          	add	a5,a5,a2
80002bdc:	03970713          	addi	a4,a4,57 # 3039 <_entry_offset+0x3039>
80002be0:	00e787b3          	add	a5,a5,a4
80002be4:	00179513          	slli	a0,a5,0x1
80002be8:	00f6a023          	sw	a5,0(a3)
80002bec:	01155513          	srli	a0,a0,0x11
80002bf0:	00008067          	ret

80002bf4 <malloc>:
80002bf4:	00006697          	auipc	a3,0x6
80002bf8:	f7468693          	addi	a3,a3,-140 # 80008b68 <addr.0>
80002bfc:	0006a703          	lw	a4,0(a3)
80002c00:	00050793          	mv	a5,a0
80002c04:	00070513          	mv	a0,a4
80002c08:	00071863          	bnez	a4,80002c18 <malloc+0x24>
80002c0c:	00005517          	auipc	a0,0x5
80002c10:	db852503          	lw	a0,-584(a0) # 800079c4 <heap>
80002c14:	00050713          	mv	a4,a0
80002c18:	00778793          	addi	a5,a5,7
80002c1c:	ff87f793          	andi	a5,a5,-8
80002c20:	00e787b3          	add	a5,a5,a4
80002c24:	00f6a023          	sw	a5,0(a3)
80002c28:	00008067          	ret

80002c2c <free>:
80002c2c:	00008067          	ret

80002c30 <memset>:
80002c30:	0ff5f593          	zext.b	a1,a1
80002c34:	00050793          	mv	a5,a0
80002c38:	00a60733          	add	a4,a2,a0
80002c3c:	00060863          	beqz	a2,80002c4c <memset+0x1c>
80002c40:	00b78023          	sb	a1,0(a5)
80002c44:	00178793          	addi	a5,a5,1
80002c48:	fee79ce3          	bne	a5,a4,80002c40 <memset+0x10>
80002c4c:	00008067          	ret

80002c50 <memmove>:
80002c50:	04b50263          	beq	a0,a1,80002c94 <memmove+0x44>
80002c54:	04060063          	beqz	a2,80002c94 <memmove+0x44>
80002c58:	02b57263          	bgeu	a0,a1,80002c7c <memmove+0x2c>
80002c5c:	00050793          	mv	a5,a0
80002c60:	00c58633          	add	a2,a1,a2
80002c64:	0005c703          	lbu	a4,0(a1)
80002c68:	00158593          	addi	a1,a1,1
80002c6c:	00178793          	addi	a5,a5,1
80002c70:	fee78fa3          	sb	a4,-1(a5)
80002c74:	fec598e3          	bne	a1,a2,80002c64 <memmove+0x14>
80002c78:	00008067          	ret
80002c7c:	fff60613          	addi	a2,a2,-1
80002c80:	00c587b3          	add	a5,a1,a2
80002c84:	0007c703          	lbu	a4,0(a5)
80002c88:	00c507b3          	add	a5,a0,a2
80002c8c:	00e78023          	sb	a4,0(a5)
80002c90:	fe0616e3          	bnez	a2,80002c7c <memmove+0x2c>
80002c94:	00008067          	ret
