
/home/xietianle/ysyx-workbench/am-kernels/kernels/snake/build/snake-riscv32-nemu.elf:     file format elf32-littleriscv


Disassembly of section .text:

80000000 <_start>:
80000000:	00000413          	li	s0,0
80000004:	0000a117          	auipc	sp,0xa
80000008:	ffc10113          	addi	sp,sp,-4 # 8000a000 <_end>
8000000c:	235000ef          	jal	ra,80000a40 <_trm_init>

80000010 <draw_tile>:
80000010:	fd010113          	addi	sp,sp,-48
80000014:	00001817          	auipc	a6,0x1
80000018:	09080813          	addi	a6,a6,144 # 800010a4 <buf.0>
8000001c:	02112623          	sw	ra,44(sp)
80000020:	00080793          	mv	a5,a6
80000024:	00001717          	auipc	a4,0x1
80000028:	18070713          	addi	a4,a4,384 # 800011a4 <buf.0+0x100>
8000002c:	00c7a023          	sw	a2,0(a5)
80000030:	00478793          	addi	a5,a5,4
80000034:	fee79ce3          	bne	a5,a4,8000002c <draw_tile+0x1c>
80000038:	00800693          	li	a3,8
8000003c:	00359713          	slli	a4,a1,0x3
80000040:	00351793          	slli	a5,a0,0x3
80000044:	00810593          	addi	a1,sp,8
80000048:	00b00513          	li	a0,11
8000004c:	00e12423          	sw	a4,8(sp)
80000050:	00f12623          	sw	a5,12(sp)
80000054:	01012823          	sw	a6,16(sp)
80000058:	00d12a23          	sw	a3,20(sp)
8000005c:	00d12c23          	sw	a3,24(sp)
80000060:	00010e23          	sb	zero,28(sp)
80000064:	76c000ef          	jal	ra,800007d0 <ioe_write>
80000068:	02c12083          	lw	ra,44(sp)
8000006c:	03010113          	addi	sp,sp,48
80000070:	00008067          	ret

80000074 <main>:
80000074:	c5010113          	addi	sp,sp,-944
80000078:	32c00613          	li	a2,812
8000007c:	00000593          	li	a1,0
80000080:	04410513          	addi	a0,sp,68
80000084:	3a112623          	sw	ra,940(sp)
80000088:	3a812423          	sw	s0,936(sp)
8000008c:	3a912223          	sw	s1,932(sp)
80000090:	3b212023          	sw	s2,928(sp)
80000094:	39312e23          	sw	s3,924(sp)
80000098:	39412c23          	sw	s4,920(sp)
8000009c:	39712623          	sw	s7,908(sp)
800000a0:	39812423          	sw	s8,904(sp)
800000a4:	39512a23          	sw	s5,916(sp)
800000a8:	39612823          	sw	s6,912(sp)
800000ac:	39912223          	sw	s9,900(sp)
800000b0:	39a12023          	sw	s10,896(sp)
800000b4:	37b12e23          	sw	s11,892(sp)
800000b8:	529000ef          	jal	ra,80000de0 <memset>
800000bc:	69c000ef          	jal	ra,80000758 <ioe_init>
800000c0:	02810593          	addi	a1,sp,40
800000c4:	00900513          	li	a0,9
800000c8:	6ec000ef          	jal	ra,800007b4 <ioe_read>
800000cc:	02810593          	addi	a1,sp,40
800000d0:	00900513          	li	a0,9
800000d4:	03012403          	lw	s0,48(sp)
800000d8:	6dc000ef          	jal	ra,800007b4 <ioe_read>
800000dc:	02c12583          	lw	a1,44(sp)
800000e0:	41f45793          	srai	a5,s0,0x1f
800000e4:	0077f693          	andi	a3,a5,7
800000e8:	41f5d713          	srai	a4,a1,0x1f
800000ec:	00777613          	andi	a2,a4,7
800000f0:	00b60633          	add	a2,a2,a1
800000f4:	008686b3          	add	a3,a3,s0
800000f8:	40365613          	srai	a2,a2,0x3
800000fc:	4036d693          	srai	a3,a3,0x3
80000100:	ffe60613          	addi	a2,a2,-2
80000104:	ffe68513          	addi	a0,a3,-2
80000108:	00f77c13          	andi	s8,a4,15
8000010c:	00f7fb93          	andi	s7,a5,15
80000110:	01f55713          	srli	a4,a0,0x1f
80000114:	01f65913          	srli	s2,a2,0x1f
80000118:	00a707b3          	add	a5,a4,a0
8000011c:	00c90933          	add	s2,s2,a2
80000120:	00bc0c33          	add	s8,s8,a1
80000124:	008b8bb3          	add	s7,s7,s0
80000128:	4017d793          	srai	a5,a5,0x1
8000012c:	40195913          	srai	s2,s2,0x1
80000130:	404c5c13          	srai	s8,s8,0x4
80000134:	404bdb93          	srai	s7,s7,0x4
80000138:	40fb8bb3          	sub	s7,s7,a5
8000013c:	412c0c33          	sub	s8,s8,s2
80000140:	fffb8713          	addi	a4,s7,-1
80000144:	fffc0c13          	addi	s8,s8,-1
80000148:	018609b3          	add	s3,a2,s8
8000014c:	00e504b3          	add	s1,a0,a4
80000150:	00178a13          	addi	s4,a5,1
80000154:	00e12023          	sw	a4,0(sp)
80000158:	04f12423          	sw	a5,72(sp)
8000015c:	00148713          	addi	a4,s1,1
80000160:	00198793          	addi	a5,s3,1
80000164:	00c12a23          	sw	a2,20(sp)
80000168:	00a12c23          	sw	a0,24(sp)
8000016c:	05212223          	sw	s2,68(sp)
80000170:	05212623          	sw	s2,76(sp)
80000174:	05412823          	sw	s4,80(sp)
80000178:	00f12623          	sw	a5,12(sp)
8000017c:	00e12823          	sw	a4,16(sp)
80000180:	00001b97          	auipc	s7,0x1
80000184:	024b8b93          	addi	s7,s7,36 # 800011a4 <buf.0+0x100>
80000188:	0d87c063          	blt	a5,s8,80000248 <main+0x1d4>
8000018c:	00012783          	lw	a5,0(sp)
80000190:	00010db7          	lui	s11,0x10
80000194:	000c0413          	mv	s0,s8
80000198:	00379793          	slli	a5,a5,0x3
8000019c:	00f12423          	sw	a5,8(sp)
800001a0:	00148793          	addi	a5,s1,1
800001a4:	00379793          	slli	a5,a5,0x3
800001a8:	00f12223          	sw	a5,4(sp)
800001ac:	00001b97          	auipc	s7,0x1
800001b0:	ff8b8b93          	addi	s7,s7,-8 # 800011a4 <buf.0+0x100>
800001b4:	f00d8d93          	addi	s11,s11,-256 # ff00 <_entry_offset+0xff00>
800001b8:	00800c93          	li	s9,8
800001bc:	00001d17          	auipc	s10,0x1
800001c0:	ee8d0d13          	addi	s10,s10,-280 # 800010a4 <buf.0>
800001c4:	000d0a93          	mv	s5,s10
800001c8:	000d0713          	mv	a4,s10
800001cc:	01b72023          	sw	s11,0(a4)
800001d0:	00470713          	addi	a4,a4,4
800001d4:	ff771ce3          	bne	a4,s7,800001cc <main+0x158>
800001d8:	00812783          	lw	a5,8(sp)
800001dc:	00341b13          	slli	s6,s0,0x3
800001e0:	02810593          	addi	a1,sp,40
800001e4:	00b00513          	li	a0,11
800001e8:	03612423          	sw	s6,40(sp)
800001ec:	02f12623          	sw	a5,44(sp)
800001f0:	03512823          	sw	s5,48(sp)
800001f4:	03912a23          	sw	s9,52(sp)
800001f8:	03912c23          	sw	s9,56(sp)
800001fc:	02010e23          	sb	zero,60(sp)
80000200:	5d0000ef          	jal	ra,800007d0 <ioe_write>
80000204:	01bd2023          	sw	s11,0(s10)
80000208:	004d0d13          	addi	s10,s10,4
8000020c:	ff7d1ce3          	bne	s10,s7,80000204 <main+0x190>
80000210:	00412783          	lw	a5,4(sp)
80000214:	02810593          	addi	a1,sp,40
80000218:	00b00513          	li	a0,11
8000021c:	03612423          	sw	s6,40(sp)
80000220:	02f12623          	sw	a5,44(sp)
80000224:	03512823          	sw	s5,48(sp)
80000228:	03912a23          	sw	s9,52(sp)
8000022c:	03912c23          	sw	s9,56(sp)
80000230:	02010e23          	sb	zero,60(sp)
80000234:	59c000ef          	jal	ra,800007d0 <ioe_write>
80000238:	00140713          	addi	a4,s0,1
8000023c:	0089c663          	blt	s3,s0,80000248 <main+0x1d4>
80000240:	00070413          	mv	s0,a4
80000244:	f79ff06f          	j	800001bc <main+0x148>
80000248:	00012d03          	lw	s10,0(sp)
8000024c:	01012783          	lw	a5,16(sp)
80000250:	0ba7c463          	blt	a5,s10,800002f8 <main+0x284>
80000254:	003c1793          	slli	a5,s8,0x3
80000258:	00f12223          	sw	a5,4(sp)
8000025c:	00c12783          	lw	a5,12(sp)
80000260:	00010b37          	lui	s6,0x10
80000264:	f00b0b13          	addi	s6,s6,-256 # ff00 <_entry_offset+0xff00>
80000268:	00379413          	slli	s0,a5,0x3
8000026c:	00800c93          	li	s9,8
80000270:	00001997          	auipc	s3,0x1
80000274:	e3498993          	addi	s3,s3,-460 # 800010a4 <buf.0>
80000278:	00098a93          	mv	s5,s3
8000027c:	00098713          	mv	a4,s3
80000280:	01672023          	sw	s6,0(a4)
80000284:	00470713          	addi	a4,a4,4
80000288:	ff771ce3          	bne	a4,s7,80000280 <main+0x20c>
8000028c:	00412783          	lw	a5,4(sp)
80000290:	003d1d93          	slli	s11,s10,0x3
80000294:	02810593          	addi	a1,sp,40
80000298:	00b00513          	li	a0,11
8000029c:	02f12423          	sw	a5,40(sp)
800002a0:	03b12623          	sw	s11,44(sp)
800002a4:	03512823          	sw	s5,48(sp)
800002a8:	03912a23          	sw	s9,52(sp)
800002ac:	03912c23          	sw	s9,56(sp)
800002b0:	02010e23          	sb	zero,60(sp)
800002b4:	51c000ef          	jal	ra,800007d0 <ioe_write>
800002b8:	0169a023          	sw	s6,0(s3)
800002bc:	00498993          	addi	s3,s3,4
800002c0:	ff3b9ce3          	bne	s7,s3,800002b8 <main+0x244>
800002c4:	02810593          	addi	a1,sp,40
800002c8:	00b00513          	li	a0,11
800002cc:	02812423          	sw	s0,40(sp)
800002d0:	03b12623          	sw	s11,44(sp)
800002d4:	03512823          	sw	s5,48(sp)
800002d8:	03912a23          	sw	s9,52(sp)
800002dc:	03912c23          	sw	s9,56(sp)
800002e0:	02010e23          	sb	zero,60(sp)
800002e4:	4ec000ef          	jal	ra,800007d0 <ioe_write>
800002e8:	001d0713          	addi	a4,s10,1
800002ec:	01a4c663          	blt	s1,s10,800002f8 <main+0x284>
800002f0:	00070d13          	mv	s10,a4
800002f4:	f7dff06f          	j	80000270 <main+0x1fc>
800002f8:	2b5000ef          	jal	ra,80000dac <rand>
800002fc:	01412783          	lw	a5,20(sp)
80000300:	00100493          	li	s1,1
80000304:	00200993          	li	s3,2
80000308:	02f56433          	rem	s0,a0,a5
8000030c:	00400c93          	li	s9,4
80000310:	00ff0db7          	lui	s11,0xff0
80000314:	00800b13          	li	s6,8
80000318:	00812223          	sw	s0,4(sp)
8000031c:	291000ef          	jal	ra,80000dac <rand>
80000320:	01812783          	lw	a5,24(sp)
80000324:	00012703          	lw	a4,0(sp)
80000328:	008c05b3          	add	a1,s8,s0
8000032c:	02f567b3          	rem	a5,a0,a5
80000330:	0ff00613          	li	a2,255
80000334:	00158593          	addi	a1,a1,1
80000338:	00f70533          	add	a0,a4,a5
8000033c:	00150513          	addi	a0,a0,1
80000340:	00f12e23          	sw	a5,28(sp)
80000344:	ccdff0ef          	jal	ra,80000010 <draw_tile>
80000348:	fffff737          	lui	a4,0xfffff
8000034c:	c7870793          	addi	a5,a4,-904 # ffffec78 <_end+0x7fff4c78>
80000350:	00f12423          	sw	a5,8(sp)
80000354:	fffe97b7          	lui	a5,0xfffe9
80000358:	ce878793          	addi	a5,a5,-792 # fffe8ce8 <_end+0x7ffdece8>
8000035c:	00018737          	lui	a4,0x18
80000360:	00f12623          	sw	a5,12(sp)
80000364:	6a070793          	addi	a5,a4,1696 # 186a0 <_entry_offset+0x186a0>
80000368:	00f12823          	sw	a5,16(sp)
8000036c:	00012783          	lw	a5,0(sp)
80000370:	00001417          	auipc	s0,0x1
80000374:	d3440413          	addi	s0,s0,-716 # 800010a4 <buf.0>
80000378:	012c0833          	add	a6,s8,s2
8000037c:	01478733          	add	a4,a5,s4
80000380:	00170593          	addi	a1,a4,1
80000384:	00180813          	addi	a6,a6,1
80000388:	00040a93          	mv	s5,s0
8000038c:	00040713          	mv	a4,s0
80000390:	01b72023          	sw	s11,0(a4)
80000394:	00470713          	addi	a4,a4,4
80000398:	ff771ce3          	bne	a4,s7,80000390 <main+0x31c>
8000039c:	00359713          	slli	a4,a1,0x3
800003a0:	00381813          	slli	a6,a6,0x3
800003a4:	02810593          	addi	a1,sp,40
800003a8:	00b00513          	li	a0,11
800003ac:	02e12623          	sw	a4,44(sp)
800003b0:	03012423          	sw	a6,40(sp)
800003b4:	03512823          	sw	s5,48(sp)
800003b8:	03612a23          	sw	s6,52(sp)
800003bc:	03612c23          	sw	s6,56(sp)
800003c0:	02010e23          	sb	zero,60(sp)
800003c4:	40c000ef          	jal	ra,800007d0 <ioe_write>
800003c8:	41348733          	sub	a4,s1,s3
800003cc:	00075463          	bgez	a4,800003d4 <main+0x360>
800003d0:	06470713          	addi	a4,a4,100
800003d4:	00371713          	slli	a4,a4,0x3
800003d8:	35070793          	addi	a5,a4,848
800003dc:	02010713          	addi	a4,sp,32
800003e0:	00e78733          	add	a4,a5,a4
800003e4:	cd472803          	lw	a6,-812(a4)
800003e8:	cd872583          	lw	a1,-808(a4)
800003ec:	00012783          	lw	a5,0(sp)
800003f0:	010c0833          	add	a6,s8,a6
800003f4:	00180813          	addi	a6,a6,1
800003f8:	00b78733          	add	a4,a5,a1
800003fc:	00170713          	addi	a4,a4,1
80000400:	00042023          	sw	zero,0(s0)
80000404:	00440413          	addi	s0,s0,4
80000408:	fe8b9ce3          	bne	s7,s0,80000400 <main+0x38c>
8000040c:	00381813          	slli	a6,a6,0x3
80000410:	00371713          	slli	a4,a4,0x3
80000414:	02810593          	addi	a1,sp,40
80000418:	00b00513          	li	a0,11
8000041c:	03012423          	sw	a6,40(sp)
80000420:	02e12623          	sw	a4,44(sp)
80000424:	03512823          	sw	s5,48(sp)
80000428:	03612a23          	sw	s6,52(sp)
8000042c:	03612c23          	sw	s6,56(sp)
80000430:	02010e23          	sb	zero,60(sp)
80000434:	39c000ef          	jal	ra,800007d0 <ioe_write>
80000438:	0080006f          	j	80000440 <main+0x3cc>
8000043c:	22070a63          	beqz	a4,80000670 <main+0x5fc>
80000440:	02810593          	addi	a1,sp,40
80000444:	00800513          	li	a0,8
80000448:	36c000ef          	jal	ra,800007b4 <ioe_read>
8000044c:	02814603          	lbu	a2,40(sp)
80000450:	02c12703          	lw	a4,44(sp)
80000454:	fe0604e3          	beqz	a2,8000043c <main+0x3c8>
80000458:	fb770613          	addi	a2,a4,-73
8000045c:	00300593          	li	a1,3
80000460:	20c5e863          	bltu	a1,a2,80000670 <main+0x5fc>
80000464:	fb870713          	addi	a4,a4,-72
80000468:	22b70e63          	beq	a4,a1,800006a4 <main+0x630>
8000046c:	00400613          	li	a2,4
80000470:	22c70263          	beq	a4,a2,80000694 <main+0x620>
80000474:	00200613          	li	a2,2
80000478:	24c70063          	beq	a4,a2,800006b8 <main+0x644>
8000047c:	20cc8663          	beq	s9,a2,80000688 <main+0x614>
80000480:	fffa0a13          	addi	s4,s4,-1
80000484:	00100c93          	li	s9,1
80000488:	f9d48713          	addi	a4,s1,-99
8000048c:	00e03733          	snez	a4,a4
80000490:	40e00733          	neg	a4,a4
80000494:	00148493          	addi	s1,s1,1
80000498:	00e4f4b3          	and	s1,s1,a4
8000049c:	00349713          	slli	a4,s1,0x3
800004a0:	35070793          	addi	a5,a4,848
800004a4:	02010713          	addi	a4,sp,32
800004a8:	00e78733          	add	a4,a5,a4
800004ac:	cd272a23          	sw	s2,-812(a4)
800004b0:	cd472c23          	sw	s4,-808(a4)
800004b4:	fff00713          	li	a4,-1
800004b8:	00100d13          	li	s10,1
800004bc:	04e90863          	beq	s2,a4,8000050c <main+0x498>
800004c0:	01412783          	lw	a5,20(sp)
800004c4:	05278463          	beq	a5,s2,8000050c <main+0x498>
800004c8:	04ea0263          	beq	s4,a4,8000050c <main+0x498>
800004cc:	01812783          	lw	a5,24(sp)
800004d0:	03478e63          	beq	a5,s4,8000050c <main+0x498>
800004d4:	fff48613          	addi	a2,s1,-1
800004d8:	00060713          	mv	a4,a2
800004dc:	00065463          	bgez	a2,800004e4 <main+0x470>
800004e0:	06460713          	addi	a4,a2,100
800004e4:	00371713          	slli	a4,a4,0x3
800004e8:	35070793          	addi	a5,a4,848
800004ec:	02010713          	addi	a4,sp,32
800004f0:	00e78733          	add	a4,a5,a4
800004f4:	cd472583          	lw	a1,-812(a4)
800004f8:	fff60613          	addi	a2,a2,-1
800004fc:	40c48533          	sub	a0,s1,a2
80000500:	11258863          	beq	a1,s2,80000610 <main+0x59c>
80000504:	fca99ae3          	bne	s3,a0,800004d8 <main+0x464>
80000508:	00000d13          	li	s10,0
8000050c:	00412783          	lw	a5,4(sp)
80000510:	11278a63          	beq	a5,s2,80000624 <main+0x5b0>
80000514:	00100793          	li	a5,1
80000518:	00b00513          	li	a0,11
8000051c:	02810593          	addi	a1,sp,40
80000520:	02f10e23          	sb	a5,60(sp)
80000524:	02012423          	sw	zero,40(sp)
80000528:	02012623          	sw	zero,44(sp)
8000052c:	02012823          	sw	zero,48(sp)
80000530:	02012a23          	sw	zero,52(sp)
80000534:	02012c23          	sw	zero,56(sp)
80000538:	298000ef          	jal	ra,800007d0 <ioe_write>
8000053c:	02810593          	addi	a1,sp,40
80000540:	00600513          	li	a0,6
80000544:	270000ef          	jal	ra,800007b4 <ioe_read>
80000548:	00812783          	lw	a5,8(sp)
8000054c:	02812a83          	lw	s5,40(sp)
80000550:	02c12583          	lw	a1,44(sp)
80000554:	02f98733          	mul	a4,s3,a5
80000558:	00c12783          	lw	a5,12(sp)
8000055c:	00f75463          	bge	a4,a5,80000564 <main+0x4f0>
80000560:	00078713          	mv	a4,a5
80000564:	01012783          	lw	a5,16(sp)
80000568:	00f70733          	add	a4,a4,a5
8000056c:	41f75613          	srai	a2,a4,0x1f
80000570:	01570ab3          	add	s5,a4,s5
80000574:	00eab733          	sltu	a4,s5,a4
80000578:	00b60633          	add	a2,a2,a1
8000057c:	00c70433          	add	s0,a4,a2
80000580:	02810593          	addi	a1,sp,40
80000584:	00600513          	li	a0,6
80000588:	22c000ef          	jal	ra,800007b4 <ioe_read>
8000058c:	02c12703          	lw	a4,44(sp)
80000590:	02812603          	lw	a2,40(sp)
80000594:	fe8766e3          	bltu	a4,s0,80000580 <main+0x50c>
80000598:	00e41463          	bne	s0,a4,800005a0 <main+0x52c>
8000059c:	ff5662e3          	bltu	a2,s5,80000580 <main+0x50c>
800005a0:	dc0d06e3          	beqz	s10,8000036c <main+0x2f8>
800005a4:	00001517          	auipc	a0,0x1
800005a8:	85c50513          	addi	a0,a0,-1956 # 80000e00 <_etext>
800005ac:	4b4000ef          	jal	ra,80000a60 <printf>
800005b0:	01d00413          	li	s0,29
800005b4:	02810593          	addi	a1,sp,40
800005b8:	00800513          	li	a0,8
800005bc:	1f8000ef          	jal	ra,800007b4 <ioe_read>
800005c0:	02814783          	lbu	a5,40(sp)
800005c4:	02c12703          	lw	a4,44(sp)
800005c8:	fe0786e3          	beqz	a5,800005b4 <main+0x540>
800005cc:	fe8714e3          	bne	a4,s0,800005b4 <main+0x540>
800005d0:	3ac12083          	lw	ra,940(sp)
800005d4:	3a812403          	lw	s0,936(sp)
800005d8:	3a412483          	lw	s1,932(sp)
800005dc:	3a012903          	lw	s2,928(sp)
800005e0:	39c12983          	lw	s3,924(sp)
800005e4:	39812a03          	lw	s4,920(sp)
800005e8:	39412a83          	lw	s5,916(sp)
800005ec:	39012b03          	lw	s6,912(sp)
800005f0:	38c12b83          	lw	s7,908(sp)
800005f4:	38812c03          	lw	s8,904(sp)
800005f8:	38412c83          	lw	s9,900(sp)
800005fc:	38012d03          	lw	s10,896(sp)
80000600:	37c12d83          	lw	s11,892(sp)
80000604:	00000513          	li	a0,0
80000608:	3b010113          	addi	sp,sp,944
8000060c:	00008067          	ret
80000610:	cd872703          	lw	a4,-808(a4)
80000614:	ef4718e3          	bne	a4,s4,80000504 <main+0x490>
80000618:	00412783          	lw	a5,4(sp)
8000061c:	00100d13          	li	s10,1
80000620:	ef279ae3          	bne	a5,s2,80000514 <main+0x4a0>
80000624:	01c12783          	lw	a5,28(sp)
80000628:	eefa16e3          	bne	s4,a5,80000514 <main+0x4a0>
8000062c:	780000ef          	jal	ra,80000dac <rand>
80000630:	01412783          	lw	a5,20(sp)
80000634:	00198993          	addi	s3,s3,1
80000638:	02f56433          	rem	s0,a0,a5
8000063c:	00812223          	sw	s0,4(sp)
80000640:	76c000ef          	jal	ra,80000dac <rand>
80000644:	01812783          	lw	a5,24(sp)
80000648:	00012703          	lw	a4,0(sp)
8000064c:	008c05b3          	add	a1,s8,s0
80000650:	02f567b3          	rem	a5,a0,a5
80000654:	0ff00613          	li	a2,255
80000658:	00158593          	addi	a1,a1,1
8000065c:	00f70533          	add	a0,a4,a5
80000660:	00150513          	addi	a0,a0,1
80000664:	00f12e23          	sw	a5,28(sp)
80000668:	9a9ff0ef          	jal	ra,80000010 <draw_tile>
8000066c:	ea9ff06f          	j	80000514 <main+0x4a0>
80000670:	00300713          	li	a4,3
80000674:	02ec8c63          	beq	s9,a4,800006ac <main+0x638>
80000678:	00400713          	li	a4,4
8000067c:	00ec8e63          	beq	s9,a4,80000698 <main+0x624>
80000680:	00200713          	li	a4,2
80000684:	deec9ee3          	bne	s9,a4,80000480 <main+0x40c>
80000688:	001a0a13          	addi	s4,s4,1
8000068c:	00200c93          	li	s9,2
80000690:	df9ff06f          	j	80000488 <main+0x414>
80000694:	00bc8c63          	beq	s9,a1,800006ac <main+0x638>
80000698:	00190913          	addi	s2,s2,1
8000069c:	00400c93          	li	s9,4
800006a0:	de9ff06f          	j	80000488 <main+0x414>
800006a4:	00400713          	li	a4,4
800006a8:	feec88e3          	beq	s9,a4,80000698 <main+0x624>
800006ac:	fff90913          	addi	s2,s2,-1
800006b0:	00300c93          	li	s9,3
800006b4:	dd5ff06f          	j	80000488 <main+0x414>
800006b8:	00100793          	li	a5,1
800006bc:	fcfc96e3          	bne	s9,a5,80000688 <main+0x614>
800006c0:	dc1ff06f          	j	80000480 <main+0x40c>

800006c4 <__am_timer_config>:
800006c4:	00100793          	li	a5,1
800006c8:	00f50023          	sb	a5,0(a0)
800006cc:	00f500a3          	sb	a5,1(a0)
800006d0:	00008067          	ret

800006d4 <__am_input_config>:
800006d4:	00100793          	li	a5,1
800006d8:	00f50023          	sb	a5,0(a0)
800006dc:	00008067          	ret

800006e0 <__am_uart_config>:
800006e0:	00050023          	sb	zero,0(a0)
800006e4:	00008067          	ret

800006e8 <__am_net_config>:
800006e8:	00050023          	sb	zero,0(a0)
800006ec:	00008067          	ret

800006f0 <fail>:
800006f0:	ff010113          	addi	sp,sp,-16
800006f4:	00812423          	sw	s0,8(sp)
800006f8:	00112623          	sw	ra,12(sp)
800006fc:	00000417          	auipc	s0,0x0
80000700:	72040413          	addi	s0,s0,1824 # 80000e1c <_etext+0x1c>
80000704:	04100513          	li	a0,65
80000708:	00140413          	addi	s0,s0,1
8000070c:	31c000ef          	jal	ra,80000a28 <putch>
80000710:	00044503          	lbu	a0,0(s0)
80000714:	fe051ae3          	bnez	a0,80000708 <fail+0x18>
80000718:	00000417          	auipc	s0,0x0
8000071c:	71040413          	addi	s0,s0,1808 # 80000e28 <_etext+0x28>
80000720:	06100513          	li	a0,97
80000724:	00140413          	addi	s0,s0,1
80000728:	300000ef          	jal	ra,80000a28 <putch>
8000072c:	00044503          	lbu	a0,0(s0)
80000730:	fe051ae3          	bnez	a0,80000724 <fail+0x34>
80000734:	00000417          	auipc	s0,0x0
80000738:	71040413          	addi	s0,s0,1808 # 80000e44 <_etext+0x44>
8000073c:	02000513          	li	a0,32
80000740:	00140413          	addi	s0,s0,1
80000744:	2e4000ef          	jal	ra,80000a28 <putch>
80000748:	00044503          	lbu	a0,0(s0)
8000074c:	fe051ae3          	bnez	a0,80000740 <fail+0x50>
80000750:	00100513          	li	a0,1
80000754:	2e0000ef          	jal	ra,80000a34 <halt>

80000758 <ioe_init>:
80000758:	ff010113          	addi	sp,sp,-16
8000075c:	00112623          	sw	ra,12(sp)
80000760:	00000797          	auipc	a5,0x0
80000764:	74078793          	addi	a5,a5,1856 # 80000ea0 <lut>
80000768:	00001697          	auipc	a3,0x1
8000076c:	93868693          	addi	a3,a3,-1736 # 800010a0 <next>
80000770:	00000617          	auipc	a2,0x0
80000774:	f8060613          	addi	a2,a2,-128 # 800006f0 <fail>
80000778:	00c0006f          	j	80000784 <ioe_init+0x2c>
8000077c:	00478793          	addi	a5,a5,4
80000780:	00d78c63          	beq	a5,a3,80000798 <ioe_init+0x40>
80000784:	0007a703          	lw	a4,0(a5)
80000788:	fe071ae3          	bnez	a4,8000077c <ioe_init+0x24>
8000078c:	00c7a023          	sw	a2,0(a5)
80000790:	00478793          	addi	a5,a5,4
80000794:	fed798e3          	bne	a5,a3,80000784 <ioe_init+0x2c>
80000798:	0d0000ef          	jal	ra,80000868 <__am_gpu_init>
8000079c:	050000ef          	jal	ra,800007ec <__am_timer_init>
800007a0:	25c000ef          	jal	ra,800009fc <__am_audio_init>
800007a4:	00c12083          	lw	ra,12(sp)
800007a8:	00100513          	li	a0,1
800007ac:	01010113          	addi	sp,sp,16
800007b0:	00008067          	ret

800007b4 <ioe_read>:
800007b4:	00251513          	slli	a0,a0,0x2
800007b8:	00000797          	auipc	a5,0x0
800007bc:	6e878793          	addi	a5,a5,1768 # 80000ea0 <lut>
800007c0:	00a787b3          	add	a5,a5,a0
800007c4:	0007a783          	lw	a5,0(a5)
800007c8:	00058513          	mv	a0,a1
800007cc:	00078067          	jr	a5

800007d0 <ioe_write>:
800007d0:	00251513          	slli	a0,a0,0x2
800007d4:	00000797          	auipc	a5,0x0
800007d8:	6cc78793          	addi	a5,a5,1740 # 80000ea0 <lut>
800007dc:	00a787b3          	add	a5,a5,a0
800007e0:	0007a783          	lw	a5,0(a5)
800007e4:	00058513          	mv	a0,a1
800007e8:	00078067          	jr	a5

800007ec <__am_timer_init>:
800007ec:	00008067          	ret

800007f0 <__am_timer_uptime>:
800007f0:	a00007b7          	lui	a5,0xa0000
800007f4:	0487a703          	lw	a4,72(a5) # a0000048 <_end+0x1fff6048>
800007f8:	04c7a783          	lw	a5,76(a5)
800007fc:	00e52023          	sw	a4,0(a0)
80000800:	00f52223          	sw	a5,4(a0)
80000804:	00008067          	ret

80000808 <__am_timer_rtc>:
80000808:	76c00793          	li	a5,1900
8000080c:	00052a23          	sw	zero,20(a0)
80000810:	00052823          	sw	zero,16(a0)
80000814:	00052623          	sw	zero,12(a0)
80000818:	00052423          	sw	zero,8(a0)
8000081c:	00052223          	sw	zero,4(a0)
80000820:	00f52023          	sw	a5,0(a0)
80000824:	00008067          	ret

80000828 <__am_input_keybrd>:
80000828:	a00007b7          	lui	a5,0xa0000
8000082c:	0607a783          	lw	a5,96(a5) # a0000060 <_end+0x1fff6060>
80000830:	02078263          	beqz	a5,80000854 <__am_input_keybrd+0x2c>
80000834:	ffff86b7          	lui	a3,0xffff8
80000838:	00f7d713          	srli	a4,a5,0xf
8000083c:	fff68693          	addi	a3,a3,-1 # ffff7fff <_end+0x7ffedfff>
80000840:	00177713          	andi	a4,a4,1
80000844:	00d7f7b3          	and	a5,a5,a3
80000848:	00e50023          	sb	a4,0(a0)
8000084c:	00f52223          	sw	a5,4(a0)
80000850:	00008067          	ret
80000854:	00000713          	li	a4,0
80000858:	00000793          	li	a5,0
8000085c:	00e50023          	sb	a4,0(a0)
80000860:	00f52223          	sw	a5,4(a0)
80000864:	00008067          	ret

80000868 <__am_gpu_init>:
80000868:	a00007b7          	lui	a5,0xa0000
8000086c:	1007a783          	lw	a5,256(a5) # a0000100 <_end+0x1fff6100>
80000870:	0107d713          	srli	a4,a5,0x10
80000874:	01079793          	slli	a5,a5,0x10
80000878:	0107d793          	srli	a5,a5,0x10
8000087c:	02f70733          	mul	a4,a4,a5
80000880:	02070063          	beqz	a4,800008a0 <__am_gpu_init+0x38>
80000884:	284007b7          	lui	a5,0x28400
80000888:	00f70733          	add	a4,a4,a5
8000088c:	00271713          	slli	a4,a4,0x2
80000890:	a10007b7          	lui	a5,0xa1000
80000894:	0007a023          	sw	zero,0(a5) # a1000000 <_end+0x20ff6000>
80000898:	00478793          	addi	a5,a5,4
8000089c:	fee79ce3          	bne	a5,a4,80000894 <__am_gpu_init+0x2c>
800008a0:	a00007b7          	lui	a5,0xa0000
800008a4:	00100713          	li	a4,1
800008a8:	10e7a223          	sw	a4,260(a5) # a0000104 <_end+0x1fff6104>
800008ac:	00008067          	ret

800008b0 <__am_gpu_config>:
800008b0:	a00007b7          	lui	a5,0xa0000
800008b4:	1007a783          	lw	a5,256(a5) # a0000100 <_end+0x1fff6100>
800008b8:	00100613          	li	a2,1
800008bc:	00c51023          	sh	a2,0(a0)
800008c0:	0107d693          	srli	a3,a5,0x10
800008c4:	01079793          	slli	a5,a5,0x10
800008c8:	0107d793          	srli	a5,a5,0x10
800008cc:	02f68733          	mul	a4,a3,a5
800008d0:	00f52423          	sw	a5,8(a0)
800008d4:	00d52223          	sw	a3,4(a0)
800008d8:	00271793          	slli	a5,a4,0x2
800008dc:	00f52623          	sw	a5,12(a0)
800008e0:	00008067          	ret

800008e4 <__am_gpu_fbdraw>:
800008e4:	fd010113          	addi	sp,sp,-48
800008e8:	01312e23          	sw	s3,28(sp)
800008ec:	00010593          	mv	a1,sp
800008f0:	00050993          	mv	s3,a0
800008f4:	00900513          	li	a0,9
800008f8:	01512a23          	sw	s5,20(sp)
800008fc:	02112623          	sw	ra,44(sp)
80000900:	02812423          	sw	s0,40(sp)
80000904:	02912223          	sw	s1,36(sp)
80000908:	03212023          	sw	s2,32(sp)
8000090c:	01412c23          	sw	s4,24(sp)
80000910:	01612823          	sw	s6,16(sp)
80000914:	ea1ff0ef          	jal	ra,800007b4 <ioe_read>
80000918:	0109a783          	lw	a5,16(s3)
8000091c:	00412a83          	lw	s5,4(sp)
80000920:	08f05a63          	blez	a5,800009b4 <__am_gpu_fbdraw+0xd0>
80000924:	00c9a703          	lw	a4,12(s3)
80000928:	00000b13          	li	s6,0
8000092c:	a1000a37          	lui	s4,0xa1000
80000930:	00000413          	li	s0,0
80000934:	00e04863          	bgtz	a4,80000944 <__am_gpu_fbdraw+0x60>
80000938:	0740006f          	j	800009ac <__am_gpu_fbdraw+0xc8>
8000093c:	00140413          	addi	s0,s0,1
80000940:	06e45463          	bge	s0,a4,800009a8 <__am_gpu_fbdraw+0xc4>
80000944:	0009a483          	lw	s1,0(s3)
80000948:	0049a783          	lw	a5,4(s3)
8000094c:	009404b3          	add	s1,s0,s1
80000950:	ff54d6e3          	bge	s1,s5,8000093c <__am_gpu_fbdraw+0x58>
80000954:	00010593          	mv	a1,sp
80000958:	00900513          	li	a0,9
8000095c:	01678933          	add	s2,a5,s6
80000960:	e55ff0ef          	jal	ra,800007b4 <ioe_read>
80000964:	00812783          	lw	a5,8(sp)
80000968:	00c9a703          	lw	a4,12(s3)
8000096c:	fcf958e3          	bge	s2,a5,8000093c <__am_gpu_fbdraw+0x58>
80000970:	02eb0733          	mul	a4,s6,a4
80000974:	0089a683          	lw	a3,8(s3)
80000978:	032a87b3          	mul	a5,s5,s2
8000097c:	00870733          	add	a4,a4,s0
80000980:	00271713          	slli	a4,a4,0x2
80000984:	00e68733          	add	a4,a3,a4
80000988:	00072703          	lw	a4,0(a4)
8000098c:	00140413          	addi	s0,s0,1
80000990:	009787b3          	add	a5,a5,s1
80000994:	00279793          	slli	a5,a5,0x2
80000998:	00fa07b3          	add	a5,s4,a5
8000099c:	00e7a023          	sw	a4,0(a5)
800009a0:	00c9a703          	lw	a4,12(s3)
800009a4:	fae440e3          	blt	s0,a4,80000944 <__am_gpu_fbdraw+0x60>
800009a8:	0109a783          	lw	a5,16(s3)
800009ac:	001b0b13          	addi	s6,s6,1
800009b0:	f8fb40e3          	blt	s6,a5,80000930 <__am_gpu_fbdraw+0x4c>
800009b4:	0149c783          	lbu	a5,20(s3)
800009b8:	00078863          	beqz	a5,800009c8 <__am_gpu_fbdraw+0xe4>
800009bc:	a00007b7          	lui	a5,0xa0000
800009c0:	00100713          	li	a4,1
800009c4:	10e7a223          	sw	a4,260(a5) # a0000104 <_end+0x1fff6104>
800009c8:	02c12083          	lw	ra,44(sp)
800009cc:	02812403          	lw	s0,40(sp)
800009d0:	02412483          	lw	s1,36(sp)
800009d4:	02012903          	lw	s2,32(sp)
800009d8:	01c12983          	lw	s3,28(sp)
800009dc:	01812a03          	lw	s4,24(sp)
800009e0:	01412a83          	lw	s5,20(sp)
800009e4:	01012b03          	lw	s6,16(sp)
800009e8:	03010113          	addi	sp,sp,48
800009ec:	00008067          	ret

800009f0 <__am_gpu_status>:
800009f0:	00100793          	li	a5,1
800009f4:	00f50023          	sb	a5,0(a0)
800009f8:	00008067          	ret

800009fc <__am_audio_init>:
800009fc:	00008067          	ret

80000a00 <__am_audio_config>:
80000a00:	00050023          	sb	zero,0(a0)
80000a04:	00008067          	ret

80000a08 <__am_audio_ctrl>:
80000a08:	00008067          	ret

80000a0c <__am_audio_status>:
80000a0c:	00052023          	sw	zero,0(a0)
80000a10:	00008067          	ret

80000a14 <__am_audio_play>:
80000a14:	00008067          	ret

80000a18 <__am_disk_config>:
80000a18:	00050023          	sb	zero,0(a0)
80000a1c:	00008067          	ret

80000a20 <__am_disk_status>:
80000a20:	00008067          	ret

80000a24 <__am_disk_blkio>:
80000a24:	00008067          	ret

80000a28 <putch>:
80000a28:	a00007b7          	lui	a5,0xa0000
80000a2c:	3ea78c23          	sb	a0,1016(a5) # a00003f8 <_end+0x1fff63f8>
80000a30:	00008067          	ret

80000a34 <halt>:
80000a34:	00050513          	mv	a0,a0
80000a38:	00100073          	ebreak
80000a3c:	0000006f          	j	80000a3c <halt+0x8>

80000a40 <_trm_init>:
80000a40:	ff010113          	addi	sp,sp,-16
80000a44:	00000517          	auipc	a0,0x0
80000a48:	45850513          	addi	a0,a0,1112 # 80000e9c <mainargs>
80000a4c:	00112623          	sw	ra,12(sp)
80000a50:	e24ff0ef          	jal	ra,80000074 <main>
80000a54:	00050513          	mv	a0,a0
80000a58:	00100073          	ebreak
80000a5c:	0000006f          	j	80000a5c <_trm_init+0x1c>

80000a60 <printf>:
80000a60:	bb010113          	addi	sp,sp,-1104
80000a64:	42812423          	sw	s0,1064(sp)
80000a68:	41912223          	sw	s9,1028(sp)
80000a6c:	44f12223          	sw	a5,1092(sp)
80000a70:	42112623          	sw	ra,1068(sp)
80000a74:	42912223          	sw	s1,1060(sp)
80000a78:	43212023          	sw	s2,1056(sp)
80000a7c:	41312e23          	sw	s3,1052(sp)
80000a80:	41412c23          	sw	s4,1048(sp)
80000a84:	41512a23          	sw	s5,1044(sp)
80000a88:	41612823          	sw	s6,1040(sp)
80000a8c:	41712623          	sw	s7,1036(sp)
80000a90:	41812423          	sw	s8,1032(sp)
80000a94:	41a12023          	sw	s10,1024(sp)
80000a98:	3fb12e23          	sw	s11,1020(sp)
80000a9c:	42b12a23          	sw	a1,1076(sp)
80000aa0:	42c12c23          	sw	a2,1080(sp)
80000aa4:	42d12e23          	sw	a3,1084(sp)
80000aa8:	44e12023          	sw	a4,1088(sp)
80000aac:	45012423          	sw	a6,1096(sp)
80000ab0:	45112623          	sw	a7,1100(sp)
80000ab4:	00050c93          	mv	s9,a0
80000ab8:	00054503          	lbu	a0,0(a0)
80000abc:	43410793          	addi	a5,sp,1076
80000ac0:	00f12223          	sw	a5,4(sp)
80000ac4:	00000413          	li	s0,0
80000ac8:	02050a63          	beqz	a0,80000afc <printf+0x9c>
80000acc:	02500993          	li	s3,37
80000ad0:	03000b13          	li	s6,48
80000ad4:	00900493          	li	s1,9
80000ad8:	00810a13          	addi	s4,sp,8
80000adc:	00910a93          	addi	s5,sp,9
80000ae0:	05350e63          	beq	a0,s3,80000b3c <printf+0xdc>
80000ae4:	f45ff0ef          	jal	ra,80000a28 <putch>
80000ae8:	00140413          	addi	s0,s0,1
80000aec:	000c8b93          	mv	s7,s9
80000af0:	001bc503          	lbu	a0,1(s7)
80000af4:	001b8c93          	addi	s9,s7,1
80000af8:	fe0514e3          	bnez	a0,80000ae0 <printf+0x80>
80000afc:	42c12083          	lw	ra,1068(sp)
80000b00:	00040513          	mv	a0,s0
80000b04:	42812403          	lw	s0,1064(sp)
80000b08:	42412483          	lw	s1,1060(sp)
80000b0c:	42012903          	lw	s2,1056(sp)
80000b10:	41c12983          	lw	s3,1052(sp)
80000b14:	41812a03          	lw	s4,1048(sp)
80000b18:	41412a83          	lw	s5,1044(sp)
80000b1c:	41012b03          	lw	s6,1040(sp)
80000b20:	40c12b83          	lw	s7,1036(sp)
80000b24:	40812c03          	lw	s8,1032(sp)
80000b28:	40412c83          	lw	s9,1028(sp)
80000b2c:	40012d03          	lw	s10,1024(sp)
80000b30:	3fc12d83          	lw	s11,1020(sp)
80000b34:	45010113          	addi	sp,sp,1104
80000b38:	00008067          	ret
80000b3c:	001cc603          	lbu	a2,1(s9)
80000b40:	001c8b93          	addi	s7,s9,1
80000b44:	02000913          	li	s2,32
80000b48:	01661863          	bne	a2,s6,80000b58 <printf+0xf8>
80000b4c:	002cc603          	lbu	a2,2(s9)
80000b50:	002c8b93          	addi	s7,s9,2
80000b54:	03000913          	li	s2,48
80000b58:	fd060693          	addi	a3,a2,-48
80000b5c:	0ff6f793          	zext.b	a5,a3
80000b60:	00000c93          	li	s9,0
80000b64:	02f4e463          	bltu	s1,a5,80000b8c <printf+0x12c>
80000b68:	001bc603          	lbu	a2,1(s7)
80000b6c:	002c9793          	slli	a5,s9,0x2
80000b70:	019787b3          	add	a5,a5,s9
80000b74:	00179793          	slli	a5,a5,0x1
80000b78:	00f68cb3          	add	s9,a3,a5
80000b7c:	fd060693          	addi	a3,a2,-48
80000b80:	0ff6f793          	zext.b	a5,a3
80000b84:	001b8b93          	addi	s7,s7,1
80000b88:	fef4f0e3          	bgeu	s1,a5,80000b68 <printf+0x108>
80000b8c:	07300793          	li	a5,115
80000b90:	02f60663          	beq	a2,a5,80000bbc <printf+0x15c>
80000b94:	07800793          	li	a5,120
80000b98:	08f60c63          	beq	a2,a5,80000c30 <printf+0x1d0>
80000b9c:	06400793          	li	a5,100
80000ba0:	04f60c63          	beq	a2,a5,80000bf8 <printf+0x198>
80000ba4:	02500513          	li	a0,37
80000ba8:	e81ff0ef          	jal	ra,80000a28 <putch>
80000bac:	000bc503          	lbu	a0,0(s7)
80000bb0:	00240413          	addi	s0,s0,2
80000bb4:	e75ff0ef          	jal	ra,80000a28 <putch>
80000bb8:	f39ff06f          	j	80000af0 <printf+0x90>
80000bbc:	00412783          	lw	a5,4(sp)
80000bc0:	0007a903          	lw	s2,0(a5)
80000bc4:	00478793          	addi	a5,a5,4
80000bc8:	00f12223          	sw	a5,4(sp)
80000bcc:	00094503          	lbu	a0,0(s2)
80000bd0:	f20500e3          	beqz	a0,80000af0 <printf+0x90>
80000bd4:	00040c93          	mv	s9,s0
80000bd8:	e51ff0ef          	jal	ra,80000a28 <putch>
80000bdc:	001c8c93          	addi	s9,s9,1
80000be0:	408c87b3          	sub	a5,s9,s0
80000be4:	00f907b3          	add	a5,s2,a5
80000be8:	0007c503          	lbu	a0,0(a5)
80000bec:	fe0516e3          	bnez	a0,80000bd8 <printf+0x178>
80000bf0:	000c8413          	mv	s0,s9
80000bf4:	efdff06f          	j	80000af0 <printf+0x90>
80000bf8:	00412783          	lw	a5,4(sp)
80000bfc:	00140d13          	addi	s10,s0,1
80000c00:	0007ad83          	lw	s11,0(a5)
80000c04:	00478793          	addi	a5,a5,4
80000c08:	00f12223          	sw	a5,4(sp)
80000c0c:	120dce63          	bltz	s11,80000d48 <printf+0x2e8>
80000c10:	180d9a63          	bnez	s11,80000da4 <printf+0x344>
80000c14:	01610423          	sb	s6,8(sp)
80000c18:	00100793          	li	a5,1
80000c1c:	0997cc63          	blt	a5,s9,80000cb4 <printf+0x254>
80000c20:	03000513          	li	a0,48
80000c24:	e05ff0ef          	jal	ra,80000a28 <putch>
80000c28:	000d0413          	mv	s0,s10
80000c2c:	ec5ff06f          	j	80000af0 <printf+0x90>
80000c30:	00412683          	lw	a3,4(sp)
80000c34:	0006a783          	lw	a5,0(a3)
80000c38:	00468693          	addi	a3,a3,4
80000c3c:	00d12223          	sw	a3,4(sp)
80000c40:	0c079a63          	bnez	a5,80000d14 <printf+0x2b4>
80000c44:	01610423          	sb	s6,8(sp)
80000c48:	00100793          	li	a5,1
80000c4c:	0b97dc63          	bge	a5,s9,80000d04 <printf+0x2a4>
80000c50:	00100d13          	li	s10,1
80000c54:	41ac8cb3          	sub	s9,s9,s10
80000c58:	03905863          	blez	s9,80000c88 <printf+0x228>
80000c5c:	00000d93          	li	s11,0
80000c60:	001d8d93          	addi	s11,s11,1 # ff0001 <_entry_offset+0xff0001>
80000c64:	00090513          	mv	a0,s2
80000c68:	dc1ff0ef          	jal	ra,80000a28 <putch>
80000c6c:	ff9dcae3          	blt	s11,s9,80000c60 <printf+0x200>
80000c70:	00140413          	addi	s0,s0,1
80000c74:	00000793          	li	a5,0
80000c78:	01905463          	blez	s9,80000c80 <printf+0x220>
80000c7c:	fffc8793          	addi	a5,s9,-1
80000c80:	00878433          	add	s0,a5,s0
80000c84:	e60d06e3          	beqz	s10,80000af0 <printf+0x90>
80000c88:	3f0d0793          	addi	a5,s10,1008
80000c8c:	002787b3          	add	a5,a5,sp
80000c90:	c177c503          	lbu	a0,-1001(a5)
80000c94:	01aa0933          	add	s2,s4,s10
80000c98:	00c0006f          	j	80000ca4 <printf+0x244>
80000c9c:	ffe94503          	lbu	a0,-2(s2)
80000ca0:	fff90913          	addi	s2,s2,-1
80000ca4:	d85ff0ef          	jal	ra,80000a28 <putch>
80000ca8:	ff591ae3          	bne	s2,s5,80000c9c <printf+0x23c>
80000cac:	008d0433          	add	s0,s10,s0
80000cb0:	e41ff06f          	j	80000af0 <printf+0x90>
80000cb4:	00100d13          	li	s10,1
80000cb8:	41ac8cb3          	sub	s9,s9,s10
80000cbc:	00000c13          	li	s8,0
80000cc0:	0d905a63          	blez	s9,80000d94 <printf+0x334>
80000cc4:	001c0c13          	addi	s8,s8,1
80000cc8:	00090513          	mv	a0,s2
80000ccc:	d5dff0ef          	jal	ra,80000a28 <putch>
80000cd0:	ff8c9ae3          	bne	s9,s8,80000cc4 <printf+0x264>
80000cd4:	3f0d8793          	addi	a5,s11,1008
80000cd8:	00278db3          	add	s11,a5,sp
80000cdc:	c18dc503          	lbu	a0,-1000(s11)
80000ce0:	008c8433          	add	s0,s9,s0
80000ce4:	01aa0933          	add	s2,s4,s10
80000ce8:	0080006f          	j	80000cf0 <printf+0x290>
80000cec:	fff94503          	lbu	a0,-1(s2)
80000cf0:	fff90913          	addi	s2,s2,-1
80000cf4:	d35ff0ef          	jal	ra,80000a28 <putch>
80000cf8:	ff2a1ae3          	bne	s4,s2,80000cec <printf+0x28c>
80000cfc:	008d0433          	add	s0,s10,s0
80000d00:	df1ff06f          	j	80000af0 <printf+0x90>
80000d04:	03000513          	li	a0,48
80000d08:	00140413          	addi	s0,s0,1
80000d0c:	d1dff0ef          	jal	ra,80000a28 <putch>
80000d10:	de1ff06f          	j	80000af0 <printf+0x90>
80000d14:	00000d13          	li	s10,0
80000d18:	06f05a63          	blez	a5,80000d8c <printf+0x32c>
80000d1c:	00f7f693          	andi	a3,a5,15
80000d20:	001d0d13          	addi	s10,s10,1
80000d24:	01aa0633          	add	a2,s4,s10
80000d28:	4047d793          	srai	a5,a5,0x4
80000d2c:	05768513          	addi	a0,a3,87
80000d30:	00d4c463          	blt	s1,a3,80000d38 <printf+0x2d8>
80000d34:	03068513          	addi	a0,a3,48
80000d38:	fea60fa3          	sb	a0,-1(a2)
80000d3c:	fe0790e3          	bnez	a5,80000d1c <printf+0x2bc>
80000d40:	f19d4ae3          	blt	s10,s9,80000c54 <printf+0x1f4>
80000d44:	f51ff06f          	j	80000c94 <printf+0x234>
80000d48:	02d00513          	li	a0,45
80000d4c:	cddff0ef          	jal	ra,80000a28 <putch>
80000d50:	000d0413          	mv	s0,s10
80000d54:	41b007b3          	neg	a5,s11
80000d58:	00000d13          	li	s10,0
80000d5c:	00a00693          	li	a3,10
80000d60:	02d7e533          	rem	a0,a5,a3
80000d64:	000d0d93          	mv	s11,s10
80000d68:	001d0d13          	addi	s10,s10,1
80000d6c:	01aa0633          	add	a2,s4,s10
80000d70:	02d7c7b3          	div	a5,a5,a3
80000d74:	03050513          	addi	a0,a0,48
80000d78:	0ff57513          	zext.b	a0,a0
80000d7c:	fea60fa3          	sb	a0,-1(a2)
80000d80:	fe0790e3          	bnez	a5,80000d60 <printf+0x300>
80000d84:	f39d4ae3          	blt	s10,s9,80000cb8 <printf+0x258>
80000d88:	f5dff06f          	j	80000ce4 <printf+0x284>
80000d8c:	ec0c98e3          	bnez	s9,80000c5c <printf+0x1fc>
80000d90:	d61ff06f          	j	80000af0 <printf+0x90>
80000d94:	3f0d8793          	addi	a5,s11,1008
80000d98:	00278db3          	add	s11,a5,sp
80000d9c:	c18dc503          	lbu	a0,-1000(s11)
80000da0:	f45ff06f          	j	80000ce4 <printf+0x284>
80000da4:	000d8793          	mv	a5,s11
80000da8:	fb1ff06f          	j	80000d58 <printf+0x2f8>

80000dac <rand>:
80000dac:	00000697          	auipc	a3,0x0
80000db0:	2f468693          	addi	a3,a3,756 # 800010a0 <next>
80000db4:	0006a783          	lw	a5,0(a3)
80000db8:	41c65737          	lui	a4,0x41c65
80000dbc:	e6d70713          	addi	a4,a4,-403 # 41c64e6d <_entry_offset+0x41c64e6d>
80000dc0:	02e787b3          	mul	a5,a5,a4
80000dc4:	00003737          	lui	a4,0x3
80000dc8:	03970713          	addi	a4,a4,57 # 3039 <_entry_offset+0x3039>
80000dcc:	00e787b3          	add	a5,a5,a4
80000dd0:	00179513          	slli	a0,a5,0x1
80000dd4:	00f6a023          	sw	a5,0(a3)
80000dd8:	01155513          	srli	a0,a0,0x11
80000ddc:	00008067          	ret

80000de0 <memset>:
80000de0:	0ff5f593          	zext.b	a1,a1
80000de4:	00050793          	mv	a5,a0
80000de8:	00a60733          	add	a4,a2,a0
80000dec:	00060863          	beqz	a2,80000dfc <memset+0x1c>
80000df0:	00b78023          	sb	a1,0(a5)
80000df4:	00178793          	addi	a5,a5,1
80000df8:	fee79ce3          	bne	a5,a4,80000df0 <memset+0x10>
80000dfc:	00008067          	ret
