
/home/xietianle/ysyx-workbench/am-kernels/kernels/snake/build/snake-riscv32e-npc.elf:     file format elf32-littleriscv


Disassembly of section .text:

80000000 <_start>:
80000000:	00000413          	li	s0,0
80000004:	0000a117          	auipc	sp,0xa
80000008:	ffc10113          	addi	sp,sp,-4 # 8000a000 <_end>
8000000c:	009000ef          	jal	ra,80000814 <_trm_init>

80000010 <draw_tile>:
80000010:	fdc10113          	addi	sp,sp,-36
80000014:	00001697          	auipc	a3,0x1
80000018:	63868693          	addi	a3,a3,1592 # 8000164c <buf.0>
8000001c:	02112023          	sw	ra,32(sp)
80000020:	00068793          	mv	a5,a3
80000024:	00001717          	auipc	a4,0x1
80000028:	72870713          	addi	a4,a4,1832 # 8000174c <buf.0+0x100>
8000002c:	00c7a023          	sw	a2,0(a5)
80000030:	00478793          	addi	a5,a5,4
80000034:	fee79ce3          	bne	a5,a4,8000002c <draw_tile+0x1c>
80000038:	00800613          	li	a2,8
8000003c:	00359713          	slli	a4,a1,0x3
80000040:	00351793          	slli	a5,a0,0x3
80000044:	00010593          	mv	a1,sp
80000048:	00b00513          	li	a0,11
8000004c:	00e12023          	sw	a4,0(sp)
80000050:	00f12223          	sw	a5,4(sp)
80000054:	00d12423          	sw	a3,8(sp)
80000058:	00c12623          	sw	a2,12(sp)
8000005c:	00c12823          	sw	a2,16(sp)
80000060:	00010a23          	sb	zero,20(sp)
80000064:	0cd000ef          	jal	ra,80000930 <ioe_write>
80000068:	02012083          	lw	ra,32(sp)
8000006c:	02410113          	addi	sp,sp,36
80000070:	00008067          	ret

80000074 <main>:
80000074:	c6010113          	addi	sp,sp,-928
80000078:	38f10793          	addi	a5,sp,911
8000007c:	ff87f793          	andi	a5,a5,-8
80000080:	32c00613          	li	a2,812
80000084:	00000593          	li	a1,0
80000088:	05c10513          	addi	a0,sp,92
8000008c:	00f12e23          	sw	a5,28(sp)
80000090:	38112e23          	sw	ra,924(sp)
80000094:	38812c23          	sw	s0,920(sp)
80000098:	38912a23          	sw	s1,916(sp)
8000009c:	2a0010ef          	jal	ra,8000133c <memset>
800000a0:	021000ef          	jal	ra,800008c0 <ioe_init>
800000a4:	04410593          	addi	a1,sp,68
800000a8:	00900513          	li	a0,9
800000ac:	069000ef          	jal	ra,80000914 <ioe_read>
800000b0:	04410593          	addi	a1,sp,68
800000b4:	00900513          	li	a0,9
800000b8:	04c12403          	lw	s0,76(sp)
800000bc:	059000ef          	jal	ra,80000914 <ioe_read>
800000c0:	04812583          	lw	a1,72(sp)
800000c4:	41f45793          	srai	a5,s0,0x1f
800000c8:	0077f693          	andi	a3,a5,7
800000cc:	41f5d713          	srai	a4,a1,0x1f
800000d0:	00777613          	andi	a2,a4,7
800000d4:	00b60633          	add	a2,a2,a1
800000d8:	008686b3          	add	a3,a3,s0
800000dc:	40365613          	srai	a2,a2,0x3
800000e0:	4036d693          	srai	a3,a3,0x3
800000e4:	ffe68313          	addi	t1,a3,-2
800000e8:	ffe60513          	addi	a0,a2,-2
800000ec:	01f55613          	srli	a2,a0,0x1f
800000f0:	01f35693          	srli	a3,t1,0x1f
800000f4:	00f77713          	andi	a4,a4,15
800000f8:	00f7f793          	andi	a5,a5,15
800000fc:	00a60633          	add	a2,a2,a0
80000100:	00b70733          	add	a4,a4,a1
80000104:	006686b3          	add	a3,a3,t1
80000108:	008787b3          	add	a5,a5,s0
8000010c:	40165593          	srai	a1,a2,0x1
80000110:	4016d693          	srai	a3,a3,0x1
80000114:	40475713          	srai	a4,a4,0x4
80000118:	4047d793          	srai	a5,a5,0x4
8000011c:	40d787b3          	sub	a5,a5,a3
80000120:	40b70733          	sub	a4,a4,a1
80000124:	00030613          	mv	a2,t1
80000128:	fff70713          	addi	a4,a4,-1
8000012c:	fff78793          	addi	a5,a5,-1
80000130:	02a12823          	sw	a0,48(sp)
80000134:	00f12a23          	sw	a5,20(sp)
80000138:	00e50533          	add	a0,a0,a4
8000013c:	00f607b3          	add	a5,a2,a5
80000140:	02612c23          	sw	t1,56(sp)
80000144:	02f12423          	sw	a5,40(sp)
80000148:	00168313          	addi	t1,a3,1
8000014c:	06d12023          	sw	a3,96(sp)
80000150:	00178793          	addi	a5,a5,1
80000154:	00150693          	addi	a3,a0,1
80000158:	00b12023          	sw	a1,0(sp)
8000015c:	00e12823          	sw	a4,16(sp)
80000160:	00612223          	sw	t1,4(sp)
80000164:	02a12223          	sw	a0,36(sp)
80000168:	04b12e23          	sw	a1,92(sp)
8000016c:	06b12223          	sw	a1,100(sp)
80000170:	06612423          	sw	t1,104(sp)
80000174:	04d12023          	sw	a3,64(sp)
80000178:	02f12e23          	sw	a5,60(sp)
8000017c:	00001497          	auipc	s1,0x1
80000180:	5d048493          	addi	s1,s1,1488 # 8000174c <buf.0+0x100>
80000184:	0ee6ce63          	blt	a3,a4,80000280 <main+0x20c>
80000188:	01412783          	lw	a5,20(sp)
8000018c:	01012303          	lw	t1,16(sp)
80000190:	00001497          	auipc	s1,0x1
80000194:	5bc48493          	addi	s1,s1,1468 # 8000174c <buf.0+0x100>
80000198:	00379793          	slli	a5,a5,0x3
8000019c:	02f12a23          	sw	a5,52(sp)
800001a0:	03c12783          	lw	a5,60(sp)
800001a4:	00010637          	lui	a2,0x10
800001a8:	00048693          	mv	a3,s1
800001ac:	00379793          	slli	a5,a5,0x3
800001b0:	02f12623          	sw	a5,44(sp)
800001b4:	f0060413          	addi	s0,a2,-256 # ff00 <_entry_offset+0xff00>
800001b8:	00030493          	mv	s1,t1
800001bc:	00001797          	auipc	a5,0x1
800001c0:	49078793          	addi	a5,a5,1168 # 8000164c <buf.0>
800001c4:	00078613          	mv	a2,a5
800001c8:	00078713          	mv	a4,a5
800001cc:	00872023          	sw	s0,0(a4)
800001d0:	00470713          	addi	a4,a4,4
800001d4:	fed71ce3          	bne	a4,a3,800001cc <main+0x158>
800001d8:	02f12023          	sw	a5,32(sp)
800001dc:	03412783          	lw	a5,52(sp)
800001e0:	00349713          	slli	a4,s1,0x3
800001e4:	00800293          	li	t0,8
800001e8:	04410593          	addi	a1,sp,68
800001ec:	00b00513          	li	a0,11
800001f0:	00d12c23          	sw	a3,24(sp)
800001f4:	04e12223          	sw	a4,68(sp)
800001f8:	00e12623          	sw	a4,12(sp)
800001fc:	04f12423          	sw	a5,72(sp)
80000200:	04c12623          	sw	a2,76(sp)
80000204:	00c12423          	sw	a2,8(sp)
80000208:	04512823          	sw	t0,80(sp)
8000020c:	04512a23          	sw	t0,84(sp)
80000210:	04010c23          	sb	zero,88(sp)
80000214:	71c000ef          	jal	ra,80000930 <ioe_write>
80000218:	00c12703          	lw	a4,12(sp)
8000021c:	02012783          	lw	a5,32(sp)
80000220:	01812683          	lw	a3,24(sp)
80000224:	00812603          	lw	a2,8(sp)
80000228:	0087a023          	sw	s0,0(a5)
8000022c:	00478793          	addi	a5,a5,4
80000230:	fed79ce3          	bne	a5,a3,80000228 <main+0x1b4>
80000234:	04e12223          	sw	a4,68(sp)
80000238:	02c12703          	lw	a4,44(sp)
8000023c:	00800793          	li	a5,8
80000240:	04410593          	addi	a1,sp,68
80000244:	00b00513          	li	a0,11
80000248:	00d12423          	sw	a3,8(sp)
8000024c:	04e12423          	sw	a4,72(sp)
80000250:	04f12823          	sw	a5,80(sp)
80000254:	04f12a23          	sw	a5,84(sp)
80000258:	04c12623          	sw	a2,76(sp)
8000025c:	04010c23          	sb	zero,88(sp)
80000260:	6d0000ef          	jal	ra,80000930 <ioe_write>
80000264:	02412703          	lw	a4,36(sp)
80000268:	00812683          	lw	a3,8(sp)
8000026c:	00148793          	addi	a5,s1,1
80000270:	00974663          	blt	a4,s1,8000027c <main+0x208>
80000274:	00078493          	mv	s1,a5
80000278:	f45ff06f          	j	800001bc <main+0x148>
8000027c:	00068493          	mv	s1,a3
80000280:	01412303          	lw	t1,20(sp)
80000284:	03c12783          	lw	a5,60(sp)
80000288:	0e67c863          	blt	a5,t1,80000378 <main+0x304>
8000028c:	01012783          	lw	a5,16(sp)
80000290:	00010637          	lui	a2,0x10
80000294:	00048693          	mv	a3,s1
80000298:	00379793          	slli	a5,a5,0x3
8000029c:	02f12623          	sw	a5,44(sp)
800002a0:	04012783          	lw	a5,64(sp)
800002a4:	f0060413          	addi	s0,a2,-256 # ff00 <_entry_offset+0xff00>
800002a8:	00030493          	mv	s1,t1
800002ac:	00379793          	slli	a5,a5,0x3
800002b0:	02f12223          	sw	a5,36(sp)
800002b4:	00001797          	auipc	a5,0x1
800002b8:	39878793          	addi	a5,a5,920 # 8000164c <buf.0>
800002bc:	00078613          	mv	a2,a5
800002c0:	00078713          	mv	a4,a5
800002c4:	00872023          	sw	s0,0(a4)
800002c8:	00470713          	addi	a4,a4,4
800002cc:	fed71ce3          	bne	a4,a3,800002c4 <main+0x250>
800002d0:	02f12023          	sw	a5,32(sp)
800002d4:	02c12783          	lw	a5,44(sp)
800002d8:	00349713          	slli	a4,s1,0x3
800002dc:	00800293          	li	t0,8
800002e0:	04410593          	addi	a1,sp,68
800002e4:	00b00513          	li	a0,11
800002e8:	00d12c23          	sw	a3,24(sp)
800002ec:	04f12223          	sw	a5,68(sp)
800002f0:	04e12423          	sw	a4,72(sp)
800002f4:	00e12623          	sw	a4,12(sp)
800002f8:	04c12623          	sw	a2,76(sp)
800002fc:	00c12423          	sw	a2,8(sp)
80000300:	04512823          	sw	t0,80(sp)
80000304:	04512a23          	sw	t0,84(sp)
80000308:	04010c23          	sb	zero,88(sp)
8000030c:	624000ef          	jal	ra,80000930 <ioe_write>
80000310:	02012783          	lw	a5,32(sp)
80000314:	00c12703          	lw	a4,12(sp)
80000318:	01812683          	lw	a3,24(sp)
8000031c:	00812603          	lw	a2,8(sp)
80000320:	0087a023          	sw	s0,0(a5)
80000324:	00478793          	addi	a5,a5,4
80000328:	fef69ce3          	bne	a3,a5,80000320 <main+0x2ac>
8000032c:	00d12423          	sw	a3,8(sp)
80000330:	02412683          	lw	a3,36(sp)
80000334:	00800793          	li	a5,8
80000338:	04410593          	addi	a1,sp,68
8000033c:	00b00513          	li	a0,11
80000340:	04d12223          	sw	a3,68(sp)
80000344:	04e12423          	sw	a4,72(sp)
80000348:	04f12823          	sw	a5,80(sp)
8000034c:	04f12a23          	sw	a5,84(sp)
80000350:	04c12623          	sw	a2,76(sp)
80000354:	04010c23          	sb	zero,88(sp)
80000358:	5d8000ef          	jal	ra,80000930 <ioe_write>
8000035c:	02812703          	lw	a4,40(sp)
80000360:	00812683          	lw	a3,8(sp)
80000364:	00148793          	addi	a5,s1,1
80000368:	00974663          	blt	a4,s1,80000374 <main+0x300>
8000036c:	00078493          	mv	s1,a5
80000370:	f45ff06f          	j	800002b4 <main+0x240>
80000374:	00068493          	mv	s1,a3
80000378:	765000ef          	jal	ra,800012dc <rand>
8000037c:	03012583          	lw	a1,48(sp)
80000380:	698000ef          	jal	ra,80000a18 <__modsi3>
80000384:	00050413          	mv	s0,a0
80000388:	02a12623          	sw	a0,44(sp)
8000038c:	751000ef          	jal	ra,800012dc <rand>
80000390:	03812583          	lw	a1,56(sp)
80000394:	684000ef          	jal	ra,80000a18 <__modsi3>
80000398:	01012703          	lw	a4,16(sp)
8000039c:	02a12a23          	sw	a0,52(sp)
800003a0:	0ff00613          	li	a2,255
800003a4:	008705b3          	add	a1,a4,s0
800003a8:	01412703          	lw	a4,20(sp)
800003ac:	00158593          	addi	a1,a1,1
800003b0:	00a70533          	add	a0,a4,a0
800003b4:	00150513          	addi	a0,a0,1
800003b8:	c59ff0ef          	jal	ra,80000010 <draw_tile>
800003bc:	00100793          	li	a5,1
800003c0:	00f12423          	sw	a5,8(sp)
800003c4:	00200793          	li	a5,2
800003c8:	00f12623          	sw	a5,12(sp)
800003cc:	00400793          	li	a5,4
800003d0:	02f12423          	sw	a5,40(sp)
800003d4:	02912023          	sw	s1,32(sp)
800003d8:	00412703          	lw	a4,4(sp)
800003dc:	01412783          	lw	a5,20(sp)
800003e0:	00012683          	lw	a3,0(sp)
800003e4:	02012483          	lw	s1,32(sp)
800003e8:	00e787b3          	add	a5,a5,a4
800003ec:	01012703          	lw	a4,16(sp)
800003f0:	00001417          	auipc	s0,0x1
800003f4:	25c40413          	addi	s0,s0,604 # 8000164c <buf.0>
800003f8:	00178613          	addi	a2,a5,1
800003fc:	00d706b3          	add	a3,a4,a3
80000400:	00168593          	addi	a1,a3,1
80000404:	00040713          	mv	a4,s0
80000408:	00040793          	mv	a5,s0
8000040c:	00ff06b7          	lui	a3,0xff0
80000410:	00d7a023          	sw	a3,0(a5)
80000414:	00478793          	addi	a5,a5,4
80000418:	fe979ce3          	bne	a5,s1,80000410 <main+0x39c>
8000041c:	00361793          	slli	a5,a2,0x3
80000420:	00359693          	slli	a3,a1,0x3
80000424:	00800613          	li	a2,8
80000428:	04410593          	addi	a1,sp,68
8000042c:	00b00513          	li	a0,11
80000430:	04f12423          	sw	a5,72(sp)
80000434:	04e12623          	sw	a4,76(sp)
80000438:	00e12c23          	sw	a4,24(sp)
8000043c:	04d12223          	sw	a3,68(sp)
80000440:	04c12823          	sw	a2,80(sp)
80000444:	04c12a23          	sw	a2,84(sp)
80000448:	04010c23          	sb	zero,88(sp)
8000044c:	4e4000ef          	jal	ra,80000930 <ioe_write>
80000450:	00c12703          	lw	a4,12(sp)
80000454:	00812783          	lw	a5,8(sp)
80000458:	40e787b3          	sub	a5,a5,a4
8000045c:	01812703          	lw	a4,24(sp)
80000460:	0007d463          	bgez	a5,80000468 <main+0x3f4>
80000464:	06478793          	addi	a5,a5,100
80000468:	00379793          	slli	a5,a5,0x3
8000046c:	04410693          	addi	a3,sp,68
80000470:	35078793          	addi	a5,a5,848
80000474:	00d787b3          	add	a5,a5,a3
80000478:	ccc7a683          	lw	a3,-820(a5)
8000047c:	cc87a603          	lw	a2,-824(a5)
80000480:	01412783          	lw	a5,20(sp)
80000484:	02012483          	lw	s1,32(sp)
80000488:	00d787b3          	add	a5,a5,a3
8000048c:	01012683          	lw	a3,16(sp)
80000490:	00178793          	addi	a5,a5,1
80000494:	00c686b3          	add	a3,a3,a2
80000498:	00168693          	addi	a3,a3,1 # ff0001 <_entry_offset+0xff0001>
8000049c:	00042023          	sw	zero,0(s0)
800004a0:	00440413          	addi	s0,s0,4
800004a4:	fe849ce3          	bne	s1,s0,8000049c <main+0x428>
800004a8:	00800613          	li	a2,8
800004ac:	00369693          	slli	a3,a3,0x3
800004b0:	00379793          	slli	a5,a5,0x3
800004b4:	04410593          	addi	a1,sp,68
800004b8:	00b00513          	li	a0,11
800004bc:	04d12223          	sw	a3,68(sp)
800004c0:	04f12423          	sw	a5,72(sp)
800004c4:	04e12623          	sw	a4,76(sp)
800004c8:	04c12823          	sw	a2,80(sp)
800004cc:	04c12a23          	sw	a2,84(sp)
800004d0:	04010c23          	sb	zero,88(sp)
800004d4:	45c000ef          	jal	ra,80000930 <ioe_write>
800004d8:	0080006f          	j	800004e0 <main+0x46c>
800004dc:	28078c63          	beqz	a5,80000774 <main+0x700>
800004e0:	04410593          	addi	a1,sp,68
800004e4:	00800513          	li	a0,8
800004e8:	42c000ef          	jal	ra,80000914 <ioe_read>
800004ec:	04414703          	lbu	a4,68(sp)
800004f0:	04812783          	lw	a5,72(sp)
800004f4:	fe0704e3          	beqz	a4,800004dc <main+0x468>
800004f8:	fb778693          	addi	a3,a5,-73
800004fc:	00300613          	li	a2,3
80000500:	26d66a63          	bltu	a2,a3,80000774 <main+0x700>
80000504:	fb878793          	addi	a5,a5,-72
80000508:	2cc78063          	beq	a5,a2,800007c8 <main+0x754>
8000050c:	00400693          	li	a3,4
80000510:	28d78c63          	beq	a5,a3,800007a8 <main+0x734>
80000514:	00200693          	li	a3,2
80000518:	2cd78a63          	beq	a5,a3,800007ec <main+0x778>
8000051c:	02812783          	lw	a5,40(sp)
80000520:	26d78863          	beq	a5,a3,80000790 <main+0x71c>
80000524:	00412783          	lw	a5,4(sp)
80000528:	fff78793          	addi	a5,a5,-1
8000052c:	00f12223          	sw	a5,4(sp)
80000530:	00100793          	li	a5,1
80000534:	02f12423          	sw	a5,40(sp)
80000538:	00812783          	lw	a5,8(sp)
8000053c:	04410693          	addi	a3,sp,68
80000540:	00012503          	lw	a0,0(sp)
80000544:	00178713          	addi	a4,a5,1
80000548:	f9d78793          	addi	a5,a5,-99
8000054c:	00f037b3          	snez	a5,a5
80000550:	40f007b3          	neg	a5,a5
80000554:	00f77733          	and	a4,a4,a5
80000558:	00371793          	slli	a5,a4,0x3
8000055c:	35078793          	addi	a5,a5,848
80000560:	00d787b3          	add	a5,a5,a3
80000564:	00412683          	lw	a3,4(sp)
80000568:	00100613          	li	a2,1
8000056c:	cca7a423          	sw	a0,-824(a5)
80000570:	ccd7a623          	sw	a3,-820(a5)
80000574:	00e12423          	sw	a4,8(sp)
80000578:	fff00793          	li	a5,-1
8000057c:	00c12c23          	sw	a2,24(sp)
80000580:	04f50e63          	beq	a0,a5,800005dc <main+0x568>
80000584:	03012603          	lw	a2,48(sp)
80000588:	04a60a63          	beq	a2,a0,800005dc <main+0x568>
8000058c:	00068293          	mv	t0,a3
80000590:	04f68663          	beq	a3,a5,800005dc <main+0x568>
80000594:	03812783          	lw	a5,56(sp)
80000598:	04d78263          	beq	a5,a3,800005dc <main+0x568>
8000059c:	00c12303          	lw	t1,12(sp)
800005a0:	fff70693          	addi	a3,a4,-1
800005a4:	00070593          	mv	a1,a4
800005a8:	00068793          	mv	a5,a3
800005ac:	0006d463          	bgez	a3,800005b4 <main+0x540>
800005b0:	06468793          	addi	a5,a3,100
800005b4:	00379793          	slli	a5,a5,0x3
800005b8:	04410713          	addi	a4,sp,68
800005bc:	35078793          	addi	a5,a5,848
800005c0:	00e787b3          	add	a5,a5,a4
800005c4:	cc87a703          	lw	a4,-824(a5)
800005c8:	fff68693          	addi	a3,a3,-1
800005cc:	40d58633          	sub	a2,a1,a3
800005d0:	12a70463          	beq	a4,a0,800006f8 <main+0x684>
800005d4:	fcc31ae3          	bne	t1,a2,800005a8 <main+0x534>
800005d8:	00012c23          	sw	zero,24(sp)
800005dc:	02c12783          	lw	a5,44(sp)
800005e0:	00012703          	lw	a4,0(sp)
800005e4:	12e78863          	beq	a5,a4,80000714 <main+0x6a0>
800005e8:	00100793          	li	a5,1
800005ec:	00b00513          	li	a0,11
800005f0:	04410593          	addi	a1,sp,68
800005f4:	04f10c23          	sb	a5,88(sp)
800005f8:	04012223          	sw	zero,68(sp)
800005fc:	04012423          	sw	zero,72(sp)
80000600:	04012623          	sw	zero,76(sp)
80000604:	04012823          	sw	zero,80(sp)
80000608:	04012a23          	sw	zero,84(sp)
8000060c:	324000ef          	jal	ra,80000930 <ioe_write>
80000610:	01c12403          	lw	s0,28(sp)
80000614:	00600513          	li	a0,6
80000618:	00040593          	mv	a1,s0
8000061c:	2f8000ef          	jal	ra,80000914 <ioe_read>
80000620:	00c12703          	lw	a4,12(sp)
80000624:	fffe96b7          	lui	a3,0xfffe9
80000628:	ce868693          	addi	a3,a3,-792 # fffe8ce8 <_end+0x7ffdece8>
8000062c:	00271793          	slli	a5,a4,0x2
80000630:	00e787b3          	add	a5,a5,a4
80000634:	00379793          	slli	a5,a5,0x3
80000638:	40e787b3          	sub	a5,a5,a4
8000063c:	00479793          	slli	a5,a5,0x4
80000640:	00e787b3          	add	a5,a5,a4
80000644:	00379793          	slli	a5,a5,0x3
80000648:	40f007b3          	neg	a5,a5
8000064c:	00042703          	lw	a4,0(s0)
80000650:	00442603          	lw	a2,4(s0)
80000654:	00d7d463          	bge	a5,a3,8000065c <main+0x5e8>
80000658:	00068793          	mv	a5,a3
8000065c:	000186b7          	lui	a3,0x18
80000660:	6a068693          	addi	a3,a3,1696 # 186a0 <_entry_offset+0x186a0>
80000664:	00d787b3          	add	a5,a5,a3
80000668:	41f7d693          	srai	a3,a5,0x1f
8000066c:	00e78733          	add	a4,a5,a4
80000670:	00f737b3          	sltu	a5,a4,a5
80000674:	00c686b3          	add	a3,a3,a2
80000678:	00d78433          	add	s0,a5,a3
8000067c:	00040493          	mv	s1,s0
80000680:	01c12403          	lw	s0,28(sp)
80000684:	02e12223          	sw	a4,36(sp)
80000688:	00040593          	mv	a1,s0
8000068c:	00600513          	li	a0,6
80000690:	284000ef          	jal	ra,80000914 <ioe_read>
80000694:	00442783          	lw	a5,4(s0)
80000698:	00042683          	lw	a3,0(s0)
8000069c:	fe97e6e3          	bltu	a5,s1,80000688 <main+0x614>
800006a0:	00f49663          	bne	s1,a5,800006ac <main+0x638>
800006a4:	02412783          	lw	a5,36(sp)
800006a8:	fef6e0e3          	bltu	a3,a5,80000688 <main+0x614>
800006ac:	01812783          	lw	a5,24(sp)
800006b0:	d20784e3          	beqz	a5,800003d8 <main+0x364>
800006b4:	00001517          	auipc	a0,0x1
800006b8:	ca850513          	addi	a0,a0,-856 # 8000135c <_etext>
800006bc:	38c000ef          	jal	ra,80000a48 <printf>
800006c0:	01d00413          	li	s0,29
800006c4:	04410593          	addi	a1,sp,68
800006c8:	00800513          	li	a0,8
800006cc:	248000ef          	jal	ra,80000914 <ioe_read>
800006d0:	04414783          	lbu	a5,68(sp)
800006d4:	04812703          	lw	a4,72(sp)
800006d8:	fe0786e3          	beqz	a5,800006c4 <main+0x650>
800006dc:	fe8714e3          	bne	a4,s0,800006c4 <main+0x650>
800006e0:	39c12083          	lw	ra,924(sp)
800006e4:	39812403          	lw	s0,920(sp)
800006e8:	39412483          	lw	s1,916(sp)
800006ec:	00000513          	li	a0,0
800006f0:	3a010113          	addi	sp,sp,928
800006f4:	00008067          	ret
800006f8:	ccc7a783          	lw	a5,-820(a5)
800006fc:	ec579ce3          	bne	a5,t0,800005d4 <main+0x560>
80000700:	00100793          	li	a5,1
80000704:	00f12c23          	sw	a5,24(sp)
80000708:	00012703          	lw	a4,0(sp)
8000070c:	02c12783          	lw	a5,44(sp)
80000710:	ece79ce3          	bne	a5,a4,800005e8 <main+0x574>
80000714:	00412783          	lw	a5,4(sp)
80000718:	03412703          	lw	a4,52(sp)
8000071c:	ece796e3          	bne	a5,a4,800005e8 <main+0x574>
80000720:	3bd000ef          	jal	ra,800012dc <rand>
80000724:	03012583          	lw	a1,48(sp)
80000728:	2f0000ef          	jal	ra,80000a18 <__modsi3>
8000072c:	00050413          	mv	s0,a0
80000730:	02a12623          	sw	a0,44(sp)
80000734:	3a9000ef          	jal	ra,800012dc <rand>
80000738:	03812583          	lw	a1,56(sp)
8000073c:	2dc000ef          	jal	ra,80000a18 <__modsi3>
80000740:	01012703          	lw	a4,16(sp)
80000744:	00c12783          	lw	a5,12(sp)
80000748:	02a12a23          	sw	a0,52(sp)
8000074c:	008705b3          	add	a1,a4,s0
80000750:	01412703          	lw	a4,20(sp)
80000754:	00178793          	addi	a5,a5,1
80000758:	0ff00613          	li	a2,255
8000075c:	00a70533          	add	a0,a4,a0
80000760:	00158593          	addi	a1,a1,1
80000764:	00150513          	addi	a0,a0,1
80000768:	00f12623          	sw	a5,12(sp)
8000076c:	8a5ff0ef          	jal	ra,80000010 <draw_tile>
80000770:	e79ff06f          	j	800005e8 <main+0x574>
80000774:	02812703          	lw	a4,40(sp)
80000778:	00300793          	li	a5,3
8000077c:	04f70c63          	beq	a4,a5,800007d4 <main+0x760>
80000780:	00400793          	li	a5,4
80000784:	02f70663          	beq	a4,a5,800007b0 <main+0x73c>
80000788:	00200793          	li	a5,2
8000078c:	d8f71ce3          	bne	a4,a5,80000524 <main+0x4b0>
80000790:	00412783          	lw	a5,4(sp)
80000794:	00178793          	addi	a5,a5,1
80000798:	00f12223          	sw	a5,4(sp)
8000079c:	00200793          	li	a5,2
800007a0:	02f12423          	sw	a5,40(sp)
800007a4:	d95ff06f          	j	80000538 <main+0x4c4>
800007a8:	02812783          	lw	a5,40(sp)
800007ac:	02c78463          	beq	a5,a2,800007d4 <main+0x760>
800007b0:	00012783          	lw	a5,0(sp)
800007b4:	00178793          	addi	a5,a5,1
800007b8:	00f12023          	sw	a5,0(sp)
800007bc:	00400793          	li	a5,4
800007c0:	02f12423          	sw	a5,40(sp)
800007c4:	d75ff06f          	j	80000538 <main+0x4c4>
800007c8:	02812703          	lw	a4,40(sp)
800007cc:	00400793          	li	a5,4
800007d0:	fef700e3          	beq	a4,a5,800007b0 <main+0x73c>
800007d4:	00012783          	lw	a5,0(sp)
800007d8:	fff78793          	addi	a5,a5,-1
800007dc:	00f12023          	sw	a5,0(sp)
800007e0:	00300793          	li	a5,3
800007e4:	02f12423          	sw	a5,40(sp)
800007e8:	d51ff06f          	j	80000538 <main+0x4c4>
800007ec:	02812703          	lw	a4,40(sp)
800007f0:	00100793          	li	a5,1
800007f4:	f8f71ee3          	bne	a4,a5,80000790 <main+0x71c>
800007f8:	d2dff06f          	j	80000524 <main+0x4b0>

800007fc <putch>:
800007fc:	a00007b7          	lui	a5,0xa0000
80000800:	3ea78c23          	sb	a0,1016(a5) # a00003f8 <_end+0x1fff63f8>
80000804:	00008067          	ret

80000808 <halt>:
80000808:	00050513          	mv	a0,a0
8000080c:	00100073          	ebreak
80000810:	0000006f          	j	80000810 <halt+0x8>

80000814 <_trm_init>:
80000814:	ff410113          	addi	sp,sp,-12
80000818:	00001517          	auipc	a0,0x1
8000081c:	c2c50513          	addi	a0,a0,-980 # 80001444 <mainargs>
80000820:	00112423          	sw	ra,8(sp)
80000824:	851ff0ef          	jal	ra,80000074 <main>
80000828:	00050513          	mv	a0,a0
8000082c:	00100073          	ebreak
80000830:	0000006f          	j	80000830 <_trm_init+0x1c>

80000834 <__am_timer_config>:
80000834:	00100793          	li	a5,1
80000838:	00f50023          	sb	a5,0(a0)
8000083c:	00f500a3          	sb	a5,1(a0)
80000840:	00008067          	ret

80000844 <__am_input_config>:
80000844:	00100793          	li	a5,1
80000848:	00f50023          	sb	a5,0(a0)
8000084c:	00008067          	ret

80000850 <__am_uart_config>:
80000850:	00050023          	sb	zero,0(a0)
80000854:	00008067          	ret

80000858 <fail>:
80000858:	ff410113          	addi	sp,sp,-12
8000085c:	00812223          	sw	s0,4(sp)
80000860:	00112423          	sw	ra,8(sp)
80000864:	00001417          	auipc	s0,0x1
80000868:	b1440413          	addi	s0,s0,-1260 # 80001378 <_etext+0x1c>
8000086c:	04100513          	li	a0,65
80000870:	00140413          	addi	s0,s0,1
80000874:	f89ff0ef          	jal	ra,800007fc <putch>
80000878:	00044503          	lbu	a0,0(s0)
8000087c:	fe051ae3          	bnez	a0,80000870 <fail+0x18>
80000880:	00001417          	auipc	s0,0x1
80000884:	b0440413          	addi	s0,s0,-1276 # 80001384 <_etext+0x28>
80000888:	06100513          	li	a0,97
8000088c:	00140413          	addi	s0,s0,1
80000890:	f6dff0ef          	jal	ra,800007fc <putch>
80000894:	00044503          	lbu	a0,0(s0)
80000898:	fe051ae3          	bnez	a0,8000088c <fail+0x34>
8000089c:	00001417          	auipc	s0,0x1
800008a0:	b0440413          	addi	s0,s0,-1276 # 800013a0 <_etext+0x44>
800008a4:	02000513          	li	a0,32
800008a8:	00140413          	addi	s0,s0,1
800008ac:	f51ff0ef          	jal	ra,800007fc <putch>
800008b0:	00044503          	lbu	a0,0(s0)
800008b4:	fe051ae3          	bnez	a0,800008a8 <fail+0x50>
800008b8:	00100513          	li	a0,1
800008bc:	f4dff0ef          	jal	ra,80000808 <halt>

800008c0 <ioe_init>:
800008c0:	ff410113          	addi	sp,sp,-12
800008c4:	00112423          	sw	ra,8(sp)
800008c8:	00001797          	auipc	a5,0x1
800008cc:	b8078793          	addi	a5,a5,-1152 # 80001448 <lut>
800008d0:	00001697          	auipc	a3,0x1
800008d4:	d7868693          	addi	a3,a3,-648 # 80001648 <next>
800008d8:	00000617          	auipc	a2,0x0
800008dc:	f8060613          	addi	a2,a2,-128 # 80000858 <fail>
800008e0:	00c0006f          	j	800008ec <ioe_init+0x2c>
800008e4:	00478793          	addi	a5,a5,4
800008e8:	00d78c63          	beq	a5,a3,80000900 <ioe_init+0x40>
800008ec:	0007a703          	lw	a4,0(a5)
800008f0:	fe071ae3          	bnez	a4,800008e4 <ioe_init+0x24>
800008f4:	00c7a023          	sw	a2,0(a5)
800008f8:	00478793          	addi	a5,a5,4
800008fc:	fed798e3          	bne	a5,a3,800008ec <ioe_init+0x2c>
80000900:	04c000ef          	jal	ra,8000094c <__am_timer_init>
80000904:	00812083          	lw	ra,8(sp)
80000908:	00100513          	li	a0,1
8000090c:	00c10113          	addi	sp,sp,12
80000910:	00008067          	ret

80000914 <ioe_read>:
80000914:	00251513          	slli	a0,a0,0x2
80000918:	00001797          	auipc	a5,0x1
8000091c:	b3078793          	addi	a5,a5,-1232 # 80001448 <lut>
80000920:	00a787b3          	add	a5,a5,a0
80000924:	0007a783          	lw	a5,0(a5)
80000928:	00058513          	mv	a0,a1
8000092c:	00078067          	jr	a5

80000930 <ioe_write>:
80000930:	00251513          	slli	a0,a0,0x2
80000934:	00001797          	auipc	a5,0x1
80000938:	b1478793          	addi	a5,a5,-1260 # 80001448 <lut>
8000093c:	00a787b3          	add	a5,a5,a0
80000940:	0007a783          	lw	a5,0(a5)
80000944:	00058513          	mv	a0,a1
80000948:	00078067          	jr	a5

8000094c <__am_timer_init>:
8000094c:	00008067          	ret

80000950 <__am_timer_uptime>:
80000950:	a00007b7          	lui	a5,0xa0000
80000954:	0487a703          	lw	a4,72(a5) # a0000048 <_end+0x1fff6048>
80000958:	04c7a783          	lw	a5,76(a5)
8000095c:	00e52023          	sw	a4,0(a0)
80000960:	00f52223          	sw	a5,4(a0)
80000964:	00008067          	ret

80000968 <__am_timer_rtc>:
80000968:	76c00793          	li	a5,1900
8000096c:	00052a23          	sw	zero,20(a0)
80000970:	00052823          	sw	zero,16(a0)
80000974:	00052623          	sw	zero,12(a0)
80000978:	00052423          	sw	zero,8(a0)
8000097c:	00052223          	sw	zero,4(a0)
80000980:	00f52023          	sw	a5,0(a0)
80000984:	00008067          	ret

80000988 <__am_input_keybrd>:
80000988:	00050023          	sb	zero,0(a0)
8000098c:	00052223          	sw	zero,4(a0)
80000990:	00008067          	ret

80000994 <__divsi3>:
80000994:	06054063          	bltz	a0,800009f4 <__umodsi3+0x10>
80000998:	0605c663          	bltz	a1,80000a04 <__umodsi3+0x20>

8000099c <__hidden___udivsi3>:
8000099c:	00058613          	mv	a2,a1
800009a0:	00050593          	mv	a1,a0
800009a4:	fff00513          	li	a0,-1
800009a8:	02060c63          	beqz	a2,800009e0 <__hidden___udivsi3+0x44>
800009ac:	00100693          	li	a3,1
800009b0:	00b67a63          	bgeu	a2,a1,800009c4 <__hidden___udivsi3+0x28>
800009b4:	00c05863          	blez	a2,800009c4 <__hidden___udivsi3+0x28>
800009b8:	00161613          	slli	a2,a2,0x1
800009bc:	00169693          	slli	a3,a3,0x1
800009c0:	feb66ae3          	bltu	a2,a1,800009b4 <__hidden___udivsi3+0x18>
800009c4:	00000513          	li	a0,0
800009c8:	00c5e663          	bltu	a1,a2,800009d4 <__hidden___udivsi3+0x38>
800009cc:	40c585b3          	sub	a1,a1,a2
800009d0:	00d56533          	or	a0,a0,a3
800009d4:	0016d693          	srli	a3,a3,0x1
800009d8:	00165613          	srli	a2,a2,0x1
800009dc:	fe0696e3          	bnez	a3,800009c8 <__hidden___udivsi3+0x2c>
800009e0:	00008067          	ret

800009e4 <__umodsi3>:
800009e4:	00008293          	mv	t0,ra
800009e8:	fb5ff0ef          	jal	ra,8000099c <__hidden___udivsi3>
800009ec:	00058513          	mv	a0,a1
800009f0:	00028067          	jr	t0
800009f4:	40a00533          	neg	a0,a0
800009f8:	00b04863          	bgtz	a1,80000a08 <__umodsi3+0x24>
800009fc:	40b005b3          	neg	a1,a1
80000a00:	f9dff06f          	j	8000099c <__hidden___udivsi3>
80000a04:	40b005b3          	neg	a1,a1
80000a08:	00008293          	mv	t0,ra
80000a0c:	f91ff0ef          	jal	ra,8000099c <__hidden___udivsi3>
80000a10:	40a00533          	neg	a0,a0
80000a14:	00028067          	jr	t0

80000a18 <__modsi3>:
80000a18:	00008293          	mv	t0,ra
80000a1c:	0005ca63          	bltz	a1,80000a30 <__modsi3+0x18>
80000a20:	00054c63          	bltz	a0,80000a38 <__modsi3+0x20>
80000a24:	f79ff0ef          	jal	ra,8000099c <__hidden___udivsi3>
80000a28:	00058513          	mv	a0,a1
80000a2c:	00028067          	jr	t0
80000a30:	40b005b3          	neg	a1,a1
80000a34:	fe0558e3          	bgez	a0,80000a24 <__modsi3+0xc>
80000a38:	40a00533          	neg	a0,a0
80000a3c:	f61ff0ef          	jal	ra,8000099c <__hidden___udivsi3>
80000a40:	40b00533          	neg	a0,a1
80000a44:	00028067          	jr	t0

80000a48 <printf>:
80000a48:	bd010113          	addi	sp,sp,-1072
80000a4c:	40812a23          	sw	s0,1044(sp)
80000a50:	42f12623          	sw	a5,1068(sp)
80000a54:	40112c23          	sw	ra,1048(sp)
80000a58:	40912823          	sw	s1,1040(sp)
80000a5c:	40b12e23          	sw	a1,1052(sp)
80000a60:	42c12023          	sw	a2,1056(sp)
80000a64:	42d12223          	sw	a3,1060(sp)
80000a68:	42e12423          	sw	a4,1064(sp)
80000a6c:	00050413          	mv	s0,a0
80000a70:	00054503          	lbu	a0,0(a0)
80000a74:	41c10793          	addi	a5,sp,1052
80000a78:	02f12223          	sw	a5,36(sp)
80000a7c:	00012023          	sw	zero,0(sp)
80000a80:	0c050c63          	beqz	a0,80000b58 <printf+0x110>
80000a84:	00040713          	mv	a4,s0
80000a88:	02c0006f          	j	80000ab4 <printf+0x6c>
80000a8c:	00070413          	mv	s0,a4
80000a90:	d6dff0ef          	jal	ra,800007fc <putch>
80000a94:	00012783          	lw	a5,0(sp)
80000a98:	00178793          	addi	a5,a5,1
80000a9c:	00f12023          	sw	a5,0(sp)
80000aa0:	00140793          	addi	a5,s0,1
80000aa4:	00f12223          	sw	a5,4(sp)
80000aa8:	00144503          	lbu	a0,1(s0)
80000aac:	00412703          	lw	a4,4(sp)
80000ab0:	0a050463          	beqz	a0,80000b58 <printf+0x110>
80000ab4:	02500793          	li	a5,37
80000ab8:	fcf51ae3          	bne	a0,a5,80000a8c <printf+0x44>
80000abc:	00174683          	lbu	a3,1(a4)
80000ac0:	02000613          	li	a2,32
80000ac4:	03000793          	li	a5,48
80000ac8:	00c12623          	sw	a2,12(sp)
80000acc:	00170413          	addi	s0,a4,1
80000ad0:	00f69863          	bne	a3,a5,80000ae0 <printf+0x98>
80000ad4:	00274683          	lbu	a3,2(a4)
80000ad8:	00270413          	addi	s0,a4,2
80000adc:	00f12623          	sw	a5,12(sp)
80000ae0:	fd068613          	addi	a2,a3,-48
80000ae4:	00000793          	li	a5,0
80000ae8:	0ff67313          	zext.b	t1,a2
80000aec:	00900593          	li	a1,9
80000af0:	00900513          	li	a0,9
80000af4:	00078713          	mv	a4,a5
80000af8:	0265e663          	bltu	a1,t1,80000b24 <printf+0xdc>
80000afc:	00144683          	lbu	a3,1(s0)
80000b00:	00271793          	slli	a5,a4,0x2
80000b04:	00e787b3          	add	a5,a5,a4
80000b08:	00179793          	slli	a5,a5,0x1
80000b0c:	00f60733          	add	a4,a2,a5
80000b10:	fd068613          	addi	a2,a3,-48
80000b14:	0ff67793          	zext.b	a5,a2
80000b18:	00140413          	addi	s0,s0,1
80000b1c:	fef570e3          	bgeu	a0,a5,80000afc <printf+0xb4>
80000b20:	00070793          	mv	a5,a4
80000b24:	f9c68693          	addi	a3,a3,-100
80000b28:	00140713          	addi	a4,s0,1
80000b2c:	0ff6f693          	zext.b	a3,a3
80000b30:	01400613          	li	a2,20
80000b34:	00e12223          	sw	a4,4(sp)
80000b38:	02d66c63          	bltu	a2,a3,80000b70 <printf+0x128>
80000b3c:	00001717          	auipc	a4,0x1
80000b40:	8b470713          	addi	a4,a4,-1868 # 800013f0 <_etext+0x94>
80000b44:	00269693          	slli	a3,a3,0x2
80000b48:	00e686b3          	add	a3,a3,a4
80000b4c:	0006a683          	lw	a3,0(a3)
80000b50:	00e686b3          	add	a3,a3,a4
80000b54:	00068067          	jr	a3
80000b58:	41812083          	lw	ra,1048(sp)
80000b5c:	41412403          	lw	s0,1044(sp)
80000b60:	00012503          	lw	a0,0(sp)
80000b64:	41012483          	lw	s1,1040(sp)
80000b68:	43010113          	addi	sp,sp,1072
80000b6c:	00008067          	ret
80000b70:	02500513          	li	a0,37
80000b74:	c89ff0ef          	jal	ra,800007fc <putch>
80000b78:	00012783          	lw	a5,0(sp)
80000b7c:	00044503          	lbu	a0,0(s0)
80000b80:	00278793          	addi	a5,a5,2
80000b84:	00f12023          	sw	a5,0(sp)
80000b88:	c75ff0ef          	jal	ra,800007fc <putch>
80000b8c:	f1dff06f          	j	80000aa8 <printf+0x60>
80000b90:	02412603          	lw	a2,36(sp)
80000b94:	00062683          	lw	a3,0(a2)
80000b98:	00460613          	addi	a2,a2,4
80000b9c:	02c12223          	sw	a2,36(sp)
80000ba0:	32069663          	bnez	a3,80000ecc <printf+0x484>
80000ba4:	03000693          	li	a3,48
80000ba8:	02d10423          	sb	a3,40(sp)
80000bac:	00100693          	li	a3,1
80000bb0:	28f6d263          	bge	a3,a5,80000e34 <printf+0x3ec>
80000bb4:	00100713          	li	a4,1
80000bb8:	00e12a23          	sw	a4,20(sp)
80000bbc:	01412703          	lw	a4,20(sp)
80000bc0:	40e787b3          	sub	a5,a5,a4
80000bc4:	6af05c63          	blez	a5,8000127c <printf+0x834>
80000bc8:	00000493          	li	s1,0
80000bcc:	00812823          	sw	s0,16(sp)
80000bd0:	00048413          	mv	s0,s1
80000bd4:	00c12483          	lw	s1,12(sp)
80000bd8:	00f12423          	sw	a5,8(sp)
80000bdc:	00048513          	mv	a0,s1
80000be0:	c1dff0ef          	jal	ra,800007fc <putch>
80000be4:	00812783          	lw	a5,8(sp)
80000be8:	00140413          	addi	s0,s0,1
80000bec:	fef448e3          	blt	s0,a5,80000bdc <printf+0x194>
80000bf0:	00012703          	lw	a4,0(sp)
80000bf4:	00812783          	lw	a5,8(sp)
80000bf8:	01012403          	lw	s0,16(sp)
80000bfc:	00170613          	addi	a2,a4,1
80000c00:	00000693          	li	a3,0
80000c04:	00f05463          	blez	a5,80000c0c <printf+0x1c4>
80000c08:	fff78693          	addi	a3,a5,-1
80000c0c:	00c687b3          	add	a5,a3,a2
80000c10:	00f12023          	sw	a5,0(sp)
80000c14:	01412783          	lw	a5,20(sp)
80000c18:	e80788e3          	beqz	a5,80000aa8 <printf+0x60>
80000c1c:	3ec78793          	addi	a5,a5,1004
80000c20:	02410713          	addi	a4,sp,36
80000c24:	00e787b3          	add	a5,a5,a4
80000c28:	c177c503          	lbu	a0,-1001(a5)
80000c2c:	02810793          	addi	a5,sp,40
80000c30:	00f12823          	sw	a5,16(sp)
80000c34:	01012783          	lw	a5,16(sp)
80000c38:	01412703          	lw	a4,20(sp)
80000c3c:	00e784b3          	add	s1,a5,a4
80000c40:	00c0006f          	j	80000c4c <printf+0x204>
80000c44:	ffe4c503          	lbu	a0,-2(s1)
80000c48:	fff48493          	addi	s1,s1,-1
80000c4c:	bb1ff0ef          	jal	ra,800007fc <putch>
80000c50:	02910793          	addi	a5,sp,41
80000c54:	fe9798e3          	bne	a5,s1,80000c44 <printf+0x1fc>
80000c58:	00012703          	lw	a4,0(sp)
80000c5c:	01412783          	lw	a5,20(sp)
80000c60:	00e787b3          	add	a5,a5,a4
80000c64:	00f12023          	sw	a5,0(sp)
80000c68:	e41ff06f          	j	80000aa8 <printf+0x60>
80000c6c:	02412783          	lw	a5,36(sp)
80000c70:	0007a703          	lw	a4,0(a5)
80000c74:	00478793          	addi	a5,a5,4
80000c78:	02f12223          	sw	a5,36(sp)
80000c7c:	00074503          	lbu	a0,0(a4)
80000c80:	00e12423          	sw	a4,8(sp)
80000c84:	e20502e3          	beqz	a0,80000aa8 <printf+0x60>
80000c88:	00012783          	lw	a5,0(sp)
80000c8c:	00812023          	sw	s0,0(sp)
80000c90:	00078493          	mv	s1,a5
80000c94:	00078413          	mv	s0,a5
80000c98:	b65ff0ef          	jal	ra,800007fc <putch>
80000c9c:	00812703          	lw	a4,8(sp)
80000ca0:	00140413          	addi	s0,s0,1
80000ca4:	409407b3          	sub	a5,s0,s1
80000ca8:	00f707b3          	add	a5,a4,a5
80000cac:	0007c503          	lbu	a0,0(a5)
80000cb0:	fe0514e3          	bnez	a0,80000c98 <printf+0x250>
80000cb4:	00040493          	mv	s1,s0
80000cb8:	00012403          	lw	s0,0(sp)
80000cbc:	00912023          	sw	s1,0(sp)
80000cc0:	de9ff06f          	j	80000aa8 <printf+0x60>
80000cc4:	02412783          	lw	a5,36(sp)
80000cc8:	03000513          	li	a0,48
80000ccc:	0007a483          	lw	s1,0(a5)
80000cd0:	00478793          	addi	a5,a5,4
80000cd4:	02f12223          	sw	a5,36(sp)
80000cd8:	b25ff0ef          	jal	ra,800007fc <putch>
80000cdc:	07800513          	li	a0,120
80000ce0:	b1dff0ef          	jal	ra,800007fc <putch>
80000ce4:	16049463          	bnez	s1,80000e4c <printf+0x404>
80000ce8:	03000793          	li	a5,48
80000cec:	02f10423          	sb	a5,40(sp)
80000cf0:	00012783          	lw	a5,0(sp)
80000cf4:	03000513          	li	a0,48
80000cf8:	00378793          	addi	a5,a5,3
80000cfc:	00f12023          	sw	a5,0(sp)
80000d00:	afdff0ef          	jal	ra,800007fc <putch>
80000d04:	da5ff06f          	j	80000aa8 <printf+0x60>
80000d08:	00144703          	lbu	a4,1(s0)
80000d0c:	06400693          	li	a3,100
80000d10:	28d70c63          	beq	a4,a3,80000fa8 <printf+0x560>
80000d14:	07800693          	li	a3,120
80000d18:	2ed70463          	beq	a4,a3,80001000 <printf+0x5b8>
80000d1c:	00412783          	lw	a5,4(sp)
80000d20:	00078413          	mv	s0,a5
80000d24:	00178793          	addi	a5,a5,1
80000d28:	00f12223          	sw	a5,4(sp)
80000d2c:	d7dff06f          	j	80000aa8 <printf+0x60>
80000d30:	02412683          	lw	a3,36(sp)
80000d34:	00012703          	lw	a4,0(sp)
80000d38:	00468693          	addi	a3,a3,4
80000d3c:	00170613          	addi	a2,a4,1
80000d40:	ffc6a703          	lw	a4,-4(a3)
80000d44:	02d12223          	sw	a3,36(sp)
80000d48:	00e12a23          	sw	a4,20(sp)
80000d4c:	1c074663          	bltz	a4,80000f18 <printf+0x4d0>
80000d50:	01412703          	lw	a4,20(sp)
80000d54:	54071463          	bnez	a4,8000129c <printf+0x854>
80000d58:	03000693          	li	a3,48
80000d5c:	02d10423          	sb	a3,40(sp)
80000d60:	00c12423          	sw	a2,8(sp)
80000d64:	00100693          	li	a3,1
80000d68:	0af6dc63          	bge	a3,a5,80000e20 <printf+0x3d8>
80000d6c:	00100713          	li	a4,1
80000d70:	00e12c23          	sw	a4,24(sp)
80000d74:	02810713          	addi	a4,sp,40
80000d78:	00e12823          	sw	a4,16(sp)
80000d7c:	01812703          	lw	a4,24(sp)
80000d80:	00000493          	li	s1,0
80000d84:	40e787b3          	sub	a5,a5,a4
80000d88:	00f12423          	sw	a5,8(sp)
80000d8c:	4ef05c63          	blez	a5,80001284 <printf+0x83c>
80000d90:	00812e23          	sw	s0,28(sp)
80000d94:	00048413          	mv	s0,s1
80000d98:	00c12483          	lw	s1,12(sp)
80000d9c:	00048513          	mv	a0,s1
80000da0:	a5dff0ef          	jal	ra,800007fc <putch>
80000da4:	00812783          	lw	a5,8(sp)
80000da8:	00140413          	addi	s0,s0,1
80000dac:	fe8798e3          	bne	a5,s0,80000d9c <printf+0x354>
80000db0:	01412783          	lw	a5,20(sp)
80000db4:	02410713          	addi	a4,sp,36
80000db8:	01c12403          	lw	s0,28(sp)
80000dbc:	3ec78793          	addi	a5,a5,1004
80000dc0:	00e787b3          	add	a5,a5,a4
80000dc4:	c187c683          	lbu	a3,-1000(a5)
80000dc8:	00012703          	lw	a4,0(sp)
80000dcc:	00812783          	lw	a5,8(sp)
80000dd0:	00e787b3          	add	a5,a5,a4
80000dd4:	00f12023          	sw	a5,0(sp)
80000dd8:	01012783          	lw	a5,16(sp)
80000ddc:	01812703          	lw	a4,24(sp)
80000de0:	00812423          	sw	s0,8(sp)
80000de4:	00068513          	mv	a0,a3
80000de8:	00e784b3          	add	s1,a5,a4
80000dec:	00048413          	mv	s0,s1
80000df0:	00078493          	mv	s1,a5
80000df4:	0080006f          	j	80000dfc <printf+0x3b4>
80000df8:	fff44503          	lbu	a0,-1(s0)
80000dfc:	fff40413          	addi	s0,s0,-1
80000e00:	9fdff0ef          	jal	ra,800007fc <putch>
80000e04:	fe849ae3          	bne	s1,s0,80000df8 <printf+0x3b0>
80000e08:	00012703          	lw	a4,0(sp)
80000e0c:	01812783          	lw	a5,24(sp)
80000e10:	00812403          	lw	s0,8(sp)
80000e14:	00e787b3          	add	a5,a5,a4
80000e18:	00f12023          	sw	a5,0(sp)
80000e1c:	c8dff06f          	j	80000aa8 <printf+0x60>
80000e20:	03000513          	li	a0,48
80000e24:	9d9ff0ef          	jal	ra,800007fc <putch>
80000e28:	00812603          	lw	a2,8(sp)
80000e2c:	00c12023          	sw	a2,0(sp)
80000e30:	c79ff06f          	j	80000aa8 <printf+0x60>
80000e34:	00012783          	lw	a5,0(sp)
80000e38:	03000513          	li	a0,48
80000e3c:	00178793          	addi	a5,a5,1
80000e40:	00f12023          	sw	a5,0(sp)
80000e44:	9b9ff0ef          	jal	ra,800007fc <putch>
80000e48:	c61ff06f          	j	80000aa8 <printf+0x60>
80000e4c:	02810313          	addi	t1,sp,40
80000e50:	00048693          	mv	a3,s1
80000e54:	00000613          	li	a2,0
80000e58:	00612823          	sw	t1,16(sp)
80000e5c:	00900593          	li	a1,9
80000e60:	0080006f          	j	80000e68 <printf+0x420>
80000e64:	00070613          	mv	a2,a4
80000e68:	00f6f713          	andi	a4,a3,15
80000e6c:	05770513          	addi	a0,a4,87
80000e70:	00e5c463          	blt	a1,a4,80000e78 <printf+0x430>
80000e74:	03070513          	addi	a0,a4,48
80000e78:	00160713          	addi	a4,a2,1
80000e7c:	00e307b3          	add	a5,t1,a4
80000e80:	fea78fa3          	sb	a0,-1(a5)
80000e84:	0046d693          	srli	a3,a3,0x4
80000e88:	fc069ee3          	bnez	a3,80000e64 <printf+0x41c>
80000e8c:	00812623          	sw	s0,12(sp)
80000e90:	01012483          	lw	s1,16(sp)
80000e94:	00c12423          	sw	a2,8(sp)
80000e98:	00078413          	mv	s0,a5
80000e9c:	0080006f          	j	80000ea4 <printf+0x45c>
80000ea0:	fff44503          	lbu	a0,-1(s0)
80000ea4:	fff40413          	addi	s0,s0,-1
80000ea8:	955ff0ef          	jal	ra,800007fc <putch>
80000eac:	fe849ae3          	bne	s1,s0,80000ea0 <printf+0x458>
80000eb0:	00012783          	lw	a5,0(sp)
80000eb4:	00812703          	lw	a4,8(sp)
80000eb8:	00c12403          	lw	s0,12(sp)
80000ebc:	00378793          	addi	a5,a5,3
80000ec0:	00e787b3          	add	a5,a5,a4
80000ec4:	00f12023          	sw	a5,0(sp)
80000ec8:	be1ff06f          	j	80000aa8 <printf+0x60>
80000ecc:	02810713          	addi	a4,sp,40
80000ed0:	00012a23          	sw	zero,20(sp)
80000ed4:	00e12823          	sw	a4,16(sp)
80000ed8:	00900313          	li	t1,9
80000edc:	38d05c63          	blez	a3,80001274 <printf+0x82c>
80000ee0:	01012283          	lw	t0,16(sp)
80000ee4:	00000613          	li	a2,0
80000ee8:	00f6f593          	andi	a1,a3,15
80000eec:	05758513          	addi	a0,a1,87
80000ef0:	00b34463          	blt	t1,a1,80000ef8 <printf+0x4b0>
80000ef4:	03058513          	addi	a0,a1,48
80000ef8:	00160613          	addi	a2,a2,1
80000efc:	00c28733          	add	a4,t0,a2
80000f00:	fea70fa3          	sb	a0,-1(a4)
80000f04:	4046d693          	srai	a3,a3,0x4
80000f08:	fe0690e3          	bnez	a3,80000ee8 <printf+0x4a0>
80000f0c:	00c12a23          	sw	a2,20(sp)
80000f10:	caf646e3          	blt	a2,a5,80000bbc <printf+0x174>
80000f14:	d21ff06f          	j	80000c34 <printf+0x1ec>
80000f18:	02d00513          	li	a0,45
80000f1c:	00f12423          	sw	a5,8(sp)
80000f20:	00c12023          	sw	a2,0(sp)
80000f24:	8d9ff0ef          	jal	ra,800007fc <putch>
80000f28:	01412783          	lw	a5,20(sp)
80000f2c:	40f004b3          	neg	s1,a5
80000f30:	00812783          	lw	a5,8(sp)
80000f34:	00000693          	li	a3,0
80000f38:	02810713          	addi	a4,sp,40
80000f3c:	02812023          	sw	s0,32(sp)
80000f40:	00e12823          	sw	a4,16(sp)
80000f44:	00f12e23          	sw	a5,28(sp)
80000f48:	00068413          	mv	s0,a3
80000f4c:	00a00593          	li	a1,10
80000f50:	00048513          	mv	a0,s1
80000f54:	ac5ff0ef          	jal	ra,80000a18 <__modsi3>
80000f58:	01012783          	lw	a5,16(sp)
80000f5c:	03050693          	addi	a3,a0,48
80000f60:	00812a23          	sw	s0,20(sp)
80000f64:	00140413          	addi	s0,s0,1
80000f68:	0ff6f693          	zext.b	a3,a3
80000f6c:	008787b3          	add	a5,a5,s0
80000f70:	00048513          	mv	a0,s1
80000f74:	fed78fa3          	sb	a3,-1(a5)
80000f78:	00a00593          	li	a1,10
80000f7c:	00d12423          	sw	a3,8(sp)
80000f80:	a15ff0ef          	jal	ra,80000994 <__divsi3>
80000f84:	00812683          	lw	a3,8(sp)
80000f88:	00050493          	mv	s1,a0
80000f8c:	fc0510e3          	bnez	a0,80000f4c <printf+0x504>
80000f90:	01c12783          	lw	a5,28(sp)
80000f94:	00040713          	mv	a4,s0
80000f98:	00812c23          	sw	s0,24(sp)
80000f9c:	02012403          	lw	s0,32(sp)
80000fa0:	dcf74ee3          	blt	a4,a5,80000d7c <printf+0x334>
80000fa4:	e35ff06f          	j	80000dd8 <printf+0x390>
80000fa8:	02412703          	lw	a4,36(sp)
80000fac:	00012683          	lw	a3,0(sp)
80000fb0:	00470713          	addi	a4,a4,4
80000fb4:	00168493          	addi	s1,a3,1
80000fb8:	ffc72683          	lw	a3,-4(a4)
80000fbc:	02e12223          	sw	a4,36(sp)
80000fc0:	00d12a23          	sw	a3,20(sp)
80000fc4:	1006c663          	bltz	a3,800010d0 <printf+0x688>
80000fc8:	01412703          	lw	a4,20(sp)
80000fcc:	30071463          	bnez	a4,800012d4 <printf+0x88c>
80000fd0:	03000713          	li	a4,48
80000fd4:	02e10423          	sb	a4,40(sp)
80000fd8:	00100713          	li	a4,1
80000fdc:	26f74063          	blt	a4,a5,8000123c <printf+0x7f4>
80000fe0:	03000513          	li	a0,48
80000fe4:	00412403          	lw	s0,4(sp)
80000fe8:	815ff0ef          	jal	ra,800007fc <putch>
80000fec:	00412783          	lw	a5,4(sp)
80000ff0:	00912023          	sw	s1,0(sp)
80000ff4:	00178793          	addi	a5,a5,1
80000ff8:	00f12223          	sw	a5,4(sp)
80000ffc:	aadff06f          	j	80000aa8 <printf+0x60>
80001000:	02412683          	lw	a3,36(sp)
80001004:	0006a703          	lw	a4,0(a3)
80001008:	00468693          	addi	a3,a3,4
8000100c:	02d12223          	sw	a3,36(sp)
80001010:	1e071063          	bnez	a4,800011f0 <printf+0x7a8>
80001014:	03000713          	li	a4,48
80001018:	02e10423          	sb	a4,40(sp)
8000101c:	00100713          	li	a4,1
80001020:	22f75663          	bge	a4,a5,8000124c <printf+0x804>
80001024:	00100713          	li	a4,1
80001028:	00e12a23          	sw	a4,20(sp)
8000102c:	02810713          	addi	a4,sp,40
80001030:	00012c23          	sw	zero,24(sp)
80001034:	00e12823          	sw	a4,16(sp)
80001038:	01412703          	lw	a4,20(sp)
8000103c:	00000413          	li	s0,0
80001040:	40e784b3          	sub	s1,a5,a4
80001044:	26905063          	blez	s1,800012a4 <printf+0x85c>
80001048:	00912423          	sw	s1,8(sp)
8000104c:	00040493          	mv	s1,s0
80001050:	00c12403          	lw	s0,12(sp)
80001054:	00040513          	mv	a0,s0
80001058:	fa4ff0ef          	jal	ra,800007fc <putch>
8000105c:	00812783          	lw	a5,8(sp)
80001060:	00148493          	addi	s1,s1,1
80001064:	fe9798e3          	bne	a5,s1,80001054 <printf+0x60c>
80001068:	00078493          	mv	s1,a5
8000106c:	01812783          	lw	a5,24(sp)
80001070:	02410713          	addi	a4,sp,36
80001074:	3ec78793          	addi	a5,a5,1004
80001078:	00e787b3          	add	a5,a5,a4
8000107c:	c187c503          	lbu	a0,-1000(a5)
80001080:	00012783          	lw	a5,0(sp)
80001084:	009787b3          	add	a5,a5,s1
80001088:	00f12023          	sw	a5,0(sp)
8000108c:	01012403          	lw	s0,16(sp)
80001090:	01412783          	lw	a5,20(sp)
80001094:	00f404b3          	add	s1,s0,a5
80001098:	0080006f          	j	800010a0 <printf+0x658>
8000109c:	fff4c503          	lbu	a0,-1(s1)
800010a0:	fff48493          	addi	s1,s1,-1
800010a4:	f58ff0ef          	jal	ra,800007fc <putch>
800010a8:	fe941ae3          	bne	s0,s1,8000109c <printf+0x654>
800010ac:	00412783          	lw	a5,4(sp)
800010b0:	00012683          	lw	a3,0(sp)
800010b4:	01412703          	lw	a4,20(sp)
800010b8:	00078413          	mv	s0,a5
800010bc:	00178793          	addi	a5,a5,1
800010c0:	00d70733          	add	a4,a4,a3
800010c4:	00e12023          	sw	a4,0(sp)
800010c8:	00f12223          	sw	a5,4(sp)
800010cc:	9ddff06f          	j	80000aa8 <printf+0x60>
800010d0:	02d00513          	li	a0,45
800010d4:	00f12423          	sw	a5,8(sp)
800010d8:	f24ff0ef          	jal	ra,800007fc <putch>
800010dc:	01412783          	lw	a5,20(sp)
800010e0:	00912023          	sw	s1,0(sp)
800010e4:	40f00433          	neg	s0,a5
800010e8:	00812783          	lw	a5,8(sp)
800010ec:	02810713          	addi	a4,sp,40
800010f0:	00000493          	li	s1,0
800010f4:	00e12823          	sw	a4,16(sp)
800010f8:	00f12c23          	sw	a5,24(sp)
800010fc:	00a00593          	li	a1,10
80001100:	00040513          	mv	a0,s0
80001104:	915ff0ef          	jal	ra,80000a18 <__modsi3>
80001108:	01012783          	lw	a5,16(sp)
8000110c:	03050713          	addi	a4,a0,48
80001110:	00912a23          	sw	s1,20(sp)
80001114:	00148493          	addi	s1,s1,1
80001118:	0ff77713          	zext.b	a4,a4
8000111c:	009787b3          	add	a5,a5,s1
80001120:	00040513          	mv	a0,s0
80001124:	fee78fa3          	sb	a4,-1(a5)
80001128:	00a00593          	li	a1,10
8000112c:	00e12423          	sw	a4,8(sp)
80001130:	865ff0ef          	jal	ra,80000994 <__divsi3>
80001134:	00812703          	lw	a4,8(sp)
80001138:	00050413          	mv	s0,a0
8000113c:	fc0510e3          	bnez	a0,800010fc <printf+0x6b4>
80001140:	01812783          	lw	a5,24(sp)
80001144:	04f4de63          	bge	s1,a5,800011a0 <printf+0x758>
80001148:	409787b3          	sub	a5,a5,s1
8000114c:	00f12423          	sw	a5,8(sp)
80001150:	00000413          	li	s0,0
80001154:	16f05463          	blez	a5,800012bc <printf+0x874>
80001158:	00912c23          	sw	s1,24(sp)
8000115c:	00040493          	mv	s1,s0
80001160:	00c12403          	lw	s0,12(sp)
80001164:	00040513          	mv	a0,s0
80001168:	e94ff0ef          	jal	ra,800007fc <putch>
8000116c:	00812783          	lw	a5,8(sp)
80001170:	00148493          	addi	s1,s1,1
80001174:	fe9798e3          	bne	a5,s1,80001164 <printf+0x71c>
80001178:	01412783          	lw	a5,20(sp)
8000117c:	02410713          	addi	a4,sp,36
80001180:	00012683          	lw	a3,0(sp)
80001184:	3ec78793          	addi	a5,a5,1004
80001188:	00e787b3          	add	a5,a5,a4
8000118c:	c187c703          	lbu	a4,-1000(a5)
80001190:	00812783          	lw	a5,8(sp)
80001194:	01812483          	lw	s1,24(sp)
80001198:	00d787b3          	add	a5,a5,a3
8000119c:	00f12023          	sw	a5,0(sp)
800011a0:	01012783          	lw	a5,16(sp)
800011a4:	00912423          	sw	s1,8(sp)
800011a8:	00070513          	mv	a0,a4
800011ac:	00978433          	add	s0,a5,s1
800011b0:	00040493          	mv	s1,s0
800011b4:	00078413          	mv	s0,a5
800011b8:	0080006f          	j	800011c0 <printf+0x778>
800011bc:	fff4c503          	lbu	a0,-1(s1)
800011c0:	fff48493          	addi	s1,s1,-1
800011c4:	e38ff0ef          	jal	ra,800007fc <putch>
800011c8:	fe941ae3          	bne	s0,s1,800011bc <printf+0x774>
800011cc:	00412783          	lw	a5,4(sp)
800011d0:	00012703          	lw	a4,0(sp)
800011d4:	00812483          	lw	s1,8(sp)
800011d8:	00078413          	mv	s0,a5
800011dc:	00178793          	addi	a5,a5,1
800011e0:	00e48733          	add	a4,s1,a4
800011e4:	00e12023          	sw	a4,0(sp)
800011e8:	00f12223          	sw	a5,4(sp)
800011ec:	8bdff06f          	j	80000aa8 <printf+0x60>
800011f0:	02810293          	addi	t0,sp,40
800011f4:	00000313          	li	t1,0
800011f8:	00512823          	sw	t0,16(sp)
800011fc:	00900593          	li	a1,9
80001200:	0080006f          	j	80001208 <printf+0x7c0>
80001204:	00068313          	mv	t1,a3
80001208:	00f77613          	andi	a2,a4,15
8000120c:	05760513          	addi	a0,a2,87
80001210:	00c5c463          	blt	a1,a2,80001218 <printf+0x7d0>
80001214:	03060513          	addi	a0,a2,48
80001218:	00130693          	addi	a3,t1,1
8000121c:	00d28633          	add	a2,t0,a3
80001220:	fea60fa3          	sb	a0,-1(a2)
80001224:	00475713          	srli	a4,a4,0x4
80001228:	fc071ee3          	bnez	a4,80001204 <printf+0x7bc>
8000122c:	00d12a23          	sw	a3,20(sp)
80001230:	00612c23          	sw	t1,24(sp)
80001234:	e0f6c2e3          	blt	a3,a5,80001038 <printf+0x5f0>
80001238:	e55ff06f          	j	8000108c <printf+0x644>
8000123c:	02810713          	addi	a4,sp,40
80001240:	00100493          	li	s1,1
80001244:	00e12823          	sw	a4,16(sp)
80001248:	f01ff06f          	j	80001148 <printf+0x700>
8000124c:	00012703          	lw	a4,0(sp)
80001250:	00412483          	lw	s1,4(sp)
80001254:	03000513          	li	a0,48
80001258:	00170713          	addi	a4,a4,1
8000125c:	00e12023          	sw	a4,0(sp)
80001260:	d9cff0ef          	jal	ra,800007fc <putch>
80001264:	00148793          	addi	a5,s1,1
80001268:	00048413          	mv	s0,s1
8000126c:	00f12223          	sw	a5,4(sp)
80001270:	839ff06f          	j	80000aa8 <printf+0x60>
80001274:	94079ae3          	bnez	a5,80000bc8 <printf+0x180>
80001278:	831ff06f          	j	80000aa8 <printf+0x60>
8000127c:	00070793          	mv	a5,a4
80001280:	99dff06f          	j	80000c1c <printf+0x1d4>
80001284:	01412783          	lw	a5,20(sp)
80001288:	02410713          	addi	a4,sp,36
8000128c:	3ec78793          	addi	a5,a5,1004
80001290:	00e787b3          	add	a5,a5,a4
80001294:	c187c683          	lbu	a3,-1000(a5)
80001298:	b41ff06f          	j	80000dd8 <printf+0x390>
8000129c:	00070493          	mv	s1,a4
800012a0:	c95ff06f          	j	80000f34 <printf+0x4ec>
800012a4:	01812783          	lw	a5,24(sp)
800012a8:	02410713          	addi	a4,sp,36
800012ac:	3ec78793          	addi	a5,a5,1004
800012b0:	00e787b3          	add	a5,a5,a4
800012b4:	c187c503          	lbu	a0,-1000(a5)
800012b8:	dd5ff06f          	j	8000108c <printf+0x644>
800012bc:	01412783          	lw	a5,20(sp)
800012c0:	02410713          	addi	a4,sp,36
800012c4:	3ec78793          	addi	a5,a5,1004
800012c8:	00e787b3          	add	a5,a5,a4
800012cc:	c187c703          	lbu	a4,-1000(a5)
800012d0:	ed1ff06f          	j	800011a0 <printf+0x758>
800012d4:	00070413          	mv	s0,a4
800012d8:	e15ff06f          	j	800010ec <printf+0x6a4>

800012dc <rand>:
800012dc:	00000697          	auipc	a3,0x0
800012e0:	36c68693          	addi	a3,a3,876 # 80001648 <next>
800012e4:	0006a603          	lw	a2,0(a3)
800012e8:	00861713          	slli	a4,a2,0x8
800012ec:	40c70733          	sub	a4,a4,a2
800012f0:	00371713          	slli	a4,a4,0x3
800012f4:	00c70733          	add	a4,a4,a2
800012f8:	00771713          	slli	a4,a4,0x7
800012fc:	00c70733          	add	a4,a4,a2
80001300:	00371713          	slli	a4,a4,0x3
80001304:	40c70733          	sub	a4,a4,a2
80001308:	00571793          	slli	a5,a4,0x5
8000130c:	00f707b3          	add	a5,a4,a5
80001310:	00279793          	slli	a5,a5,0x2
80001314:	40c787b3          	sub	a5,a5,a2
80001318:	00279793          	slli	a5,a5,0x2
8000131c:	00003737          	lui	a4,0x3
80001320:	00c787b3          	add	a5,a5,a2
80001324:	03970713          	addi	a4,a4,57 # 3039 <_entry_offset+0x3039>
80001328:	00e787b3          	add	a5,a5,a4
8000132c:	00179513          	slli	a0,a5,0x1
80001330:	00f6a023          	sw	a5,0(a3)
80001334:	01155513          	srli	a0,a0,0x11
80001338:	00008067          	ret

8000133c <memset>:
8000133c:	0ff5f593          	zext.b	a1,a1
80001340:	00050793          	mv	a5,a0
80001344:	00a60733          	add	a4,a2,a0
80001348:	00060863          	beqz	a2,80001358 <memset+0x1c>
8000134c:	00b78023          	sb	a1,0(a5)
80001350:	00178793          	addi	a5,a5,1
80001354:	fee79ce3          	bne	a5,a4,8000134c <memset+0x10>
80001358:	00008067          	ret
