
/home/xietianle/ysyx-workbench/am-kernels/kernels/litenes/build/litenes-riscv32-nemu.elf:     file format elf32-littleriscv


Disassembly of section .text:

80000000 <_start>:
80000000:	00000413          	li	s0,0
80000004:	00183117          	auipc	sp,0x183
80000008:	ffc10113          	addi	sp,sp,-4 # 80183000 <_end>
8000000c:	060040ef          	jal	ra,8000406c <_trm_init>

80000010 <mmc_read>:
80000010:	0000f797          	auipc	a5,0xf
80000014:	59878793          	addi	a5,a5,1432 # 8000f5a8 <memory>
80000018:	00a787b3          	add	a5,a5,a0
8000001c:	0007c503          	lbu	a0,0(a5)
80000020:	00008067          	ret

80000024 <mmc_write>:
80000024:	ff010113          	addi	sp,sp,-16
80000028:	00812423          	sw	s0,8(sp)
8000002c:	00912223          	sw	s1,4(sp)
80000030:	00112623          	sw	ra,12(sp)
80000034:	0017a717          	auipc	a4,0x17a
80000038:	65c74703          	lbu	a4,1628(a4) # 8017a690 <mmc_id>
8000003c:	00300793          	li	a5,3
80000040:	00050493          	mv	s1,a0
80000044:	00058413          	mv	s0,a1
80000048:	02f70463          	beq	a4,a5,80000070 <mmc_write+0x4c>
8000004c:	0000f797          	auipc	a5,0xf
80000050:	55c78793          	addi	a5,a5,1372 # 8000f5a8 <memory>
80000054:	00978533          	add	a0,a5,s1
80000058:	00850023          	sb	s0,0(a0)
8000005c:	00c12083          	lw	ra,12(sp)
80000060:	00812403          	lw	s0,8(sp)
80000064:	00412483          	lw	s1,4(sp)
80000068:	01010113          	addi	sp,sp,16
8000006c:	00008067          	ret
80000070:	0035f793          	andi	a5,a1,3
80000074:	00d79793          	slli	a5,a5,0xd
80000078:	0001f597          	auipc	a1,0x1f
8000007c:	53058593          	addi	a1,a1,1328 # 8001f5a8 <mmc_chr_pages>
80000080:	00f585b3          	add	a1,a1,a5
80000084:	00000513          	li	a0,0
80000088:	00002637          	lui	a2,0x2
8000008c:	148010ef          	jal	ra,800011d4 <ppu_copy>
80000090:	0000f797          	auipc	a5,0xf
80000094:	51878793          	addi	a5,a5,1304 # 8000f5a8 <memory>
80000098:	00978533          	add	a0,a5,s1
8000009c:	00850023          	sb	s0,0(a0)
800000a0:	00c12083          	lw	ra,12(sp)
800000a4:	00812403          	lw	s0,8(sp)
800000a8:	00412483          	lw	s1,4(sp)
800000ac:	01010113          	addi	sp,sp,16
800000b0:	00008067          	ret

800000b4 <mmc_copy>:
800000b4:	0000f797          	auipc	a5,0xf
800000b8:	4f478793          	addi	a5,a5,1268 # 8000f5a8 <memory>
800000bc:	00a78533          	add	a0,a5,a0
800000c0:	1d90406f          	j	80004a98 <memcpy>

800000c4 <mmc_append_chr_rom_page>:
800000c4:	0017a717          	auipc	a4,0x17a
800000c8:	5c870713          	addi	a4,a4,1480 # 8017a68c <mmc_chr_pages_number>
800000cc:	00072783          	lw	a5,0(a4)
800000d0:	02f04463          	bgtz	a5,800000f8 <mmc_append_chr_rom_page+0x34>
800000d4:	00d79693          	slli	a3,a5,0xd
800000d8:	00050593          	mv	a1,a0
800000dc:	0001f517          	auipc	a0,0x1f
800000e0:	4cc50513          	addi	a0,a0,1228 # 8001f5a8 <mmc_chr_pages>
800000e4:	00178793          	addi	a5,a5,1
800000e8:	00002637          	lui	a2,0x2
800000ec:	00d50533          	add	a0,a0,a3
800000f0:	00f72023          	sw	a5,0(a4)
800000f4:	1a50406f          	j	80004a98 <memcpy>
800000f8:	ff010113          	addi	sp,sp,-16
800000fc:	01d00613          	li	a2,29
80000100:	00005597          	auipc	a1,0x5
80000104:	9f858593          	addi	a1,a1,-1544 # 80004af8 <_etext>
80000108:	00005517          	auipc	a0,0x5
8000010c:	a3450513          	addi	a0,a0,-1484 # 80004b3c <_etext+0x44>
80000110:	00112623          	sw	ra,12(sp)
80000114:	2dc040ef          	jal	ra,800043f0 <printf>
80000118:	00100513          	li	a0,1
8000011c:	745030ef          	jal	ra,80004060 <halt>

80000120 <draw>:
80000120:	0ff00793          	li	a5,255
80000124:	04a7e663          	bltu	a5,a0,80000170 <draw+0x50>
80000128:	0ef00793          	li	a5,239
8000012c:	04b7e263          	bltu	a5,a1,80000170 <draw+0x50>
80000130:	0017a797          	auipc	a5,0x17a
80000134:	56c7a783          	lw	a5,1388(a5) # 8017a69c <frame_cnt>
80000138:	0017f793          	andi	a5,a5,1
8000013c:	02079a63          	bnez	a5,80000170 <draw+0x50>
80000140:	00261613          	slli	a2,a2,0x2
80000144:	00005797          	auipc	a5,0x5
80000148:	aa878793          	addi	a5,a5,-1368 # 80004bec <palette>
8000014c:	00c787b3          	add	a5,a5,a2
80000150:	00859593          	slli	a1,a1,0x8
80000154:	0007a703          	lw	a4,0(a5)
80000158:	00a585b3          	add	a1,a1,a0
8000015c:	00259593          	slli	a1,a1,0x2
80000160:	00021797          	auipc	a5,0x21
80000164:	44878793          	addi	a5,a5,1096 # 800215a8 <canvas>
80000168:	00b787b3          	add	a5,a5,a1
8000016c:	00e7a023          	sw	a4,0(a5)
80000170:	00008067          	ret

80000174 <fce_load_rom>:
80000174:	fd010113          	addi	sp,sp,-48
80000178:	03212023          	sw	s2,32(sp)
8000017c:	01312e23          	sw	s3,28(sp)
80000180:	01050713          	addi	a4,a0,16
80000184:	0017a917          	auipc	s2,0x17a
80000188:	51090913          	addi	s2,s2,1296 # 8017a694 <buf>
8000018c:	0017a997          	auipc	s3,0x17a
80000190:	50c98993          	addi	s3,s3,1292 # 8017a698 <fce_rom_header>
80000194:	00400613          	li	a2,4
80000198:	00005597          	auipc	a1,0x5
8000019c:	9c058593          	addi	a1,a1,-1600 # 80004b58 <_etext+0x60>
800001a0:	02112623          	sw	ra,44(sp)
800001a4:	02812423          	sw	s0,40(sp)
800001a8:	02912223          	sw	s1,36(sp)
800001ac:	01412c23          	sw	s4,24(sp)
800001b0:	01512a23          	sw	s5,20(sp)
800001b4:	00e92023          	sw	a4,0(s2)
800001b8:	00a9a023          	sw	a0,0(s3)
800001bc:	101040ef          	jal	ra,80004abc <memcmp>
800001c0:	0a051663          	bnez	a0,8000026c <fce_load_rom+0xf8>
800001c4:	0009a703          	lw	a4,0(s3)
800001c8:	00092583          	lw	a1,0(s2)
800001cc:	00050a93          	mv	s5,a0
800001d0:	00675783          	lhu	a5,6(a4)
800001d4:	00474603          	lbu	a2,4(a4)
800001d8:	00900713          	li	a4,9
800001dc:	4047d793          	srai	a5,a5,0x4
800001e0:	00f7f793          	andi	a5,a5,15
800001e4:	00e61693          	slli	a3,a2,0xe
800001e8:	00d586b3          	add	a3,a1,a3
800001ec:	00f75733          	srl	a4,a4,a5
800001f0:	0017a517          	auipc	a0,0x17a
800001f4:	4af50023          	sb	a5,1184(a0) # 8017a690 <mmc_id>
800001f8:	00d92023          	sw	a3,0(s2)
800001fc:	00177793          	andi	a5,a4,1
80000200:	06078663          	beqz	a5,8000026c <fce_load_rom+0xf8>
80000204:	00100793          	li	a5,1
80000208:	08f60863          	beq	a2,a5,80000298 <fce_load_rom+0x124>
8000020c:	00008637          	lui	a2,0x8
80000210:	00008537          	lui	a0,0x8
80000214:	ea1ff0ef          	jal	ra,800000b4 <mmc_copy>
80000218:	0009a783          	lw	a5,0(s3)
8000021c:	00000413          	li	s0,0
80000220:	00002a37          	lui	s4,0x2
80000224:	0057c783          	lbu	a5,5(a5)
80000228:	00079c63          	bnez	a5,80000240 <fce_load_rom+0xcc>
8000022c:	0440006f          	j	80000270 <fce_load_rom+0xfc>
80000230:	0009a783          	lw	a5,0(s3)
80000234:	00140413          	addi	s0,s0,1
80000238:	0057c783          	lbu	a5,5(a5)
8000023c:	02f45a63          	bge	s0,a5,80000270 <fce_load_rom+0xfc>
80000240:	00092483          	lw	s1,0(s2)
80000244:	014487b3          	add	a5,s1,s4
80000248:	00048513          	mv	a0,s1
8000024c:	00f92023          	sw	a5,0(s2)
80000250:	e75ff0ef          	jal	ra,800000c4 <mmc_append_chr_rom_page>
80000254:	fc041ee3          	bnez	s0,80000230 <fce_load_rom+0xbc>
80000258:	00002637          	lui	a2,0x2
8000025c:	00048593          	mv	a1,s1
80000260:	00000513          	li	a0,0
80000264:	771000ef          	jal	ra,800011d4 <ppu_copy>
80000268:	fc9ff06f          	j	80000230 <fce_load_rom+0xbc>
8000026c:	fff00a93          	li	s5,-1
80000270:	02c12083          	lw	ra,44(sp)
80000274:	02812403          	lw	s0,40(sp)
80000278:	02412483          	lw	s1,36(sp)
8000027c:	02012903          	lw	s2,32(sp)
80000280:	01c12983          	lw	s3,28(sp)
80000284:	01812a03          	lw	s4,24(sp)
80000288:	000a8513          	mv	a0,s5
8000028c:	01412a83          	lw	s5,20(sp)
80000290:	03010113          	addi	sp,sp,48
80000294:	00008067          	ret
80000298:	00004637          	lui	a2,0x4
8000029c:	00008537          	lui	a0,0x8
800002a0:	00b12623          	sw	a1,12(sp)
800002a4:	e11ff0ef          	jal	ra,800000b4 <mmc_copy>
800002a8:	00c12583          	lw	a1,12(sp)
800002ac:	00004637          	lui	a2,0x4
800002b0:	0000c537          	lui	a0,0xc
800002b4:	e01ff0ef          	jal	ra,800000b4 <mmc_copy>
800002b8:	f61ff06f          	j	80000218 <fce_load_rom+0xa4>

800002bc <fce_init>:
800002bc:	ff010113          	addi	sp,sp,-16
800002c0:	00112623          	sw	ra,12(sp)
800002c4:	784020ef          	jal	ra,80002a48 <cpu_init>
800002c8:	200010ef          	jal	ra,800014c8 <ppu_init>
800002cc:	0017a797          	auipc	a5,0x17a
800002d0:	3cc7a783          	lw	a5,972(a5) # 8017a698 <fce_rom_header>
800002d4:	0067d503          	lhu	a0,6(a5)
800002d8:	00157513          	andi	a0,a0,1
800002dc:	2fc010ef          	jal	ra,800015d8 <ppu_set_mirroring>
800002e0:	00c12083          	lw	ra,12(sp)
800002e4:	01010113          	addi	sp,sp,16
800002e8:	5680306f          	j	80003850 <cpu_reset>

800002ec <fce_run>:
800002ec:	fc010113          	addi	sp,sp,-64
800002f0:	00810593          	addi	a1,sp,8
800002f4:	00600513          	li	a0,6
800002f8:	02112e23          	sw	ra,60(sp)
800002fc:	02912a23          	sw	s1,52(sp)
80000300:	03212823          	sw	s2,48(sp)
80000304:	03412423          	sw	s4,40(sp)
80000308:	03512223          	sw	s5,36(sp)
8000030c:	03612023          	sw	s6,32(sp)
80000310:	02812c23          	sw	s0,56(sp)
80000314:	03312623          	sw	s3,44(sp)
80000318:	01712e23          	sw	s7,28(sp)
8000031c:	01812c23          	sw	s8,24(sp)
80000320:	65d030ef          	jal	ra,8000417c <ioe_read>
80000324:	00812503          	lw	a0,8(sp)
80000328:	00c12583          	lw	a1,12(sp)
8000032c:	3e800613          	li	a2,1000
80000330:	00000693          	li	a3,0
80000334:	650040ef          	jal	ra,80004984 <__udivdi3>
80000338:	0017a497          	auipc	s1,0x17a
8000033c:	36848493          	addi	s1,s1,872 # 8017a6a0 <gtime>
80000340:	00050b13          	mv	s6,a0
80000344:	00a4a023          	sw	a0,0(s1)
80000348:	00f00913          	li	s2,15
8000034c:	3e800a13          	li	s4,1000
80000350:	00005a97          	auipc	s5,0x5
80000354:	810a8a93          	addi	s5,s5,-2032 # 80004b60 <_etext+0x68>
80000358:	00000993          	li	s3,0
8000035c:	00810593          	addi	a1,sp,8
80000360:	00600513          	li	a0,6
80000364:	619030ef          	jal	ra,8000417c <ioe_read>
80000368:	00812503          	lw	a0,8(sp)
8000036c:	00c12583          	lw	a1,12(sp)
80000370:	3e800613          	li	a2,1000
80000374:	00000693          	li	a3,0
80000378:	60c040ef          	jal	ra,80004984 <__udivdi3>
8000037c:	0004a783          	lw	a5,0(s1)
80000380:	40f507b3          	sub	a5,a0,a5
80000384:	fcf95ce3          	bge	s2,a5,8000035c <fce_run+0x70>
80000388:	00a4a023          	sw	a0,0(s1)
8000038c:	10600413          	li	s0,262
80000390:	fff40413          	addi	s0,s0,-1
80000394:	4c1000ef          	jal	ra,80001054 <ppu_cycle>
80000398:	254000ef          	jal	ra,800005ec <psg_detect_key>
8000039c:	fe041ae3          	bnez	s0,80000390 <fce_run+0xa4>
800003a0:	00810593          	addi	a1,sp,8
800003a4:	00600513          	li	a0,6
800003a8:	5d5030ef          	jal	ra,8000417c <ioe_read>
800003ac:	00812503          	lw	a0,8(sp)
800003b0:	00c12583          	lw	a1,12(sp)
800003b4:	3e800613          	li	a2,1000
800003b8:	00000693          	li	a3,0
800003bc:	5c8040ef          	jal	ra,80004984 <__udivdi3>
800003c0:	416507b3          	sub	a5,a0,s6
800003c4:	00198993          	addi	s3,s3,1
800003c8:	00050c13          	mv	s8,a0
800003cc:	00050b93          	mv	s7,a0
800003d0:	f8fa76e3          	bgeu	s4,a5,8000035c <fce_run+0x70>
800003d4:	05000413          	li	s0,80
800003d8:	fff40413          	addi	s0,s0,-1
800003dc:	00800513          	li	a0,8
800003e0:	475030ef          	jal	ra,80004054 <putch>
800003e4:	fe041ae3          	bnez	s0,800003d8 <fce_run+0xec>
800003e8:	034c45b3          	div	a1,s8,s4
800003ec:	00098613          	mv	a2,s3
800003f0:	000a8513          	mv	a0,s5
800003f4:	000b8b13          	mv	s6,s7
800003f8:	7f9030ef          	jal	ra,800043f0 <printf>
800003fc:	f5dff06f          	j	80000358 <fce_run+0x6c>

80000400 <fce_update_screen>:
80000400:	0017a717          	auipc	a4,0x17a
80000404:	29c70713          	addi	a4,a4,668 # 8017a69c <frame_cnt>
80000408:	00072783          	lw	a5,0(a4)
8000040c:	00178793          	addi	a5,a5,1
80000410:	00f72023          	sw	a5,0(a4)
80000414:	0017f793          	andi	a5,a5,1
80000418:	00078463          	beqz	a5,80000420 <fce_update_screen+0x20>
8000041c:	00008067          	ret
80000420:	00004537          	lui	a0,0x4
80000424:	fd010113          	addi	sp,sp,-48
80000428:	f0050513          	addi	a0,a0,-256 # 3f00 <_entry_offset+0x3f00>
8000042c:	02112623          	sw	ra,44(sp)
80000430:	02912223          	sw	s1,36(sp)
80000434:	02812423          	sw	s0,40(sp)
80000438:	458000ef          	jal	ra,80000890 <ppu_ram_read>
8000043c:	00251713          	slli	a4,a0,0x2
80000440:	00004797          	auipc	a5,0x4
80000444:	7ac78793          	addi	a5,a5,1964 # 80004bec <palette>
80000448:	00e787b3          	add	a5,a5,a4
8000044c:	00810593          	addi	a1,sp,8
80000450:	00900513          	li	a0,9
80000454:	0007a483          	lw	s1,0(a5)
80000458:	525030ef          	jal	ra,8000417c <ioe_read>
8000045c:	00c12603          	lw	a2,12(sp)
80000460:	01012683          	lw	a3,16(sp)
80000464:	0fe00813          	li	a6,254
80000468:	f0060513          	addi	a0,a2,-256 # 3f00 <_entry_offset+0x3f00>
8000046c:	f1068593          	addi	a1,a3,-240
80000470:	01f55713          	srli	a4,a0,0x1f
80000474:	01f5d793          	srli	a5,a1,0x1f
80000478:	00a70733          	add	a4,a4,a0
8000047c:	00b787b3          	add	a5,a5,a1
80000480:	40175713          	srai	a4,a4,0x1
80000484:	4017d793          	srai	a5,a5,0x1
80000488:	06c85863          	bge	a6,a2,800004f8 <fce_update_screen+0xf8>
8000048c:	0ee00613          	li	a2,238
80000490:	06d65463          	bge	a2,a3,800004f8 <fce_update_screen+0xf8>
80000494:	00f12623          	sw	a5,12(sp)
80000498:	10000793          	li	a5,256
8000049c:	00f12a23          	sw	a5,20(sp)
800004a0:	0f000793          	li	a5,240
800004a4:	00021417          	auipc	s0,0x21
800004a8:	10440413          	addi	s0,s0,260 # 800215a8 <canvas>
800004ac:	00f12c23          	sw	a5,24(sp)
800004b0:	00810593          	addi	a1,sp,8
800004b4:	00100793          	li	a5,1
800004b8:	00b00513          	li	a0,11
800004bc:	00e12423          	sw	a4,8(sp)
800004c0:	00f10e23          	sb	a5,28(sp)
800004c4:	00812823          	sw	s0,16(sp)
800004c8:	4d1030ef          	jal	ra,80004198 <ioe_write>
800004cc:	00040793          	mv	a5,s0
800004d0:	0005d717          	auipc	a4,0x5d
800004d4:	0d870713          	addi	a4,a4,216 # 8005d5a8 <key_state>
800004d8:	0097a023          	sw	s1,0(a5)
800004dc:	00478793          	addi	a5,a5,4
800004e0:	fee79ce3          	bne	a5,a4,800004d8 <fce_update_screen+0xd8>
800004e4:	02c12083          	lw	ra,44(sp)
800004e8:	02812403          	lw	s0,40(sp)
800004ec:	02412483          	lw	s1,36(sp)
800004f0:	03010113          	addi	sp,sp,48
800004f4:	00008067          	ret
800004f8:	00004417          	auipc	s0,0x4
800004fc:	68440413          	addi	s0,s0,1668 # 80004b7c <_etext+0x84>
80000500:	04100513          	li	a0,65
80000504:	00140413          	addi	s0,s0,1
80000508:	34d030ef          	jal	ra,80004054 <putch>
8000050c:	00044503          	lbu	a0,0(s0)
80000510:	fe051ae3          	bnez	a0,80000504 <fce_update_screen+0x104>
80000514:	00004417          	auipc	s0,0x4
80000518:	67440413          	addi	s0,s0,1652 # 80004b88 <_etext+0x90>
8000051c:	07300513          	li	a0,115
80000520:	00140413          	addi	s0,s0,1
80000524:	331030ef          	jal	ra,80004054 <putch>
80000528:	00044503          	lbu	a0,0(s0)
8000052c:	fe051ae3          	bnez	a0,80000520 <fce_update_screen+0x120>
80000530:	00004417          	auipc	s0,0x4
80000534:	66c40413          	addi	s0,s0,1644 # 80004b9c <_etext+0xa4>
80000538:	02000513          	li	a0,32
8000053c:	00140413          	addi	s0,s0,1
80000540:	315030ef          	jal	ra,80004054 <putch>
80000544:	00044503          	lbu	a0,0(s0)
80000548:	fe051ae3          	bnez	a0,8000053c <fce_update_screen+0x13c>
8000054c:	00100513          	li	a0,1
80000550:	311030ef          	jal	ra,80004060 <halt>

80000554 <psgio_read>:
80000554:	000047b7          	lui	a5,0x4
80000558:	01678793          	addi	a5,a5,22 # 4016 <_entry_offset+0x4016>
8000055c:	00f50663          	beq	a0,a5,80000568 <psgio_read+0x14>
80000560:	00000513          	li	a0,0
80000564:	00008067          	ret
80000568:	00005697          	auipc	a3,0x5
8000056c:	e2c68693          	addi	a3,a3,-468 # 80005394 <p>
80000570:	0006a703          	lw	a4,0(a3)
80000574:	00800613          	li	a2,8
80000578:	00170793          	addi	a5,a4,1
8000057c:	00f6a023          	sw	a5,0(a3)
80000580:	fee640e3          	blt	a2,a4,80000560 <psgio_read+0xc>
80000584:	00004717          	auipc	a4,0x4
80000588:	76870713          	addi	a4,a4,1896 # 80004cec <MAP>
8000058c:	00279793          	slli	a5,a5,0x2
80000590:	00f707b3          	add	a5,a4,a5
80000594:	0007a703          	lw	a4,0(a5)
80000598:	0005d797          	auipc	a5,0x5d
8000059c:	01078793          	addi	a5,a5,16 # 8005d5a8 <key_state>
800005a0:	00271713          	slli	a4,a4,0x2
800005a4:	00e787b3          	add	a5,a5,a4
800005a8:	0007c503          	lbu	a0,0(a5)
800005ac:	00008067          	ret

800005b0 <psgio_write>:
800005b0:	000047b7          	lui	a5,0x4
800005b4:	01678793          	addi	a5,a5,22 # 4016 <_entry_offset+0x4016>
800005b8:	0015f593          	andi	a1,a1,1
800005bc:	0017a717          	auipc	a4,0x17a
800005c0:	0e870713          	addi	a4,a4,232 # 8017a6a4 <prev_write.0>
800005c4:	00f50663          	beq	a0,a5,800005d0 <psgio_write+0x20>
800005c8:	00b70023          	sb	a1,0(a4)
800005cc:	00008067          	ret
800005d0:	fe059ce3          	bnez	a1,800005c8 <psgio_write+0x18>
800005d4:	00074683          	lbu	a3,0(a4)
800005d8:	00100793          	li	a5,1
800005dc:	fef696e3          	bne	a3,a5,800005c8 <psgio_write+0x18>
800005e0:	00005797          	auipc	a5,0x5
800005e4:	da07aa23          	sw	zero,-588(a5) # 80005394 <p>
800005e8:	fe1ff06f          	j	800005c8 <psgio_write+0x18>

800005ec <psg_detect_key>:
800005ec:	fe010113          	addi	sp,sp,-32
800005f0:	00812c23          	sw	s0,24(sp)
800005f4:	00112e23          	sw	ra,28(sp)
800005f8:	0005d417          	auipc	s0,0x5d
800005fc:	fb040413          	addi	s0,s0,-80 # 8005d5a8 <key_state>
80000600:	0080006f          	j	80000608 <psg_detect_key+0x1c>
80000604:	00d7a023          	sw	a3,0(a5)
80000608:	00810593          	addi	a1,sp,8
8000060c:	00800513          	li	a0,8
80000610:	36d030ef          	jal	ra,8000417c <ioe_read>
80000614:	00c12703          	lw	a4,12(sp)
80000618:	00814683          	lbu	a3,8(sp)
8000061c:	00271793          	slli	a5,a4,0x2
80000620:	00f407b3          	add	a5,s0,a5
80000624:	fe0710e3          	bnez	a4,80000604 <psg_detect_key+0x18>
80000628:	01c12083          	lw	ra,28(sp)
8000062c:	01812403          	lw	s0,24(sp)
80000630:	02010113          	addi	sp,sp,32
80000634:	00008067          	ret

80000638 <memory_readb>:
80000638:	00d55793          	srli	a5,a0,0xd
8000063c:	00200693          	li	a3,2
80000640:	00050713          	mv	a4,a0
80000644:	02d78663          	beq	a5,a3,80000670 <memory_readb+0x38>
80000648:	00f6ea63          	bltu	a3,a5,8000065c <memory_readb+0x24>
8000064c:	02078863          	beqz	a5,8000067c <memory_readb+0x44>
80000650:	00100693          	li	a3,1
80000654:	02d79063          	bne	a5,a3,80000674 <memory_readb+0x3c>
80000658:	38d0006f          	j	800011e4 <ppuio_read>
8000065c:	00300693          	li	a3,3
80000660:	00d79a63          	bne	a5,a3,80000674 <memory_readb+0x3c>
80000664:	01351513          	slli	a0,a0,0x13
80000668:	01355513          	srli	a0,a0,0x13
8000066c:	3ac0206f          	j	80002a18 <cpu_ram_read>
80000670:	ee5ff06f          	j	80000554 <psgio_read>
80000674:	00070513          	mv	a0,a4
80000678:	999ff06f          	j	80000010 <mmc_read>
8000067c:	7ff57513          	andi	a0,a0,2047
80000680:	3980206f          	j	80002a18 <cpu_ram_read>

80000684 <memory_writeb>:
80000684:	ff010113          	addi	sp,sp,-16
80000688:	00004737          	lui	a4,0x4
8000068c:	00812423          	sw	s0,8(sp)
80000690:	00112623          	sw	ra,12(sp)
80000694:	00912223          	sw	s1,4(sp)
80000698:	01470713          	addi	a4,a4,20 # 4014 <_entry_offset+0x4014>
8000069c:	00058413          	mv	s0,a1
800006a0:	04e50e63          	beq	a0,a4,800006fc <memory_writeb+0x78>
800006a4:	00d55713          	srli	a4,a0,0xd
800006a8:	00200693          	li	a3,2
800006ac:	00050793          	mv	a5,a0
800006b0:	0ad70263          	beq	a4,a3,80000754 <memory_writeb+0xd0>
800006b4:	02e6e263          	bltu	a3,a4,800006d8 <memory_writeb+0x54>
800006b8:	08070263          	beqz	a4,8000073c <memory_writeb+0xb8>
800006bc:	00100693          	li	a3,1
800006c0:	0ad71463          	bne	a4,a3,80000768 <memory_writeb+0xe4>
800006c4:	00812403          	lw	s0,8(sp)
800006c8:	00c12083          	lw	ra,12(sp)
800006cc:	00412483          	lw	s1,4(sp)
800006d0:	01010113          	addi	sp,sp,16
800006d4:	4750006f          	j	80001348 <ppuio_write>
800006d8:	00300693          	li	a3,3
800006dc:	08d71663          	bne	a4,a3,80000768 <memory_writeb+0xe4>
800006e0:	00812403          	lw	s0,8(sp)
800006e4:	00c12083          	lw	ra,12(sp)
800006e8:	00412483          	lw	s1,4(sp)
800006ec:	01351793          	slli	a5,a0,0x13
800006f0:	0137d513          	srli	a0,a5,0x13
800006f4:	01010113          	addi	sp,sp,16
800006f8:	3380206f          	j	80002a30 <cpu_ram_write>
800006fc:	00859413          	slli	s0,a1,0x8
80000700:	10040493          	addi	s1,s0,256
80000704:	01049493          	slli	s1,s1,0x10
80000708:	0104d493          	srli	s1,s1,0x10
8000070c:	00040513          	mv	a0,s0
80000710:	00140413          	addi	s0,s0,1
80000714:	01041413          	slli	s0,s0,0x10
80000718:	300020ef          	jal	ra,80002a18 <cpu_ram_read>
8000071c:	01045413          	srli	s0,s0,0x10
80000720:	691000ef          	jal	ra,800015b0 <ppu_sprram_write>
80000724:	fe9414e3          	bne	s0,s1,8000070c <memory_writeb+0x88>
80000728:	00c12083          	lw	ra,12(sp)
8000072c:	00812403          	lw	s0,8(sp)
80000730:	00412483          	lw	s1,4(sp)
80000734:	01010113          	addi	sp,sp,16
80000738:	00008067          	ret
8000073c:	00812403          	lw	s0,8(sp)
80000740:	00c12083          	lw	ra,12(sp)
80000744:	00412483          	lw	s1,4(sp)
80000748:	7ff57513          	andi	a0,a0,2047
8000074c:	01010113          	addi	sp,sp,16
80000750:	2e00206f          	j	80002a30 <cpu_ram_write>
80000754:	00812403          	lw	s0,8(sp)
80000758:	00c12083          	lw	ra,12(sp)
8000075c:	00412483          	lw	s1,4(sp)
80000760:	01010113          	addi	sp,sp,16
80000764:	e4dff06f          	j	800005b0 <psgio_write>
80000768:	00040593          	mv	a1,s0
8000076c:	00812403          	lw	s0,8(sp)
80000770:	00c12083          	lw	ra,12(sp)
80000774:	00412483          	lw	s1,4(sp)
80000778:	00078513          	mv	a0,a5
8000077c:	01010113          	addi	sp,sp,16
80000780:	8a5ff06f          	j	80000024 <mmc_write>

80000784 <memory_readw>:
80000784:	ff010113          	addi	sp,sp,-16
80000788:	00112623          	sw	ra,12(sp)
8000078c:	00812423          	sw	s0,8(sp)
80000790:	00050413          	mv	s0,a0
80000794:	ea5ff0ef          	jal	ra,80000638 <memory_readb>
80000798:	00050793          	mv	a5,a0
8000079c:	00140513          	addi	a0,s0,1
800007a0:	01051513          	slli	a0,a0,0x10
800007a4:	01055513          	srli	a0,a0,0x10
800007a8:	00078413          	mv	s0,a5
800007ac:	e8dff0ef          	jal	ra,80000638 <memory_readb>
800007b0:	00851793          	slli	a5,a0,0x8
800007b4:	00c12083          	lw	ra,12(sp)
800007b8:	00878533          	add	a0,a5,s0
800007bc:	00812403          	lw	s0,8(sp)
800007c0:	01051513          	slli	a0,a0,0x10
800007c4:	01055513          	srli	a0,a0,0x10
800007c8:	01010113          	addi	sp,sp,16
800007cc:	00008067          	ret

800007d0 <memory_writew>:
800007d0:	ff010113          	addi	sp,sp,-16
800007d4:	00912223          	sw	s1,4(sp)
800007d8:	00058493          	mv	s1,a1
800007dc:	0ff5f593          	zext.b	a1,a1
800007e0:	00812423          	sw	s0,8(sp)
800007e4:	00112623          	sw	ra,12(sp)
800007e8:	00050413          	mv	s0,a0
800007ec:	e99ff0ef          	jal	ra,80000684 <memory_writeb>
800007f0:	00140513          	addi	a0,s0,1
800007f4:	00812403          	lw	s0,8(sp)
800007f8:	00c12083          	lw	ra,12(sp)
800007fc:	0084d593          	srli	a1,s1,0x8
80000800:	00412483          	lw	s1,4(sp)
80000804:	01051513          	slli	a0,a0,0x10
80000808:	01055513          	srli	a0,a0,0x10
8000080c:	01010113          	addi	sp,sp,16
80000810:	e75ff06f          	j	80000684 <memory_writeb>

80000814 <ppu_generates_nmi>:
80000814:	00700613          	li	a2,7
80000818:	00061517          	auipc	a0,0x61
8000081c:	29054503          	lbu	a0,656(a0) # 80061aa8 <ppu>
80000820:	00000593          	li	a1,0
80000824:	5d10006f          	j	800015f4 <common_bit_set>

80000828 <ppu_get_real_ram_address>:
80000828:	000047b7          	lui	a5,0x4
8000082c:	eff78713          	addi	a4,a5,-257 # 3eff <_entry_offset+0x3eff>
80000830:	00a76463          	bltu	a4,a0,80000838 <ppu_get_real_ram_address+0x10>
80000834:	00008067          	ret
80000838:	00f56863          	bltu	a0,a5,80000848 <ppu_get_real_ram_address+0x20>
8000083c:	00010537          	lui	a0,0x10
80000840:	fff50513          	addi	a0,a0,-1 # ffff <_entry_offset+0xffff>
80000844:	00008067          	ret
80000848:	f0078713          	addi	a4,a5,-256
8000084c:	01f57513          	andi	a0,a0,31
80000850:	00e56533          	or	a0,a0,a4
80000854:	01051693          	slli	a3,a0,0x10
80000858:	4106d693          	srai	a3,a3,0x10
8000085c:	01069513          	slli	a0,a3,0x10
80000860:	f1078793          	addi	a5,a5,-240
80000864:	01055513          	srli	a0,a0,0x10
80000868:	00f68c63          	beq	a3,a5,80000880 <ppu_get_real_ram_address+0x58>
8000086c:	40e50733          	sub	a4,a0,a4
80000870:	111007b7          	lui	a5,0x11100
80000874:	00e7d7b3          	srl	a5,a5,a4
80000878:	0017f793          	andi	a5,a5,1
8000087c:	fa078ce3          	beqz	a5,80000834 <ppu_get_real_ram_address+0xc>
80000880:	ff050513          	addi	a0,a0,-16
80000884:	01051513          	slli	a0,a0,0x10
80000888:	01055513          	srli	a0,a0,0x10
8000088c:	00008067          	ret

80000890 <ppu_ram_read>:
80000890:	000047b7          	lui	a5,0x4
80000894:	eff78713          	addi	a4,a5,-257 # 3eff <_entry_offset+0x3eff>
80000898:	00a76c63          	bltu	a4,a0,800008b0 <ppu_ram_read+0x20>
8000089c:	0005d797          	auipc	a5,0x5d
800008a0:	10c78793          	addi	a5,a5,268 # 8005d9a8 <PPU_RAM>
800008a4:	00a787b3          	add	a5,a5,a0
800008a8:	0007c503          	lbu	a0,0(a5)
800008ac:	00008067          	ret
800008b0:	02f56063          	bltu	a0,a5,800008d0 <ppu_ram_read+0x40>
800008b4:	00010537          	lui	a0,0x10
800008b8:	fff50513          	addi	a0,a0,-1 # ffff <_entry_offset+0xffff>
800008bc:	0005d797          	auipc	a5,0x5d
800008c0:	0ec78793          	addi	a5,a5,236 # 8005d9a8 <PPU_RAM>
800008c4:	00a787b3          	add	a5,a5,a0
800008c8:	0007c503          	lbu	a0,0(a5)
800008cc:	00008067          	ret
800008d0:	f0078713          	addi	a4,a5,-256
800008d4:	01f57513          	andi	a0,a0,31
800008d8:	00e56533          	or	a0,a0,a4
800008dc:	01051693          	slli	a3,a0,0x10
800008e0:	4106d693          	srai	a3,a3,0x10
800008e4:	01069513          	slli	a0,a3,0x10
800008e8:	f1078793          	addi	a5,a5,-240
800008ec:	01055513          	srli	a0,a0,0x10
800008f0:	00f68c63          	beq	a3,a5,80000908 <ppu_ram_read+0x78>
800008f4:	40e50733          	sub	a4,a0,a4
800008f8:	111007b7          	lui	a5,0x11100
800008fc:	00e7d7b3          	srl	a5,a5,a4
80000900:	0017f793          	andi	a5,a5,1
80000904:	f8078ce3          	beqz	a5,8000089c <ppu_ram_read+0xc>
80000908:	ff050513          	addi	a0,a0,-16
8000090c:	01051513          	slli	a0,a0,0x10
80000910:	01055513          	srli	a0,a0,0x10
80000914:	0005d797          	auipc	a5,0x5d
80000918:	09478793          	addi	a5,a5,148 # 8005d9a8 <PPU_RAM>
8000091c:	00a787b3          	add	a5,a5,a0
80000920:	0007c503          	lbu	a0,0(a5)
80000924:	00008067          	ret

80000928 <ppu_draw_background_scanline>:
80000928:	fa010113          	addi	sp,sp,-96
8000092c:	03912a23          	sw	s9,52(sp)
80000930:	00061c97          	auipc	s9,0x61
80000934:	178c8c93          	addi	s9,s9,376 # 80061aa8 <ppu>
80000938:	00050793          	mv	a5,a0
8000093c:	001cc503          	lbu	a0,1(s9)
80000940:	00100613          	li	a2,1
80000944:	00000593          	li	a1,0
80000948:	04812c23          	sw	s0,88(sp)
8000094c:	04912a23          	sw	s1,84(sp)
80000950:	05212823          	sw	s2,80(sp)
80000954:	05412423          	sw	s4,72(sp)
80000958:	05612023          	sw	s6,64(sp)
8000095c:	03b12623          	sw	s11,44(sp)
80000960:	00f12e23          	sw	a5,28(sp)
80000964:	04112e23          	sw	ra,92(sp)
80000968:	05312623          	sw	s3,76(sp)
8000096c:	05512223          	sw	s5,68(sp)
80000970:	03712e23          	sw	s7,60(sp)
80000974:	03812c23          	sw	s8,56(sp)
80000978:	03a12823          	sw	s10,48(sp)
8000097c:	479000ef          	jal	ra,800015f4 <common_bit_set>
80000980:	00154413          	xori	s0,a0,1
80000984:	0ff47413          	zext.b	s0,s0
80000988:	000107b7          	lui	a5,0x10
8000098c:	00004a37          	lui	s4,0x4
80000990:	00140493          	addi	s1,s0,1
80000994:	fff78793          	addi	a5,a5,-1 # ffff <_entry_offset+0xffff>
80000998:	00341913          	slli	s2,s0,0x3
8000099c:	00349d93          	slli	s11,s1,0x3
800009a0:	f00a0b13          	addi	s6,s4,-256 # 3f00 <_entry_offset+0x3f00>
800009a4:	00f12c23          	sw	a5,24(sp)
800009a8:	0200006f          	j	800009c8 <ppu_draw_background_scanline+0xa0>
800009ac:	2ef05063          	blez	a5,80000c8c <ppu_draw_background_scanline+0x364>
800009b0:	02000793          	li	a5,32
800009b4:	00048413          	mv	s0,s1
800009b8:	00890913          	addi	s2,s2,8
800009bc:	008d8d93          	addi	s11,s11,8
800009c0:	22f48c63          	beq	s1,a5,80000bf8 <ppu_draw_background_scanline+0x2d0>
800009c4:	00148493          	addi	s1,s1,1
800009c8:	008cc783          	lbu	a5,8(s9)
800009cc:	01c12703          	lw	a4,28(sp)
800009d0:	40f907b3          	sub	a5,s2,a5
800009d4:	fc071ce3          	bnez	a4,800009ac <ppu_draw_background_scanline+0x84>
800009d8:	10000713          	li	a4,256
800009dc:	fcf74ae3          	blt	a4,a5,800009b0 <ppu_draw_background_scanline+0x88>
800009e0:	000cc503          	lbu	a0,0(s9)
800009e4:	020ca783          	lw	a5,32(s9)
800009e8:	00005a97          	auipc	s5,0x5
800009ec:	9a0a8a93          	addi	s5,s5,-1632 # 80005388 <ppu_base_nametable_addresses>
800009f0:	00357713          	andi	a4,a0,3
800009f4:	00171713          	slli	a4,a4,0x1
800009f8:	00ea8733          	add	a4,s5,a4
800009fc:	00075703          	lhu	a4,0(a4)
80000a00:	4037d793          	srai	a5,a5,0x3
80000a04:	00579793          	slli	a5,a5,0x5
80000a08:	00e787b3          	add	a5,a5,a4
80000a0c:	008787b3          	add	a5,a5,s0
80000a10:	01079793          	slli	a5,a5,0x10
80000a14:	00004737          	lui	a4,0x4
80000a18:	0107d793          	srli	a5,a5,0x10
80000a1c:	00012a23          	sw	zero,20(sp)
80000a20:	00012823          	sw	zero,16(sp)
80000a24:	eff70713          	addi	a4,a4,-257 # 3eff <_entry_offset+0x3eff>
80000a28:	2af76e63          	bltu	a4,a5,80000ce4 <ppu_draw_background_scanline+0x3bc>
80000a2c:	00078713          	mv	a4,a5
80000a30:	0005db97          	auipc	s7,0x5d
80000a34:	f78b8b93          	addi	s7,s7,-136 # 8005d9a8 <PPU_RAM>
80000a38:	00eb8733          	add	a4,s7,a4
80000a3c:	00400613          	li	a2,4
80000a40:	00000593          	li	a1,0
80000a44:	00074983          	lbu	s3,0(a4)
80000a48:	3ad000ef          	jal	ra,800015f4 <common_bit_set>
80000a4c:	020ca783          	lw	a5,32(s9)
80000a50:	00c51513          	slli	a0,a0,0xc
80000a54:	00499993          	slli	s3,s3,0x4
80000a58:	0077f793          	andi	a5,a5,7
80000a5c:	00a787b3          	add	a5,a5,a0
80000a60:	013787b3          	add	a5,a5,s3
80000a64:	01079793          	slli	a5,a5,0x10
80000a68:	0107d793          	srli	a5,a5,0x10
80000a6c:	00878713          	addi	a4,a5,8
80000a70:	01071713          	slli	a4,a4,0x10
80000a74:	00fb87b3          	add	a5,s7,a5
80000a78:	01075713          	srli	a4,a4,0x10
80000a7c:	0007c683          	lbu	a3,0(a5)
80000a80:	00eb87b3          	add	a5,s7,a4
80000a84:	0007c883          	lbu	a7,0(a5)
80000a88:	40245993          	srai	s3,s0,0x2
80000a8c:	00869793          	slli	a5,a3,0x8
80000a90:	00f888b3          	add	a7,a7,a5
80000a94:	01099793          	slli	a5,s3,0x10
80000a98:	00389893          	slli	a7,a7,0x3
80000a9c:	0107d793          	srli	a5,a5,0x10
80000aa0:	00f12623          	sw	a5,12(sp)
80000aa4:	412889b3          	sub	s3,a7,s2
80000aa8:	00090c13          	mv	s8,s2
80000aac:	000e1d17          	auipc	s10,0xe1
80000ab0:	020d0d13          	addi	s10,s10,32 # 800e1acc <ppu_l_h_addition_table>
80000ab4:	00247413          	andi	s0,s0,2
80000ab8:	013c07b3          	add	a5,s8,s3
80000abc:	00fd07b3          	add	a5,s10,a5
80000ac0:	0007c683          	lbu	a3,0(a5)
80000ac4:	10068c63          	beqz	a3,80000bdc <ppu_draw_background_scanline+0x2b4>
80000ac8:	000cc783          	lbu	a5,0(s9)
80000acc:	020ca583          	lw	a1,32(s9)
80000ad0:	00c12703          	lw	a4,12(sp)
80000ad4:	0037f793          	andi	a5,a5,3
80000ad8:	00179793          	slli	a5,a5,0x1
80000adc:	00fa87b3          	add	a5,s5,a5
80000ae0:	0007d783          	lhu	a5,0(a5)
80000ae4:	4055d613          	srai	a2,a1,0x5
80000ae8:	00361613          	slli	a2,a2,0x3
80000aec:	00c787b3          	add	a5,a5,a2
80000af0:	3c078793          	addi	a5,a5,960
80000af4:	00f707b3          	add	a5,a4,a5
80000af8:	01012703          	lw	a4,16(sp)
80000afc:	41f5d513          	srai	a0,a1,0x1f
80000b00:	01b55513          	srli	a0,a0,0x1b
80000b04:	00f707b3          	add	a5,a4,a5
80000b08:	00a58633          	add	a2,a1,a0
80000b0c:	01079793          	slli	a5,a5,0x10
80000b10:	00004737          	lui	a4,0x4
80000b14:	01f67613          	andi	a2,a2,31
80000b18:	0107d793          	srli	a5,a5,0x10
80000b1c:	eff70713          	addi	a4,a4,-257 # 3eff <_entry_offset+0x3eff>
80000b20:	40a60633          	sub	a2,a2,a0
80000b24:	00078513          	mv	a0,a5
80000b28:	10f76a63          	bltu	a4,a5,80000c3c <ppu_draw_background_scanline+0x314>
80000b2c:	00ab8533          	add	a0,s7,a0
80000b30:	00f00f13          	li	t5,15
80000b34:	00054783          	lbu	a5,0(a0)
80000b38:	00cf5463          	bge	t5,a2,80000b40 <ppu_draw_background_scanline+0x218>
80000b3c:	0047d793          	srli	a5,a5,0x4
80000b40:	00040463          	beqz	s0,80000b48 <ppu_draw_background_scanline+0x220>
80000b44:	0027d793          	srli	a5,a5,0x2
80000b48:	0037f793          	andi	a5,a5,3
80000b4c:	00279793          	slli	a5,a5,0x2
80000b50:	01668633          	add	a2,a3,s6
80000b54:	00c787b3          	add	a5,a5,a2
80000b58:	01079793          	slli	a5,a5,0x10
80000b5c:	0107d793          	srli	a5,a5,0x10
80000b60:	0d47fa63          	bgeu	a5,s4,80000c34 <ppu_draw_background_scanline+0x30c>
80000b64:	01f7f793          	andi	a5,a5,31
80000b68:	0167e7b3          	or	a5,a5,s6
80000b6c:	01079793          	slli	a5,a5,0x10
80000b70:	4107d793          	srai	a5,a5,0x10
80000b74:	00004737          	lui	a4,0x4
80000b78:	01079613          	slli	a2,a5,0x10
80000b7c:	f1070713          	addi	a4,a4,-240 # 3f10 <_entry_offset+0x3f10>
80000b80:	01065613          	srli	a2,a2,0x10
80000b84:	1ae78663          	beq	a5,a4,80000d30 <ppu_draw_background_scanline+0x408>
80000b88:	41660533          	sub	a0,a2,s6
80000b8c:	111007b7          	lui	a5,0x11100
80000b90:	00a7d7b3          	srl	a5,a5,a0
80000b94:	0017f793          	andi	a5,a5,1
80000b98:	18079c63          	bnez	a5,80000d30 <ppu_draw_background_scanline+0x408>
80000b9c:	005c1793          	slli	a5,s8,0x5
80000ba0:	418787b3          	sub	a5,a5,s8
80000ba4:	00161717          	auipc	a4,0x161
80000ba8:	f2870713          	addi	a4,a4,-216 # 80161acc <ppu_screen_background>
80000bac:	008cc503          	lbu	a0,8(s9)
80000bb0:	00379793          	slli	a5,a5,0x3
80000bb4:	00f707b3          	add	a5,a4,a5
80000bb8:	00cb8633          	add	a2,s7,a2
80000bbc:	01412703          	lw	a4,20(sp)
80000bc0:	00064603          	lbu	a2,0(a2)
80000bc4:	00b787b3          	add	a5,a5,a1
80000bc8:	40ac0533          	sub	a0,s8,a0
80000bcc:	00158593          	addi	a1,a1,1
80000bd0:	00e50533          	add	a0,a0,a4
80000bd4:	00d78023          	sb	a3,0(a5) # 11100000 <_entry_offset+0x11100000>
80000bd8:	d48ff0ef          	jal	ra,80000120 <draw>
80000bdc:	001c0c13          	addi	s8,s8,1
80000be0:	ed8d9ce3          	bne	s11,s8,80000ab8 <ppu_draw_background_scanline+0x190>
80000be4:	02000793          	li	a5,32
80000be8:	00048413          	mv	s0,s1
80000bec:	00890913          	addi	s2,s2,8
80000bf0:	008d8d93          	addi	s11,s11,8
80000bf4:	dcf498e3          	bne	s1,a5,800009c4 <ppu_draw_background_scanline+0x9c>
80000bf8:	05c12083          	lw	ra,92(sp)
80000bfc:	05812403          	lw	s0,88(sp)
80000c00:	05412483          	lw	s1,84(sp)
80000c04:	05012903          	lw	s2,80(sp)
80000c08:	04c12983          	lw	s3,76(sp)
80000c0c:	04812a03          	lw	s4,72(sp)
80000c10:	04412a83          	lw	s5,68(sp)
80000c14:	04012b03          	lw	s6,64(sp)
80000c18:	03c12b83          	lw	s7,60(sp)
80000c1c:	03812c03          	lw	s8,56(sp)
80000c20:	03412c83          	lw	s9,52(sp)
80000c24:	03012d03          	lw	s10,48(sp)
80000c28:	02c12d83          	lw	s11,44(sp)
80000c2c:	06010113          	addi	sp,sp,96
80000c30:	00008067          	ret
80000c34:	01812603          	lw	a2,24(sp)
80000c38:	f65ff06f          	j	80000b9c <ppu_draw_background_scanline+0x274>
80000c3c:	01812503          	lw	a0,24(sp)
80000c40:	ef47f6e3          	bgeu	a5,s4,80000b2c <ppu_draw_background_scanline+0x204>
80000c44:	01f7f793          	andi	a5,a5,31
80000c48:	0167e7b3          	or	a5,a5,s6
80000c4c:	01079793          	slli	a5,a5,0x10
80000c50:	4107d793          	srai	a5,a5,0x10
80000c54:	00004737          	lui	a4,0x4
80000c58:	01079513          	slli	a0,a5,0x10
80000c5c:	f1070713          	addi	a4,a4,-240 # 3f10 <_entry_offset+0x3f10>
80000c60:	01055513          	srli	a0,a0,0x10
80000c64:	00e78c63          	beq	a5,a4,80000c7c <ppu_draw_background_scanline+0x354>
80000c68:	41650f33          	sub	t5,a0,s6
80000c6c:	111007b7          	lui	a5,0x11100
80000c70:	01e7d7b3          	srl	a5,a5,t5
80000c74:	0017f793          	andi	a5,a5,1
80000c78:	ea078ae3          	beqz	a5,80000b2c <ppu_draw_background_scanline+0x204>
80000c7c:	ff050513          	addi	a0,a0,-16
80000c80:	01051513          	slli	a0,a0,0x10
80000c84:	01055513          	srli	a0,a0,0x10
80000c88:	ea5ff06f          	j	80000b2c <ppu_draw_background_scanline+0x204>
80000c8c:	000cc503          	lbu	a0,0(s9)
80000c90:	020ca783          	lw	a5,32(s9)
80000c94:	00004a97          	auipc	s5,0x4
80000c98:	6f4a8a93          	addi	s5,s5,1780 # 80005388 <ppu_base_nametable_addresses>
80000c9c:	00357713          	andi	a4,a0,3
80000ca0:	00171713          	slli	a4,a4,0x1
80000ca4:	00ea8733          	add	a4,s5,a4
80000ca8:	00075703          	lhu	a4,0(a4)
80000cac:	4037d793          	srai	a5,a5,0x3
80000cb0:	00579793          	slli	a5,a5,0x5
80000cb4:	00e787b3          	add	a5,a5,a4
80000cb8:	40078793          	addi	a5,a5,1024 # 11100400 <_entry_offset+0x11100400>
80000cbc:	10000713          	li	a4,256
80000cc0:	008787b3          	add	a5,a5,s0
80000cc4:	00e12a23          	sw	a4,20(sp)
80000cc8:	40000713          	li	a4,1024
80000ccc:	01079793          	slli	a5,a5,0x10
80000cd0:	00e12823          	sw	a4,16(sp)
80000cd4:	00004737          	lui	a4,0x4
80000cd8:	0107d793          	srli	a5,a5,0x10
80000cdc:	eff70713          	addi	a4,a4,-257 # 3eff <_entry_offset+0x3eff>
80000ce0:	d4f776e3          	bgeu	a4,a5,80000a2c <ppu_draw_background_scanline+0x104>
80000ce4:	01812703          	lw	a4,24(sp)
80000ce8:	d547f4e3          	bgeu	a5,s4,80000a30 <ppu_draw_background_scanline+0x108>
80000cec:	01f7f793          	andi	a5,a5,31
80000cf0:	0167e7b3          	or	a5,a5,s6
80000cf4:	01079793          	slli	a5,a5,0x10
80000cf8:	4107d793          	srai	a5,a5,0x10
80000cfc:	01079713          	slli	a4,a5,0x10
80000d00:	f10a0693          	addi	a3,s4,-240
80000d04:	01075713          	srli	a4,a4,0x10
80000d08:	00d78c63          	beq	a5,a3,80000d20 <ppu_draw_background_scanline+0x3f8>
80000d0c:	416706b3          	sub	a3,a4,s6
80000d10:	111007b7          	lui	a5,0x11100
80000d14:	00d7d7b3          	srl	a5,a5,a3
80000d18:	0017f793          	andi	a5,a5,1
80000d1c:	d0078ae3          	beqz	a5,80000a30 <ppu_draw_background_scanline+0x108>
80000d20:	ff070713          	addi	a4,a4,-16
80000d24:	01071713          	slli	a4,a4,0x10
80000d28:	01075713          	srli	a4,a4,0x10
80000d2c:	d05ff06f          	j	80000a30 <ppu_draw_background_scanline+0x108>
80000d30:	ff060613          	addi	a2,a2,-16
80000d34:	01061613          	slli	a2,a2,0x10
80000d38:	01065613          	srli	a2,a2,0x10
80000d3c:	e61ff06f          	j	80000b9c <ppu_draw_background_scanline+0x274>

80000d40 <ppu_draw_sprite_scanline>:
80000d40:	fb010113          	addi	sp,sp,-80
80000d44:	03a12023          	sw	s10,32(sp)
80000d48:	00010d37          	lui	s10,0x10
80000d4c:	fffd0793          	addi	a5,s10,-1 # ffff <_entry_offset+0xffff>
80000d50:	04812423          	sw	s0,72(sp)
80000d54:	04912223          	sw	s1,68(sp)
80000d58:	01b12e23          	sw	s11,28(sp)
80000d5c:	04112623          	sw	ra,76(sp)
80000d60:	05212023          	sw	s2,64(sp)
80000d64:	03312e23          	sw	s3,60(sp)
80000d68:	03412c23          	sw	s4,56(sp)
80000d6c:	03512a23          	sw	s5,52(sp)
80000d70:	03612823          	sw	s6,48(sp)
80000d74:	03712623          	sw	s7,44(sp)
80000d78:	03812423          	sw	s8,40(sp)
80000d7c:	03912223          	sw	s9,36(sp)
80000d80:	00061d97          	auipc	s11,0x61
80000d84:	c28d8d93          	addi	s11,s11,-984 # 800619a8 <PPU_SPRRAM>
80000d88:	00000493          	li	s1,0
80000d8c:	00012423          	sw	zero,8(sp)
80000d90:	00061417          	auipc	s0,0x61
80000d94:	d1840413          	addi	s0,s0,-744 # 80061aa8 <ppu>
80000d98:	00f12623          	sw	a5,12(sp)
80000d9c:	0140006f          	j	80000db0 <ppu_draw_sprite_scanline+0x70>
80000da0:	00448493          	addi	s1,s1,4
80000da4:	10000793          	li	a5,256
80000da8:	004d8d93          	addi	s11,s11,4
80000dac:	26f48663          	beq	s1,a5,80001018 <ppu_draw_sprite_scanline+0x2d8>
80000db0:	000dca83          	lbu	s5,0(s11)
80000db4:	02042783          	lw	a5,32(s0)
80000db8:	ff57c4e3          	blt	a5,s5,80000da0 <ppu_draw_sprite_scanline+0x60>
80000dbc:	00044503          	lbu	a0,0(s0)
80000dc0:	00500613          	li	a2,5
80000dc4:	00000593          	li	a1,0
80000dc8:	003dcc83          	lbu	s9,3(s11)
80000dcc:	029000ef          	jal	ra,800015f4 <common_bit_set>
80000dd0:	00a03533          	snez	a0,a0
80000dd4:	00351513          	slli	a0,a0,0x3
80000dd8:	02042783          	lw	a5,32(s0)
80000ddc:	00850513          	addi	a0,a0,8
80000de0:	00aa8533          	add	a0,s5,a0
80000de4:	faf54ee3          	blt	a0,a5,80000da0 <ppu_draw_sprite_scanline+0x60>
80000de8:	00812783          	lw	a5,8(sp)
80000dec:	00178793          	addi	a5,a5,1 # 11100001 <_entry_offset+0x11100001>
80000df0:	00078713          	mv	a4,a5
80000df4:	00f12423          	sw	a5,8(sp)
80000df8:	00800793          	li	a5,8
80000dfc:	20e7c263          	blt	a5,a4,80001000 <ppu_draw_sprite_scanline+0x2c0>
80000e00:	00044503          	lbu	a0,0(s0)
80000e04:	00300613          	li	a2,3
80000e08:	00000593          	li	a1,0
80000e0c:	002dcb83          	lbu	s7,2(s11)
80000e10:	7e4000ef          	jal	ra,800015f4 <common_bit_set>
80000e14:	001dc703          	lbu	a4,1(s11)
80000e18:	02042783          	lw	a5,32(s0)
80000e1c:	00c51513          	slli	a0,a0,0xc
80000e20:	00471713          	slli	a4,a4,0x4
80000e24:	018b9613          	slli	a2,s7,0x18
80000e28:	00a70733          	add	a4,a4,a0
80000e2c:	01071713          	slli	a4,a4,0x10
80000e30:	0077f993          	andi	s3,a5,7
80000e34:	41865613          	srai	a2,a2,0x18
80000e38:	040bfb93          	andi	s7,s7,64
80000e3c:	01075713          	srli	a4,a4,0x10
80000e40:	00098793          	mv	a5,s3
80000e44:	00065a63          	bgez	a2,80000e58 <ppu_draw_sprite_scanline+0x118>
80000e48:	00700793          	li	a5,7
80000e4c:	413787b3          	sub	a5,a5,s3
80000e50:	01079793          	slli	a5,a5,0x10
80000e54:	0107d793          	srli	a5,a5,0x10
80000e58:	00e787b3          	add	a5,a5,a4
80000e5c:	01079793          	slli	a5,a5,0x10
80000e60:	0107d793          	srli	a5,a5,0x10
80000e64:	00878713          	addi	a4,a5,8
80000e68:	002dc603          	lbu	a2,2(s11)
80000e6c:	0005da17          	auipc	s4,0x5d
80000e70:	b3ca0a13          	addi	s4,s4,-1220 # 8005d9a8 <PPU_RAM>
80000e74:	01071713          	slli	a4,a4,0x10
80000e78:	00fa07b3          	add	a5,s4,a5
80000e7c:	01075713          	srli	a4,a4,0x10
80000e80:	0007c883          	lbu	a7,0(a5)
80000e84:	00ea0733          	add	a4,s4,a4
80000e88:	00074583          	lbu	a1,0(a4)
80000e8c:	00367913          	andi	s2,a2,3
80000e90:	000047b7          	lui	a5,0x4
80000e94:	f1078613          	addi	a2,a5,-240 # 3f10 <_entry_offset+0x3f10>
80000e98:	00291913          	slli	s2,s2,0x2
80000e9c:	00c90933          	add	s2,s2,a2
80000ea0:	005c9713          	slli	a4,s9,0x5
80000ea4:	00889893          	slli	a7,a7,0x8
80000ea8:	01091793          	slli	a5,s2,0x10
80000eac:	41970733          	sub	a4,a4,s9
80000eb0:	00b888b3          	add	a7,a7,a1
80000eb4:	015989b3          	add	s3,s3,s5
80000eb8:	00371713          	slli	a4,a4,0x3
80000ebc:	00389893          	slli	a7,a7,0x3
80000ec0:	0107d793          	srli	a5,a5,0x10
80000ec4:	01370733          	add	a4,a4,s3
80000ec8:	00161617          	auipc	a2,0x161
80000ecc:	c0460613          	addi	a2,a2,-1020 # 80161acc <ppu_screen_background>
80000ed0:	41988d33          	sub	s10,a7,s9
80000ed4:	00f12223          	sw	a5,4(sp)
80000ed8:	00c70933          	add	s2,a4,a2
80000edc:	008c8c13          	addi	s8,s9,8
80000ee0:	000e1b17          	auipc	s6,0xe1
80000ee4:	becb0b13          	addi	s6,s6,-1044 # 800e1acc <ppu_l_h_addition_table>
80000ee8:	00198993          	addi	s3,s3,1
80000eec:	019d0633          	add	a2,s10,s9
80000ef0:	020b8663          	beqz	s7,80000f1c <ppu_draw_sprite_scanline+0x1dc>
80000ef4:	00061797          	auipc	a5,0x61
80000ef8:	bd878793          	addi	a5,a5,-1064 # 80061acc <ppu_l_h_addition_flip_table>
80000efc:	00f60633          	add	a2,a2,a5
80000f00:	00064a83          	lbu	s5,0(a2)
80000f04:	020a9263          	bnez	s5,80000f28 <ppu_draw_sprite_scanline+0x1e8>
80000f08:	001c8c93          	addi	s9,s9,1
80000f0c:	0f890913          	addi	s2,s2,248
80000f10:	e99c08e3          	beq	s8,s9,80000da0 <ppu_draw_sprite_scanline+0x60>
80000f14:	019d0633          	add	a2,s10,s9
80000f18:	fc0b9ee3          	bnez	s7,80000ef4 <ppu_draw_sprite_scanline+0x1b4>
80000f1c:	01660633          	add	a2,a2,s6
80000f20:	00064a83          	lbu	s5,0(a2)
80000f24:	fe0a82e3          	beqz	s5,80000f08 <ppu_draw_sprite_scanline+0x1c8>
80000f28:	00412783          	lw	a5,4(sp)
80000f2c:	01578633          	add	a2,a5,s5
80000f30:	01061613          	slli	a2,a2,0x10
80000f34:	01065613          	srli	a2,a2,0x10
80000f38:	000047b7          	lui	a5,0x4
80000f3c:	0af67663          	bgeu	a2,a5,80000fe8 <ppu_draw_sprite_scanline+0x2a8>
80000f40:	000047b7          	lui	a5,0x4
80000f44:	01f67593          	andi	a1,a2,31
80000f48:	f0078713          	addi	a4,a5,-256 # 3f00 <_entry_offset+0x3f00>
80000f4c:	00e5e5b3          	or	a1,a1,a4
80000f50:	01059593          	slli	a1,a1,0x10
80000f54:	4105d593          	srai	a1,a1,0x10
80000f58:	01059613          	slli	a2,a1,0x10
80000f5c:	f1078513          	addi	a0,a5,-240
80000f60:	01065613          	srli	a2,a2,0x10
80000f64:	08a58663          	beq	a1,a0,80000ff0 <ppu_draw_sprite_scanline+0x2b0>
80000f68:	40e60533          	sub	a0,a2,a4
80000f6c:	111005b7          	lui	a1,0x11100
80000f70:	00a5d5b3          	srl	a1,a1,a0
80000f74:	0015f593          	andi	a1,a1,1
80000f78:	06059c63          	bnez	a1,80000ff0 <ppu_draw_sprite_scanline+0x2b0>
80000f7c:	00ca0633          	add	a2,s4,a2
80000f80:	00064603          	lbu	a2,0(a2)
80000f84:	00098593          	mv	a1,s3
80000f88:	000c8513          	mv	a0,s9
80000f8c:	994ff0ef          	jal	ra,80000120 <draw>
80000f90:	00144503          	lbu	a0,1(s0)
80000f94:	00300613          	li	a2,3
80000f98:	00000593          	li	a1,0
80000f9c:	658000ef          	jal	ra,800015f4 <common_bit_set>
80000fa0:	f60504e3          	beqz	a0,80000f08 <ppu_draw_sprite_scanline+0x1c8>
80000fa4:	00179797          	auipc	a5,0x179
80000fa8:	70378793          	addi	a5,a5,1795 # 8017a6a7 <ppu_sprite_hit_occured>
80000fac:	0007c603          	lbu	a2,0(a5)
80000fb0:	f4061ce3          	bnez	a2,80000f08 <ppu_draw_sprite_scanline+0x1c8>
80000fb4:	f4049ae3          	bnez	s1,80000f08 <ppu_draw_sprite_scanline+0x1c8>
80000fb8:	00094603          	lbu	a2,0(s2)
80000fbc:	f55616e3          	bne	a2,s5,80000f08 <ppu_draw_sprite_scanline+0x1c8>
80000fc0:	00100613          	li	a2,1
80000fc4:	00600593          	li	a1,6
80000fc8:	00061517          	auipc	a0,0x61
80000fcc:	ae250513          	addi	a0,a0,-1310 # 80061aaa <ppu+0x2>
80000fd0:	678000ef          	jal	ra,80001648 <common_modify_bitb>
80000fd4:	00100613          	li	a2,1
80000fd8:	00179797          	auipc	a5,0x179
80000fdc:	6cf78793          	addi	a5,a5,1743 # 8017a6a7 <ppu_sprite_hit_occured>
80000fe0:	00c78023          	sb	a2,0(a5)
80000fe4:	f25ff06f          	j	80000f08 <ppu_draw_sprite_scanline+0x1c8>
80000fe8:	00c12603          	lw	a2,12(sp)
80000fec:	f91ff06f          	j	80000f7c <ppu_draw_sprite_scanline+0x23c>
80000ff0:	ff060613          	addi	a2,a2,-16
80000ff4:	01061613          	slli	a2,a2,0x10
80000ff8:	01065613          	srli	a2,a2,0x10
80000ffc:	f81ff06f          	j	80000f7c <ppu_draw_sprite_scanline+0x23c>
80001000:	00100613          	li	a2,1
80001004:	00500593          	li	a1,5
80001008:	00061517          	auipc	a0,0x61
8000100c:	aa250513          	addi	a0,a0,-1374 # 80061aaa <ppu+0x2>
80001010:	638000ef          	jal	ra,80001648 <common_modify_bitb>
80001014:	dedff06f          	j	80000e00 <ppu_draw_sprite_scanline+0xc0>
80001018:	04c12083          	lw	ra,76(sp)
8000101c:	04812403          	lw	s0,72(sp)
80001020:	04412483          	lw	s1,68(sp)
80001024:	04012903          	lw	s2,64(sp)
80001028:	03c12983          	lw	s3,60(sp)
8000102c:	03812a03          	lw	s4,56(sp)
80001030:	03412a83          	lw	s5,52(sp)
80001034:	03012b03          	lw	s6,48(sp)
80001038:	02c12b83          	lw	s7,44(sp)
8000103c:	02812c03          	lw	s8,40(sp)
80001040:	02412c83          	lw	s9,36(sp)
80001044:	02012d03          	lw	s10,32(sp)
80001048:	01c12d83          	lw	s11,28(sp)
8000104c:	05010113          	addi	sp,sp,80
80001050:	00008067          	ret

80001054 <ppu_cycle>:
80001054:	ff010113          	addi	sp,sp,-16
80001058:	00812423          	sw	s0,8(sp)
8000105c:	00061417          	auipc	s0,0x61
80001060:	a4c40413          	addi	s0,s0,-1460 # 80061aa8 <ppu>
80001064:	01044783          	lbu	a5,16(s0)
80001068:	00112623          	sw	ra,12(sp)
8000106c:	06078063          	beqz	a5,800010cc <ppu_cycle+0x78>
80001070:	10000513          	li	a0,256
80001074:	0d5020ef          	jal	ra,80003948 <cpu_run>
80001078:	02042783          	lw	a5,32(s0)
8000107c:	0ef00713          	li	a4,239
80001080:	00178793          	addi	a5,a5,1
80001084:	02f42023          	sw	a5,32(s0)
80001088:	06f75e63          	bge	a4,a5,80001104 <ppu_cycle+0xb0>
8000108c:	04500513          	li	a0,69
80001090:	0b9020ef          	jal	ra,80003948 <cpu_run>
80001094:	02042703          	lw	a4,32(s0)
80001098:	0ef00793          	li	a5,239
8000109c:	0ae7d063          	bge	a5,a4,8000113c <ppu_cycle+0xe8>
800010a0:	01000513          	li	a0,16
800010a4:	0a5020ef          	jal	ra,80003948 <cpu_run>
800010a8:	02042783          	lw	a5,32(s0)
800010ac:	0f100713          	li	a4,241
800010b0:	0ae78c63          	beq	a5,a4,80001168 <ppu_cycle+0x114>
800010b4:	10600713          	li	a4,262
800010b8:	0ee78463          	beq	a5,a4,800011a0 <ppu_cycle+0x14c>
800010bc:	00c12083          	lw	ra,12(sp)
800010c0:	00812403          	lw	s0,8(sp)
800010c4:	01010113          	addi	sp,sp,16
800010c8:	00008067          	ret
800010cc:	069020ef          	jal	ra,80003934 <cpu_clock>
800010d0:	00059863          	bnez	a1,800010e0 <ppu_cycle+0x8c>
800010d4:	000077b7          	lui	a5,0x7
800010d8:	3da78793          	addi	a5,a5,986 # 73da <_entry_offset+0x73da>
800010dc:	f8a7fae3          	bgeu	a5,a0,80001070 <ppu_cycle+0x1c>
800010e0:	00100793          	li	a5,1
800010e4:	10000513          	li	a0,256
800010e8:	00f40823          	sb	a5,16(s0)
800010ec:	05d020ef          	jal	ra,80003948 <cpu_run>
800010f0:	02042783          	lw	a5,32(s0)
800010f4:	0ef00713          	li	a4,239
800010f8:	00178793          	addi	a5,a5,1
800010fc:	02f42023          	sw	a5,32(s0)
80001100:	f8f746e3          	blt	a4,a5,8000108c <ppu_cycle+0x38>
80001104:	00144503          	lbu	a0,1(s0)
80001108:	00300613          	li	a2,3
8000110c:	00000593          	li	a1,0
80001110:	4e4000ef          	jal	ra,800015f4 <common_bit_set>
80001114:	f6050ce3          	beqz	a0,8000108c <ppu_cycle+0x38>
80001118:	00000513          	li	a0,0
8000111c:	80dff0ef          	jal	ra,80000928 <ppu_draw_background_scanline>
80001120:	00100513          	li	a0,1
80001124:	805ff0ef          	jal	ra,80000928 <ppu_draw_background_scanline>
80001128:	04500513          	li	a0,69
8000112c:	01d020ef          	jal	ra,80003948 <cpu_run>
80001130:	02042703          	lw	a4,32(s0)
80001134:	0ef00793          	li	a5,239
80001138:	f6e7c4e3          	blt	a5,a4,800010a0 <ppu_cycle+0x4c>
8000113c:	00144503          	lbu	a0,1(s0)
80001140:	00400613          	li	a2,4
80001144:	00000593          	li	a1,0
80001148:	4ac000ef          	jal	ra,800015f4 <common_bit_set>
8000114c:	f4050ae3          	beqz	a0,800010a0 <ppu_cycle+0x4c>
80001150:	bf1ff0ef          	jal	ra,80000d40 <ppu_draw_sprite_scanline>
80001154:	01000513          	li	a0,16
80001158:	7f0020ef          	jal	ra,80003948 <cpu_run>
8000115c:	02042783          	lw	a5,32(s0)
80001160:	0f100713          	li	a4,241
80001164:	f4e798e3          	bne	a5,a4,800010b4 <ppu_cycle+0x60>
80001168:	00100613          	li	a2,1
8000116c:	00700593          	li	a1,7
80001170:	00061517          	auipc	a0,0x61
80001174:	93a50513          	addi	a0,a0,-1734 # 80061aaa <ppu+0x2>
80001178:	4d0000ef          	jal	ra,80001648 <common_modify_bitb>
8000117c:	00000613          	li	a2,0
80001180:	00600593          	li	a1,6
80001184:	00061517          	auipc	a0,0x61
80001188:	92650513          	addi	a0,a0,-1754 # 80061aaa <ppu+0x2>
8000118c:	4bc000ef          	jal	ra,80001648 <common_modify_bitb>
80001190:	00812403          	lw	s0,8(sp)
80001194:	00c12083          	lw	ra,12(sp)
80001198:	01010113          	addi	sp,sp,16
8000119c:	6f80206f          	j	80003894 <cpu_interrupt>
800011a0:	fff00793          	li	a5,-1
800011a4:	00000613          	li	a2,0
800011a8:	00700593          	li	a1,7
800011ac:	00061517          	auipc	a0,0x61
800011b0:	8fe50513          	addi	a0,a0,-1794 # 80061aaa <ppu+0x2>
800011b4:	02f42023          	sw	a5,32(s0)
800011b8:	00179797          	auipc	a5,0x179
800011bc:	4e0787a3          	sb	zero,1263(a5) # 8017a6a7 <ppu_sprite_hit_occured>
800011c0:	488000ef          	jal	ra,80001648 <common_modify_bitb>
800011c4:	00812403          	lw	s0,8(sp)
800011c8:	00c12083          	lw	ra,12(sp)
800011cc:	01010113          	addi	sp,sp,16
800011d0:	a30ff06f          	j	80000400 <fce_update_screen>

800011d4 <ppu_copy>:
800011d4:	0005c797          	auipc	a5,0x5c
800011d8:	7d478793          	addi	a5,a5,2004 # 8005d9a8 <PPU_RAM>
800011dc:	00a78533          	add	a0,a5,a0
800011e0:	0b90306f          	j	80004a98 <memcpy>

800011e4 <ppuio_read>:
800011e4:	ff010113          	addi	sp,sp,-16
800011e8:	00812423          	sw	s0,8(sp)
800011ec:	00061417          	auipc	s0,0x61
800011f0:	8bc40413          	addi	s0,s0,-1860 # 80061aa8 <ppu>
800011f4:	00a45783          	lhu	a5,10(s0)
800011f8:	00757713          	andi	a4,a0,7
800011fc:	00112623          	sw	ra,12(sp)
80001200:	01279513          	slli	a0,a5,0x12
80001204:	01255513          	srli	a0,a0,0x12
80001208:	00912223          	sw	s1,4(sp)
8000120c:	00a41523          	sh	a0,10(s0)
80001210:	00400793          	li	a5,4
80001214:	02f70863          	beq	a4,a5,80001244 <ppuio_read+0x60>
80001218:	00700793          	li	a5,7
8000121c:	0af70e63          	beq	a4,a5,800012d8 <ppuio_read+0xf4>
80001220:	00200793          	li	a5,2
80001224:	0ff00493          	li	s1,255
80001228:	04f70463          	beq	a4,a5,80001270 <ppuio_read+0x8c>
8000122c:	00c12083          	lw	ra,12(sp)
80001230:	00812403          	lw	s0,8(sp)
80001234:	00048513          	mv	a0,s1
80001238:	00412483          	lw	s1,4(sp)
8000123c:	01010113          	addi	sp,sp,16
80001240:	00008067          	ret
80001244:	00344703          	lbu	a4,3(s0)
80001248:	00060797          	auipc	a5,0x60
8000124c:	76078793          	addi	a5,a5,1888 # 800619a8 <PPU_SPRRAM>
80001250:	00c12083          	lw	ra,12(sp)
80001254:	00e787b3          	add	a5,a5,a4
80001258:	0007c483          	lbu	s1,0(a5)
8000125c:	00812403          	lw	s0,8(sp)
80001260:	00048513          	mv	a0,s1
80001264:	00412483          	lw	s1,4(sp)
80001268:	01010113          	addi	sp,sp,16
8000126c:	00008067          	ret
80001270:	00000613          	li	a2,0
80001274:	00700593          	li	a1,7
80001278:	00061517          	auipc	a0,0x61
8000127c:	83250513          	addi	a0,a0,-1998 # 80061aaa <ppu+0x2>
80001280:	00244483          	lbu	s1,2(s0)
80001284:	3c4000ef          	jal	ra,80001648 <common_modify_bitb>
80001288:	00061517          	auipc	a0,0x61
8000128c:	82250513          	addi	a0,a0,-2014 # 80061aaa <ppu+0x2>
80001290:	00000613          	li	a2,0
80001294:	00600593          	li	a1,6
80001298:	3b0000ef          	jal	ra,80001648 <common_modify_bitb>
8000129c:	00c12083          	lw	ra,12(sp)
800012a0:	00812403          	lw	s0,8(sp)
800012a4:	00061797          	auipc	a5,0x61
800012a8:	80079523          	sh	zero,-2038(a5) # 80061aae <ppu+0x6>
800012ac:	00061797          	auipc	a5,0x61
800012b0:	80079523          	sh	zero,-2038(a5) # 80061ab6 <ppu+0xe>
800012b4:	00179797          	auipc	a5,0x179
800012b8:	3e078923          	sb	zero,1010(a5) # 8017a6a6 <ppu_addr_latch>
800012bc:	00100793          	li	a5,1
800012c0:	00179717          	auipc	a4,0x179
800012c4:	3ef702a3          	sb	a5,997(a4) # 8017a6a5 <ppu_2007_first_read>
800012c8:	00048513          	mv	a0,s1
800012cc:	00412483          	lw	s1,4(sp)
800012d0:	01010113          	addi	sp,sp,16
800012d4:	00008067          	ret
800012d8:	d50ff0ef          	jal	ra,80000828 <ppu_get_real_ram_address>
800012dc:	0005c797          	auipc	a5,0x5c
800012e0:	6cc78793          	addi	a5,a5,1740 # 8005d9a8 <PPU_RAM>
800012e4:	00a787b3          	add	a5,a5,a0
800012e8:	00179717          	auipc	a4,0x179
800012ec:	3bd74703          	lbu	a4,957(a4) # 8017a6a5 <ppu_2007_first_read>
800012f0:	0007c483          	lbu	s1,0(a5)
800012f4:	02070263          	beqz	a4,80001318 <ppuio_read+0x134>
800012f8:	00c12083          	lw	ra,12(sp)
800012fc:	00812403          	lw	s0,8(sp)
80001300:	00179797          	auipc	a5,0x179
80001304:	3a0782a3          	sb	zero,933(a5) # 8017a6a5 <ppu_2007_first_read>
80001308:	00048513          	mv	a0,s1
8000130c:	00412483          	lw	s1,4(sp)
80001310:	01010113          	addi	sp,sp,16
80001314:	00008067          	ret
80001318:	00044503          	lbu	a0,0(s0)
8000131c:	00200613          	li	a2,2
80001320:	00000593          	li	a1,0
80001324:	2d0000ef          	jal	ra,800015f4 <common_bit_set>
80001328:	00a037b3          	snez	a5,a0
8000132c:	00a45703          	lhu	a4,10(s0)
80001330:	40f007b3          	neg	a5,a5
80001334:	01f7f793          	andi	a5,a5,31
80001338:	00178793          	addi	a5,a5,1
8000133c:	00e787b3          	add	a5,a5,a4
80001340:	00f41523          	sh	a5,10(s0)
80001344:	ee9ff06f          	j	8000122c <ppuio_read+0x48>

80001348 <ppuio_write>:
80001348:	00757513          	andi	a0,a0,7
8000134c:	ff010113          	addi	sp,sp,-16
80001350:	00060797          	auipc	a5,0x60
80001354:	75878793          	addi	a5,a5,1880 # 80061aa8 <ppu>
80001358:	00004697          	auipc	a3,0x4
8000135c:	d9468693          	addi	a3,a3,-620 # 800050ec <MAP+0x400>
80001360:	00251513          	slli	a0,a0,0x2
80001364:	00812423          	sw	s0,8(sp)
80001368:	00d50533          	add	a0,a0,a3
8000136c:	00a7d403          	lhu	s0,10(a5)
80001370:	00052703          	lw	a4,0(a0)
80001374:	01212023          	sw	s2,0(sp)
80001378:	01241413          	slli	s0,s0,0x12
8000137c:	00112623          	sw	ra,12(sp)
80001380:	00912223          	sw	s1,4(sp)
80001384:	01245413          	srli	s0,s0,0x12
80001388:	00d70733          	add	a4,a4,a3
8000138c:	00058913          	mv	s2,a1
80001390:	00879523          	sh	s0,10(a5)
80001394:	00070067          	jr	a4
80001398:	00e7c703          	lbu	a4,14(a5)
8000139c:	10070663          	beqz	a4,800014a8 <ppuio_write+0x160>
800013a0:	00b784a3          	sb	a1,9(a5)
800013a4:	00174713          	xori	a4,a4,1
800013a8:	00e78723          	sb	a4,14(a5)
800013ac:	00c12083          	lw	ra,12(sp)
800013b0:	00812403          	lw	s0,8(sp)
800013b4:	00412483          	lw	s1,4(sp)
800013b8:	00012903          	lw	s2,0(sp)
800013bc:	01010113          	addi	sp,sp,16
800013c0:	00008067          	ret
800013c4:	0187d503          	lhu	a0,24(a5)
800013c8:	0005c497          	auipc	s1,0x5c
800013cc:	5e048493          	addi	s1,s1,1504 # 8005d9a8 <PPU_RAM>
800013d0:	00a44533          	xor	a0,s0,a0
800013d4:	c54ff0ef          	jal	ra,80000828 <ppu_get_real_ram_address>
800013d8:	00a487b3          	add	a5,s1,a0
800013dc:	01278023          	sb	s2,0(a5)
800013e0:	00040513          	mv	a0,s0
800013e4:	c44ff0ef          	jal	ra,80000828 <ppu_get_real_ram_address>
800013e8:	00a484b3          	add	s1,s1,a0
800013ec:	01248023          	sb	s2,0(s1)
800013f0:	00c12083          	lw	ra,12(sp)
800013f4:	00812403          	lw	s0,8(sp)
800013f8:	00412483          	lw	s1,4(sp)
800013fc:	00012903          	lw	s2,0(sp)
80001400:	01010113          	addi	sp,sp,16
80001404:	00008067          	ret
80001408:	0107c703          	lbu	a4,16(a5)
8000140c:	fa0700e3          	beqz	a4,800013ac <ppuio_write+0x64>
80001410:	00b78023          	sb	a1,0(a5)
80001414:	f99ff06f          	j	800013ac <ppuio_write+0x64>
80001418:	0107c703          	lbu	a4,16(a5)
8000141c:	f80708e3          	beqz	a4,800013ac <ppuio_write+0x64>
80001420:	00b780a3          	sb	a1,1(a5)
80001424:	f89ff06f          	j	800013ac <ppuio_write+0x64>
80001428:	00b781a3          	sb	a1,3(a5)
8000142c:	00c12083          	lw	ra,12(sp)
80001430:	00812403          	lw	s0,8(sp)
80001434:	00412483          	lw	s1,4(sp)
80001438:	00012903          	lw	s2,0(sp)
8000143c:	01010113          	addi	sp,sp,16
80001440:	00008067          	ret
80001444:	0037c683          	lbu	a3,3(a5)
80001448:	00060717          	auipc	a4,0x60
8000144c:	56070713          	addi	a4,a4,1376 # 800619a8 <PPU_SPRRAM>
80001450:	00168613          	addi	a2,a3,1
80001454:	00d70733          	add	a4,a4,a3
80001458:	00c781a3          	sb	a2,3(a5)
8000145c:	00b70023          	sb	a1,0(a4)
80001460:	00c12083          	lw	ra,12(sp)
80001464:	00812403          	lw	s0,8(sp)
80001468:	00412483          	lw	s1,4(sp)
8000146c:	00012903          	lw	s2,0(sp)
80001470:	01010113          	addi	sp,sp,16
80001474:	00008067          	ret
80001478:	0107c703          	lbu	a4,16(a5)
8000147c:	f20708e3          	beqz	a4,800013ac <ppuio_write+0x64>
80001480:	00f7c703          	lbu	a4,15(a5)
80001484:	02071663          	bnez	a4,800014b0 <ppuio_write+0x168>
80001488:	00179697          	auipc	a3,0x179
8000148c:	20b68f23          	sb	a1,542(a3) # 8017a6a6 <ppu_addr_latch>
80001490:	00174713          	xori	a4,a4,1
80001494:	00e787a3          	sb	a4,15(a5)
80001498:	00100793          	li	a5,1
8000149c:	00179717          	auipc	a4,0x179
800014a0:	20f704a3          	sb	a5,521(a4) # 8017a6a5 <ppu_2007_first_read>
800014a4:	f09ff06f          	j	800013ac <ppuio_write+0x64>
800014a8:	00b78423          	sb	a1,8(a5)
800014ac:	ef9ff06f          	j	800013a4 <ppuio_write+0x5c>
800014b0:	00179697          	auipc	a3,0x179
800014b4:	1f66c683          	lbu	a3,502(a3) # 8017a6a6 <ppu_addr_latch>
800014b8:	00869693          	slli	a3,a3,0x8
800014bc:	00b686b3          	add	a3,a3,a1
800014c0:	00d79523          	sh	a3,10(a5)
800014c4:	fcdff06f          	j	80001490 <ppuio_write+0x148>

800014c8 <ppu_init>:
800014c8:	00a007b7          	lui	a5,0xa00
800014cc:	00060717          	auipc	a4,0x60
800014d0:	5cf72e23          	sw	a5,1500(a4) # 80061aa8 <ppu>
800014d4:	00060797          	auipc	a5,0x60
800014d8:	5c07ae23          	sw	zero,1500(a5) # 80061ab0 <ppu+0x8>
800014dc:	00060797          	auipc	a5,0x60
800014e0:	5c079c23          	sh	zero,1496(a5) # 80061ab4 <ppu+0xc>
800014e4:	ff010113          	addi	sp,sp,-16
800014e8:	00100793          	li	a5,1
800014ec:	000012b7          	lui	t0,0x1
800014f0:	00812623          	sw	s0,12(sp)
800014f4:	00912423          	sw	s1,8(sp)
800014f8:	00179717          	auipc	a4,0x179
800014fc:	1af706a3          	sb	a5,429(a4) # 8017a6a5 <ppu_2007_first_read>
80001500:	000e0497          	auipc	s1,0xe0
80001504:	5cc48493          	addi	s1,s1,1484 # 800e1acc <ppu_l_h_addition_table>
80001508:	00060417          	auipc	s0,0x60
8000150c:	5c440413          	addi	s0,s0,1476 # 80061acc <ppu_l_h_addition_flip_table>
80001510:	00000813          	li	a6,0
80001514:	00700f93          	li	t6,7
80001518:	00800f13          	li	t5,8
8000151c:	80028293          	addi	t0,t0,-2048 # 800 <_entry_offset+0x800>
80001520:	10000393          	li	t2,256
80001524:	00040e93          	mv	t4,s0
80001528:	00048e13          	mv	t3,s1
8000152c:	00000513          	li	a0,0
80001530:	00000793          	li	a5,0
80001534:	40ff8633          	sub	a2,t6,a5
80001538:	40f85733          	sra	a4,a6,a5
8000153c:	40c856b3          	sra	a3,a6,a2
80001540:	40f555b3          	sra	a1,a0,a5
80001544:	00169693          	slli	a3,a3,0x1
80001548:	40c55633          	sra	a2,a0,a2
8000154c:	00171713          	slli	a4,a4,0x1
80001550:	0026f693          	andi	a3,a3,2
80001554:	00167613          	andi	a2,a2,1
80001558:	00277713          	andi	a4,a4,2
8000155c:	0015f593          	andi	a1,a1,1
80001560:	00fe0333          	add	t1,t3,a5
80001564:	00fe88b3          	add	a7,t4,a5
80001568:	00c6e6b3          	or	a3,a3,a2
8000156c:	00b76733          	or	a4,a4,a1
80001570:	00d30023          	sb	a3,0(t1)
80001574:	00e88023          	sb	a4,0(a7)
80001578:	00178793          	addi	a5,a5,1
8000157c:	fbe79ce3          	bne	a5,t5,80001534 <ppu_init+0x6c>
80001580:	00150513          	addi	a0,a0,1
80001584:	005e0e33          	add	t3,t3,t0
80001588:	005e8eb3          	add	t4,t4,t0
8000158c:	fa7512e3          	bne	a0,t2,80001530 <ppu_init+0x68>
80001590:	00180813          	addi	a6,a6,1
80001594:	00848493          	addi	s1,s1,8
80001598:	00840413          	addi	s0,s0,8
8000159c:	f8a814e3          	bne	a6,a0,80001524 <ppu_init+0x5c>
800015a0:	00c12403          	lw	s0,12(sp)
800015a4:	00812483          	lw	s1,8(sp)
800015a8:	01010113          	addi	sp,sp,16
800015ac:	00008067          	ret

800015b0 <ppu_sprram_write>:
800015b0:	00060717          	auipc	a4,0x60
800015b4:	4f870713          	addi	a4,a4,1272 # 80061aa8 <ppu>
800015b8:	00374683          	lbu	a3,3(a4)
800015bc:	00060797          	auipc	a5,0x60
800015c0:	3ec78793          	addi	a5,a5,1004 # 800619a8 <PPU_SPRRAM>
800015c4:	00168613          	addi	a2,a3,1
800015c8:	00d787b3          	add	a5,a5,a3
800015cc:	00c701a3          	sb	a2,3(a4)
800015d0:	00a78023          	sb	a0,0(a5)
800015d4:	00008067          	ret

800015d8 <ppu_set_mirroring>:
800015d8:	40000793          	li	a5,1024
800015dc:	00060717          	auipc	a4,0x60
800015e0:	4cc70713          	addi	a4,a4,1228 # 80061aa8 <ppu>
800015e4:	00a797b3          	sll	a5,a5,a0
800015e8:	00a72a23          	sw	a0,20(a4)
800015ec:	00f72c23          	sw	a5,24(a4)
800015f0:	00008067          	ret

800015f4 <common_bit_set>:
800015f4:	00100793          	li	a5,1
800015f8:	00c79633          	sll	a2,a5,a2
800015fc:	41f65793          	srai	a5,a2,0x1f
80001600:	00b7f7b3          	and	a5,a5,a1
80001604:	00a67633          	and	a2,a2,a0
80001608:	00f66633          	or	a2,a2,a5
8000160c:	00c03533          	snez	a0,a2
80001610:	00008067          	ret

80001614 <common_set_bitb>:
80001614:	00054783          	lbu	a5,0(a0)
80001618:	00100713          	li	a4,1
8000161c:	00b71733          	sll	a4,a4,a1
80001620:	00e7e7b3          	or	a5,a5,a4
80001624:	00f50023          	sb	a5,0(a0)
80001628:	00008067          	ret

8000162c <common_unset_bitb>:
8000162c:	00054703          	lbu	a4,0(a0)
80001630:	00100793          	li	a5,1
80001634:	00b797b3          	sll	a5,a5,a1
80001638:	fff7c793          	not	a5,a5
8000163c:	00e7f7b3          	and	a5,a5,a4
80001640:	00f50023          	sb	a5,0(a0)
80001644:	00008067          	ret

80001648 <common_modify_bitb>:
80001648:	00100713          	li	a4,1
8000164c:	00054783          	lbu	a5,0(a0)
80001650:	00b71733          	sll	a4,a4,a1
80001654:	00060a63          	beqz	a2,80001668 <common_modify_bitb+0x20>
80001658:	00e7e7b3          	or	a5,a5,a4
8000165c:	0ff7f793          	zext.b	a5,a5
80001660:	00f50023          	sb	a5,0(a0)
80001664:	00008067          	ret
80001668:	fff74713          	not	a4,a4
8000166c:	00e7f7b3          	and	a5,a5,a4
80001670:	00f50023          	sb	a5,0(a0)
80001674:	00008067          	ret

80001678 <____FE____>:
80001678:	00008067          	ret

8000167c <cpu_op_and>:
8000167c:	00179797          	auipc	a5,0x179
80001680:	02c78793          	addi	a5,a5,44 # 8017a6a8 <cpu>
80001684:	0037c703          	lbu	a4,3(a5)
80001688:	00179697          	auipc	a3,0x179
8000168c:	03c6a683          	lw	a3,60(a3) # 8017a6c4 <op_value>
80001690:	0067c603          	lbu	a2,6(a5)
80001694:	00d77733          	and	a4,a4,a3
80001698:	00004697          	auipc	a3,0x4
8000169c:	a7468693          	addi	a3,a3,-1420 # 8000510c <cpu_zn_flag_table>
800016a0:	00e686b3          	add	a3,a3,a4
800016a4:	0006c683          	lbu	a3,0(a3)
800016a8:	07d67613          	andi	a2,a2,125
800016ac:	00e781a3          	sb	a4,3(a5)
800016b0:	00c6e733          	or	a4,a3,a2
800016b4:	00e78323          	sb	a4,6(a5)
800016b8:	00008067          	ret

800016bc <cpu_op_eor>:
800016bc:	00179797          	auipc	a5,0x179
800016c0:	fec78793          	addi	a5,a5,-20 # 8017a6a8 <cpu>
800016c4:	0037c703          	lbu	a4,3(a5)
800016c8:	00179697          	auipc	a3,0x179
800016cc:	ffc6c683          	lbu	a3,-4(a3) # 8017a6c4 <op_value>
800016d0:	0067c603          	lbu	a2,6(a5)
800016d4:	00d74733          	xor	a4,a4,a3
800016d8:	00004697          	auipc	a3,0x4
800016dc:	a3468693          	addi	a3,a3,-1484 # 8000510c <cpu_zn_flag_table>
800016e0:	00e686b3          	add	a3,a3,a4
800016e4:	0006c683          	lbu	a3,0(a3)
800016e8:	07d67613          	andi	a2,a2,125
800016ec:	00e781a3          	sb	a4,3(a5)
800016f0:	00c6e733          	or	a4,a3,a2
800016f4:	00e78323          	sb	a4,6(a5)
800016f8:	00008067          	ret

800016fc <cpu_op_ora>:
800016fc:	00179797          	auipc	a5,0x179
80001700:	fac78793          	addi	a5,a5,-84 # 8017a6a8 <cpu>
80001704:	0037c703          	lbu	a4,3(a5)
80001708:	00179697          	auipc	a3,0x179
8000170c:	fbc6c683          	lbu	a3,-68(a3) # 8017a6c4 <op_value>
80001710:	0067c603          	lbu	a2,6(a5)
80001714:	00d76733          	or	a4,a4,a3
80001718:	00004697          	auipc	a3,0x4
8000171c:	9f468693          	addi	a3,a3,-1548 # 8000510c <cpu_zn_flag_table>
80001720:	00e686b3          	add	a3,a3,a4
80001724:	0006c683          	lbu	a3,0(a3)
80001728:	07d67613          	andi	a2,a2,125
8000172c:	00e781a3          	sb	a4,3(a5)
80001730:	00c6e733          	or	a4,a3,a2
80001734:	00e78323          	sb	a4,6(a5)
80001738:	00008067          	ret

8000173c <cpu_op_lda>:
8000173c:	00179617          	auipc	a2,0x179
80001740:	f8862603          	lw	a2,-120(a2) # 8017a6c4 <op_value>
80001744:	00179797          	auipc	a5,0x179
80001748:	f6478793          	addi	a5,a5,-156 # 8017a6a8 <cpu>
8000174c:	0ff67593          	zext.b	a1,a2
80001750:	00004717          	auipc	a4,0x4
80001754:	9bc70713          	addi	a4,a4,-1604 # 8000510c <cpu_zn_flag_table>
80001758:	0067c683          	lbu	a3,6(a5)
8000175c:	00b70733          	add	a4,a4,a1
80001760:	00074703          	lbu	a4,0(a4)
80001764:	07d6f693          	andi	a3,a3,125
80001768:	00c781a3          	sb	a2,3(a5)
8000176c:	00d76733          	or	a4,a4,a3
80001770:	00e78323          	sb	a4,6(a5)
80001774:	00008067          	ret

80001778 <cpu_op_ldx>:
80001778:	00179617          	auipc	a2,0x179
8000177c:	f4c62603          	lw	a2,-180(a2) # 8017a6c4 <op_value>
80001780:	00179797          	auipc	a5,0x179
80001784:	f2878793          	addi	a5,a5,-216 # 8017a6a8 <cpu>
80001788:	0ff67593          	zext.b	a1,a2
8000178c:	00004717          	auipc	a4,0x4
80001790:	98070713          	addi	a4,a4,-1664 # 8000510c <cpu_zn_flag_table>
80001794:	0067c683          	lbu	a3,6(a5)
80001798:	00b70733          	add	a4,a4,a1
8000179c:	00074703          	lbu	a4,0(a4)
800017a0:	07d6f693          	andi	a3,a3,125
800017a4:	00c78223          	sb	a2,4(a5)
800017a8:	00d76733          	or	a4,a4,a3
800017ac:	00e78323          	sb	a4,6(a5)
800017b0:	00008067          	ret

800017b4 <cpu_op_ldy>:
800017b4:	00179617          	auipc	a2,0x179
800017b8:	f1062603          	lw	a2,-240(a2) # 8017a6c4 <op_value>
800017bc:	00179797          	auipc	a5,0x179
800017c0:	eec78793          	addi	a5,a5,-276 # 8017a6a8 <cpu>
800017c4:	0ff67593          	zext.b	a1,a2
800017c8:	00004717          	auipc	a4,0x4
800017cc:	94470713          	addi	a4,a4,-1724 # 8000510c <cpu_zn_flag_table>
800017d0:	0067c683          	lbu	a3,6(a5)
800017d4:	00b70733          	add	a4,a4,a1
800017d8:	00074703          	lbu	a4,0(a4)
800017dc:	07d6f693          	andi	a3,a3,125
800017e0:	00c782a3          	sb	a2,5(a5)
800017e4:	00d76733          	or	a4,a4,a3
800017e8:	00e78323          	sb	a4,6(a5)
800017ec:	00008067          	ret

800017f0 <cpu_op_tax>:
800017f0:	00179797          	auipc	a5,0x179
800017f4:	eb878793          	addi	a5,a5,-328 # 8017a6a8 <cpu>
800017f8:	0037c603          	lbu	a2,3(a5)
800017fc:	00004717          	auipc	a4,0x4
80001800:	91070713          	addi	a4,a4,-1776 # 8000510c <cpu_zn_flag_table>
80001804:	0067c683          	lbu	a3,6(a5)
80001808:	00c70733          	add	a4,a4,a2
8000180c:	00074703          	lbu	a4,0(a4)
80001810:	07d6f693          	andi	a3,a3,125
80001814:	00c78223          	sb	a2,4(a5)
80001818:	00d76733          	or	a4,a4,a3
8000181c:	00e78323          	sb	a4,6(a5)
80001820:	00008067          	ret

80001824 <cpu_op_txa>:
80001824:	00179797          	auipc	a5,0x179
80001828:	e8478793          	addi	a5,a5,-380 # 8017a6a8 <cpu>
8000182c:	0047c603          	lbu	a2,4(a5)
80001830:	00004717          	auipc	a4,0x4
80001834:	8dc70713          	addi	a4,a4,-1828 # 8000510c <cpu_zn_flag_table>
80001838:	0067c683          	lbu	a3,6(a5)
8000183c:	00c70733          	add	a4,a4,a2
80001840:	00074703          	lbu	a4,0(a4)
80001844:	07d6f693          	andi	a3,a3,125
80001848:	00c781a3          	sb	a2,3(a5)
8000184c:	00d76733          	or	a4,a4,a3
80001850:	00e78323          	sb	a4,6(a5)
80001854:	00008067          	ret

80001858 <cpu_op_tay>:
80001858:	00179797          	auipc	a5,0x179
8000185c:	e5078793          	addi	a5,a5,-432 # 8017a6a8 <cpu>
80001860:	0037c603          	lbu	a2,3(a5)
80001864:	00004717          	auipc	a4,0x4
80001868:	8a870713          	addi	a4,a4,-1880 # 8000510c <cpu_zn_flag_table>
8000186c:	0067c683          	lbu	a3,6(a5)
80001870:	00c70733          	add	a4,a4,a2
80001874:	00074703          	lbu	a4,0(a4)
80001878:	07d6f693          	andi	a3,a3,125
8000187c:	00c782a3          	sb	a2,5(a5)
80001880:	00d76733          	or	a4,a4,a3
80001884:	00e78323          	sb	a4,6(a5)
80001888:	00008067          	ret

8000188c <cpu_op_tya>:
8000188c:	00179797          	auipc	a5,0x179
80001890:	e1c78793          	addi	a5,a5,-484 # 8017a6a8 <cpu>
80001894:	0057c603          	lbu	a2,5(a5)
80001898:	00004717          	auipc	a4,0x4
8000189c:	87470713          	addi	a4,a4,-1932 # 8000510c <cpu_zn_flag_table>
800018a0:	0067c683          	lbu	a3,6(a5)
800018a4:	00c70733          	add	a4,a4,a2
800018a8:	00074703          	lbu	a4,0(a4)
800018ac:	07d6f693          	andi	a3,a3,125
800018b0:	00c781a3          	sb	a2,3(a5)
800018b4:	00d76733          	or	a4,a4,a3
800018b8:	00e78323          	sb	a4,6(a5)
800018bc:	00008067          	ret

800018c0 <cpu_op_tsx>:
800018c0:	00179797          	auipc	a5,0x179
800018c4:	de878793          	addi	a5,a5,-536 # 8017a6a8 <cpu>
800018c8:	0027c603          	lbu	a2,2(a5)
800018cc:	00004717          	auipc	a4,0x4
800018d0:	84070713          	addi	a4,a4,-1984 # 8000510c <cpu_zn_flag_table>
800018d4:	0067c683          	lbu	a3,6(a5)
800018d8:	00c70733          	add	a4,a4,a2
800018dc:	00074703          	lbu	a4,0(a4)
800018e0:	07d6f693          	andi	a3,a3,125
800018e4:	00c78223          	sb	a2,4(a5)
800018e8:	00d76733          	or	a4,a4,a3
800018ec:	00e78323          	sb	a4,6(a5)
800018f0:	00008067          	ret

800018f4 <cpu_op_txs>:
800018f4:	00179797          	auipc	a5,0x179
800018f8:	db478793          	addi	a5,a5,-588 # 8017a6a8 <cpu>
800018fc:	0047c703          	lbu	a4,4(a5)
80001900:	00e78123          	sb	a4,2(a5)
80001904:	00008067          	ret

80001908 <cpu_op_jmp>:
80001908:	00179797          	auipc	a5,0x179
8000190c:	db07a783          	lw	a5,-592(a5) # 8017a6b8 <op_address>
80001910:	00179717          	auipc	a4,0x179
80001914:	d8f71c23          	sh	a5,-616(a4) # 8017a6a8 <cpu>
80001918:	00008067          	ret

8000191c <cpu_op_inx>:
8000191c:	00179717          	auipc	a4,0x179
80001920:	d8c70713          	addi	a4,a4,-628 # 8017a6a8 <cpu>
80001924:	00474783          	lbu	a5,4(a4)
80001928:	00003697          	auipc	a3,0x3
8000192c:	7e468693          	addi	a3,a3,2020 # 8000510c <cpu_zn_flag_table>
80001930:	00674603          	lbu	a2,6(a4)
80001934:	00178793          	addi	a5,a5,1
80001938:	0ff7f793          	zext.b	a5,a5
8000193c:	00f686b3          	add	a3,a3,a5
80001940:	0006c683          	lbu	a3,0(a3)
80001944:	07d67613          	andi	a2,a2,125
80001948:	00f70223          	sb	a5,4(a4)
8000194c:	00c6e7b3          	or	a5,a3,a2
80001950:	00f70323          	sb	a5,6(a4)
80001954:	00008067          	ret

80001958 <cpu_op_iny>:
80001958:	00179717          	auipc	a4,0x179
8000195c:	d5070713          	addi	a4,a4,-688 # 8017a6a8 <cpu>
80001960:	00574783          	lbu	a5,5(a4)
80001964:	00003697          	auipc	a3,0x3
80001968:	7a868693          	addi	a3,a3,1960 # 8000510c <cpu_zn_flag_table>
8000196c:	00674603          	lbu	a2,6(a4)
80001970:	00178793          	addi	a5,a5,1
80001974:	0ff7f793          	zext.b	a5,a5
80001978:	00f686b3          	add	a3,a3,a5
8000197c:	0006c683          	lbu	a3,0(a3)
80001980:	07d67613          	andi	a2,a2,125
80001984:	00f702a3          	sb	a5,5(a4)
80001988:	00c6e7b3          	or	a5,a3,a2
8000198c:	00f70323          	sb	a5,6(a4)
80001990:	00008067          	ret

80001994 <cpu_op_dex>:
80001994:	00179717          	auipc	a4,0x179
80001998:	d1470713          	addi	a4,a4,-748 # 8017a6a8 <cpu>
8000199c:	00474783          	lbu	a5,4(a4)
800019a0:	00003697          	auipc	a3,0x3
800019a4:	76c68693          	addi	a3,a3,1900 # 8000510c <cpu_zn_flag_table>
800019a8:	00674603          	lbu	a2,6(a4)
800019ac:	fff78793          	addi	a5,a5,-1
800019b0:	0ff7f793          	zext.b	a5,a5
800019b4:	00f686b3          	add	a3,a3,a5
800019b8:	0006c683          	lbu	a3,0(a3)
800019bc:	07d67613          	andi	a2,a2,125
800019c0:	00f70223          	sb	a5,4(a4)
800019c4:	00c6e7b3          	or	a5,a3,a2
800019c8:	00f70323          	sb	a5,6(a4)
800019cc:	00008067          	ret

800019d0 <cpu_op_dey>:
800019d0:	00179717          	auipc	a4,0x179
800019d4:	cd870713          	addi	a4,a4,-808 # 8017a6a8 <cpu>
800019d8:	00574783          	lbu	a5,5(a4)
800019dc:	00003697          	auipc	a3,0x3
800019e0:	73068693          	addi	a3,a3,1840 # 8000510c <cpu_zn_flag_table>
800019e4:	00674603          	lbu	a2,6(a4)
800019e8:	fff78793          	addi	a5,a5,-1
800019ec:	0ff7f793          	zext.b	a5,a5
800019f0:	00f686b3          	add	a3,a3,a5
800019f4:	0006c683          	lbu	a3,0(a3)
800019f8:	07d67613          	andi	a2,a2,125
800019fc:	00f702a3          	sb	a5,5(a4)
80001a00:	00c6e7b3          	or	a5,a3,a2
80001a04:	00f70323          	sb	a5,6(a4)
80001a08:	00008067          	ret

80001a0c <cpu_op_lax>:
80001a0c:	00179797          	auipc	a5,0x179
80001a10:	cb87a783          	lw	a5,-840(a5) # 8017a6c4 <op_value>
80001a14:	00179717          	auipc	a4,0x179
80001a18:	c9470713          	addi	a4,a4,-876 # 8017a6a8 <cpu>
80001a1c:	0ff7f593          	zext.b	a1,a5
80001a20:	00003697          	auipc	a3,0x3
80001a24:	6ec68693          	addi	a3,a3,1772 # 8000510c <cpu_zn_flag_table>
80001a28:	00674603          	lbu	a2,6(a4)
80001a2c:	00b686b3          	add	a3,a3,a1
80001a30:	0006c683          	lbu	a3,0(a3)
80001a34:	07d67613          	andi	a2,a2,125
80001a38:	0ff7f793          	zext.b	a5,a5
80001a3c:	00c6e6b3          	or	a3,a3,a2
80001a40:	00f70223          	sb	a5,4(a4)
80001a44:	00f701a3          	sb	a5,3(a4)
80001a48:	00d70323          	sb	a3,6(a4)
80001a4c:	00008067          	ret

80001a50 <cpu_op_sta>:
80001a50:	00179597          	auipc	a1,0x179
80001a54:	c5b5c583          	lbu	a1,-933(a1) # 8017a6ab <cpu+0x3>
80001a58:	00179517          	auipc	a0,0x179
80001a5c:	c6055503          	lhu	a0,-928(a0) # 8017a6b8 <op_address>
80001a60:	c25fe06f          	j	80000684 <memory_writeb>

80001a64 <cpu_op_stx>:
80001a64:	00179597          	auipc	a1,0x179
80001a68:	c485c583          	lbu	a1,-952(a1) # 8017a6ac <cpu+0x4>
80001a6c:	00179517          	auipc	a0,0x179
80001a70:	c4c55503          	lhu	a0,-948(a0) # 8017a6b8 <op_address>
80001a74:	c11fe06f          	j	80000684 <memory_writeb>

80001a78 <cpu_op_sty>:
80001a78:	00179597          	auipc	a1,0x179
80001a7c:	c355c583          	lbu	a1,-971(a1) # 8017a6ad <cpu+0x5>
80001a80:	00179517          	auipc	a0,0x179
80001a84:	c3855503          	lhu	a0,-968(a0) # 8017a6b8 <op_address>
80001a88:	bfdfe06f          	j	80000684 <memory_writeb>

80001a8c <cpu_op_inc>:
80001a8c:	ff010113          	addi	sp,sp,-16
80001a90:	00812423          	sw	s0,8(sp)
80001a94:	00179417          	auipc	s0,0x179
80001a98:	c3042403          	lw	s0,-976(s0) # 8017a6c4 <op_value>
80001a9c:	00140413          	addi	s0,s0,1
80001aa0:	0ff47413          	zext.b	s0,s0
80001aa4:	00040593          	mv	a1,s0
80001aa8:	00179517          	auipc	a0,0x179
80001aac:	c1055503          	lhu	a0,-1008(a0) # 8017a6b8 <op_address>
80001ab0:	00112623          	sw	ra,12(sp)
80001ab4:	bd1fe0ef          	jal	ra,80000684 <memory_writeb>
80001ab8:	00179697          	auipc	a3,0x179
80001abc:	bf068693          	addi	a3,a3,-1040 # 8017a6a8 <cpu>
80001ac0:	00003717          	auipc	a4,0x3
80001ac4:	64c70713          	addi	a4,a4,1612 # 8000510c <cpu_zn_flag_table>
80001ac8:	0066c783          	lbu	a5,6(a3)
80001acc:	00870733          	add	a4,a4,s0
80001ad0:	00074703          	lbu	a4,0(a4)
80001ad4:	07d7f793          	andi	a5,a5,125
80001ad8:	00e7e7b3          	or	a5,a5,a4
80001adc:	00f68323          	sb	a5,6(a3)
80001ae0:	00c12083          	lw	ra,12(sp)
80001ae4:	00812403          	lw	s0,8(sp)
80001ae8:	01010113          	addi	sp,sp,16
80001aec:	00008067          	ret

80001af0 <cpu_op_dec>:
80001af0:	ff010113          	addi	sp,sp,-16
80001af4:	00812423          	sw	s0,8(sp)
80001af8:	00179417          	auipc	s0,0x179
80001afc:	bcc42403          	lw	s0,-1076(s0) # 8017a6c4 <op_value>
80001b00:	fff40413          	addi	s0,s0,-1
80001b04:	0ff47413          	zext.b	s0,s0
80001b08:	00040593          	mv	a1,s0
80001b0c:	00179517          	auipc	a0,0x179
80001b10:	bac55503          	lhu	a0,-1108(a0) # 8017a6b8 <op_address>
80001b14:	00112623          	sw	ra,12(sp)
80001b18:	b6dfe0ef          	jal	ra,80000684 <memory_writeb>
80001b1c:	00179697          	auipc	a3,0x179
80001b20:	b8c68693          	addi	a3,a3,-1140 # 8017a6a8 <cpu>
80001b24:	00003717          	auipc	a4,0x3
80001b28:	5e870713          	addi	a4,a4,1512 # 8000510c <cpu_zn_flag_table>
80001b2c:	0066c783          	lbu	a5,6(a3)
80001b30:	00870733          	add	a4,a4,s0
80001b34:	00074703          	lbu	a4,0(a4)
80001b38:	07d7f793          	andi	a5,a5,125
80001b3c:	00e7e7b3          	or	a5,a5,a4
80001b40:	00f68323          	sb	a5,6(a3)
80001b44:	00c12083          	lw	ra,12(sp)
80001b48:	00812403          	lw	s0,8(sp)
80001b4c:	01010113          	addi	sp,sp,16
80001b50:	00008067          	ret

80001b54 <cpu_op_axa>:
80001b54:	00179717          	auipc	a4,0x179
80001b58:	b5470713          	addi	a4,a4,-1196 # 8017a6a8 <cpu>
80001b5c:	00374783          	lbu	a5,3(a4)
80001b60:	00474703          	lbu	a4,4(a4)
80001b64:	00179517          	auipc	a0,0x179
80001b68:	b5452503          	lw	a0,-1196(a0) # 8017a6b8 <op_address>
80001b6c:	40855593          	srai	a1,a0,0x8
80001b70:	00e7f7b3          	and	a5,a5,a4
80001b74:	01051513          	slli	a0,a0,0x10
80001b78:	00b7f5b3          	and	a1,a5,a1
80001b7c:	01055513          	srli	a0,a0,0x10
80001b80:	b05fe06f          	j	80000684 <memory_writeb>

80001b84 <cpu_op_axs>:
80001b84:	00179797          	auipc	a5,0x179
80001b88:	b2478793          	addi	a5,a5,-1244 # 8017a6a8 <cpu>
80001b8c:	0037c583          	lbu	a1,3(a5)
80001b90:	0047c783          	lbu	a5,4(a5)
80001b94:	00179517          	auipc	a0,0x179
80001b98:	b2455503          	lhu	a0,-1244(a0) # 8017a6b8 <op_address>
80001b9c:	00f5f5b3          	and	a1,a1,a5
80001ba0:	ae5fe06f          	j	80000684 <memory_writeb>

80001ba4 <cpu_op_bcs>:
80001ba4:	ff010113          	addi	sp,sp,-16
80001ba8:	00812423          	sw	s0,8(sp)
80001bac:	00179417          	auipc	s0,0x179
80001bb0:	afc40413          	addi	s0,s0,-1284 # 8017a6a8 <cpu>
80001bb4:	00644503          	lbu	a0,6(s0)
80001bb8:	00000613          	li	a2,0
80001bbc:	00000593          	li	a1,0
80001bc0:	00112623          	sw	ra,12(sp)
80001bc4:	a31ff0ef          	jal	ra,800015f4 <common_bit_set>
80001bc8:	00050863          	beqz	a0,80001bd8 <cpu_op_bcs+0x34>
80001bcc:	00179797          	auipc	a5,0x179
80001bd0:	aec7a783          	lw	a5,-1300(a5) # 8017a6b8 <op_address>
80001bd4:	00f41023          	sh	a5,0(s0)
80001bd8:	00c12083          	lw	ra,12(sp)
80001bdc:	00812403          	lw	s0,8(sp)
80001be0:	01010113          	addi	sp,sp,16
80001be4:	00008067          	ret

80001be8 <cpu_op_beq>:
80001be8:	ff010113          	addi	sp,sp,-16
80001bec:	00812423          	sw	s0,8(sp)
80001bf0:	00179417          	auipc	s0,0x179
80001bf4:	ab840413          	addi	s0,s0,-1352 # 8017a6a8 <cpu>
80001bf8:	00644503          	lbu	a0,6(s0)
80001bfc:	00100613          	li	a2,1
80001c00:	00000593          	li	a1,0
80001c04:	00112623          	sw	ra,12(sp)
80001c08:	9edff0ef          	jal	ra,800015f4 <common_bit_set>
80001c0c:	00050863          	beqz	a0,80001c1c <cpu_op_beq+0x34>
80001c10:	00179797          	auipc	a5,0x179
80001c14:	aa87a783          	lw	a5,-1368(a5) # 8017a6b8 <op_address>
80001c18:	00f41023          	sh	a5,0(s0)
80001c1c:	00c12083          	lw	ra,12(sp)
80001c20:	00812403          	lw	s0,8(sp)
80001c24:	01010113          	addi	sp,sp,16
80001c28:	00008067          	ret

80001c2c <cpu_op_bmi>:
80001c2c:	ff010113          	addi	sp,sp,-16
80001c30:	00812423          	sw	s0,8(sp)
80001c34:	00179417          	auipc	s0,0x179
80001c38:	a7440413          	addi	s0,s0,-1420 # 8017a6a8 <cpu>
80001c3c:	00644503          	lbu	a0,6(s0)
80001c40:	00700613          	li	a2,7
80001c44:	00000593          	li	a1,0
80001c48:	00112623          	sw	ra,12(sp)
80001c4c:	9a9ff0ef          	jal	ra,800015f4 <common_bit_set>
80001c50:	00050863          	beqz	a0,80001c60 <cpu_op_bmi+0x34>
80001c54:	00179797          	auipc	a5,0x179
80001c58:	a647a783          	lw	a5,-1436(a5) # 8017a6b8 <op_address>
80001c5c:	00f41023          	sh	a5,0(s0)
80001c60:	00c12083          	lw	ra,12(sp)
80001c64:	00812403          	lw	s0,8(sp)
80001c68:	01010113          	addi	sp,sp,16
80001c6c:	00008067          	ret

80001c70 <cpu_op_bvs>:
80001c70:	ff010113          	addi	sp,sp,-16
80001c74:	00812423          	sw	s0,8(sp)
80001c78:	00179417          	auipc	s0,0x179
80001c7c:	a3040413          	addi	s0,s0,-1488 # 8017a6a8 <cpu>
80001c80:	00644503          	lbu	a0,6(s0)
80001c84:	00600613          	li	a2,6
80001c88:	00000593          	li	a1,0
80001c8c:	00112623          	sw	ra,12(sp)
80001c90:	965ff0ef          	jal	ra,800015f4 <common_bit_set>
80001c94:	00050863          	beqz	a0,80001ca4 <cpu_op_bvs+0x34>
80001c98:	00179797          	auipc	a5,0x179
80001c9c:	a207a783          	lw	a5,-1504(a5) # 8017a6b8 <op_address>
80001ca0:	00f41023          	sh	a5,0(s0)
80001ca4:	00c12083          	lw	ra,12(sp)
80001ca8:	00812403          	lw	s0,8(sp)
80001cac:	01010113          	addi	sp,sp,16
80001cb0:	00008067          	ret

80001cb4 <cpu_op_bne>:
80001cb4:	ff010113          	addi	sp,sp,-16
80001cb8:	00812423          	sw	s0,8(sp)
80001cbc:	00179417          	auipc	s0,0x179
80001cc0:	9ec40413          	addi	s0,s0,-1556 # 8017a6a8 <cpu>
80001cc4:	00644503          	lbu	a0,6(s0)
80001cc8:	00100613          	li	a2,1
80001ccc:	00000593          	li	a1,0
80001cd0:	00112623          	sw	ra,12(sp)
80001cd4:	921ff0ef          	jal	ra,800015f4 <common_bit_set>
80001cd8:	00051863          	bnez	a0,80001ce8 <cpu_op_bne+0x34>
80001cdc:	00179797          	auipc	a5,0x179
80001ce0:	9dc7a783          	lw	a5,-1572(a5) # 8017a6b8 <op_address>
80001ce4:	00f41023          	sh	a5,0(s0)
80001ce8:	00c12083          	lw	ra,12(sp)
80001cec:	00812403          	lw	s0,8(sp)
80001cf0:	01010113          	addi	sp,sp,16
80001cf4:	00008067          	ret

80001cf8 <cpu_op_bcc>:
80001cf8:	ff010113          	addi	sp,sp,-16
80001cfc:	00812423          	sw	s0,8(sp)
80001d00:	00179417          	auipc	s0,0x179
80001d04:	9a840413          	addi	s0,s0,-1624 # 8017a6a8 <cpu>
80001d08:	00644503          	lbu	a0,6(s0)
80001d0c:	00000613          	li	a2,0
80001d10:	00000593          	li	a1,0
80001d14:	00112623          	sw	ra,12(sp)
80001d18:	8ddff0ef          	jal	ra,800015f4 <common_bit_set>
80001d1c:	00051863          	bnez	a0,80001d2c <cpu_op_bcc+0x34>
80001d20:	00179797          	auipc	a5,0x179
80001d24:	9987a783          	lw	a5,-1640(a5) # 8017a6b8 <op_address>
80001d28:	00f41023          	sh	a5,0(s0)
80001d2c:	00c12083          	lw	ra,12(sp)
80001d30:	00812403          	lw	s0,8(sp)
80001d34:	01010113          	addi	sp,sp,16
80001d38:	00008067          	ret

80001d3c <cpu_op_bpl>:
80001d3c:	ff010113          	addi	sp,sp,-16
80001d40:	00812423          	sw	s0,8(sp)
80001d44:	00179417          	auipc	s0,0x179
80001d48:	96440413          	addi	s0,s0,-1692 # 8017a6a8 <cpu>
80001d4c:	00644503          	lbu	a0,6(s0)
80001d50:	00700613          	li	a2,7
80001d54:	00000593          	li	a1,0
80001d58:	00112623          	sw	ra,12(sp)
80001d5c:	899ff0ef          	jal	ra,800015f4 <common_bit_set>
80001d60:	00051863          	bnez	a0,80001d70 <cpu_op_bpl+0x34>
80001d64:	00179797          	auipc	a5,0x179
80001d68:	9547a783          	lw	a5,-1708(a5) # 8017a6b8 <op_address>
80001d6c:	00f41023          	sh	a5,0(s0)
80001d70:	00c12083          	lw	ra,12(sp)
80001d74:	00812403          	lw	s0,8(sp)
80001d78:	01010113          	addi	sp,sp,16
80001d7c:	00008067          	ret

80001d80 <cpu_op_bvc>:
80001d80:	ff010113          	addi	sp,sp,-16
80001d84:	00812423          	sw	s0,8(sp)
80001d88:	00179417          	auipc	s0,0x179
80001d8c:	92040413          	addi	s0,s0,-1760 # 8017a6a8 <cpu>
80001d90:	00644503          	lbu	a0,6(s0)
80001d94:	00600613          	li	a2,6
80001d98:	00000593          	li	a1,0
80001d9c:	00112623          	sw	ra,12(sp)
80001da0:	855ff0ef          	jal	ra,800015f4 <common_bit_set>
80001da4:	00051863          	bnez	a0,80001db4 <cpu_op_bvc+0x34>
80001da8:	00179797          	auipc	a5,0x179
80001dac:	9107a783          	lw	a5,-1776(a5) # 8017a6b8 <op_address>
80001db0:	00f41023          	sh	a5,0(s0)
80001db4:	00c12083          	lw	ra,12(sp)
80001db8:	00812403          	lw	s0,8(sp)
80001dbc:	01010113          	addi	sp,sp,16
80001dc0:	00008067          	ret

80001dc4 <cpu_op_adc>:
80001dc4:	fe010113          	addi	sp,sp,-32
80001dc8:	00812c23          	sw	s0,24(sp)
80001dcc:	01312623          	sw	s3,12(sp)
80001dd0:	00179417          	auipc	s0,0x179
80001dd4:	8d840413          	addi	s0,s0,-1832 # 8017a6a8 <cpu>
80001dd8:	00179997          	auipc	s3,0x179
80001ddc:	8ec98993          	addi	s3,s3,-1812 # 8017a6c4 <op_value>
80001de0:	00912a23          	sw	s1,20(sp)
80001de4:	0009a783          	lw	a5,0(s3)
80001de8:	00344483          	lbu	s1,3(s0)
80001dec:	00644503          	lbu	a0,6(s0)
80001df0:	00000613          	li	a2,0
80001df4:	00000593          	li	a1,0
80001df8:	00112e23          	sw	ra,28(sp)
80001dfc:	01212823          	sw	s2,16(sp)
80001e00:	00f484b3          	add	s1,s1,a5
80001e04:	ff0ff0ef          	jal	ra,800015f4 <common_bit_set>
80001e08:	009504b3          	add	s1,a0,s1
80001e0c:	00179917          	auipc	s2,0x179
80001e10:	8a290913          	addi	s2,s2,-1886 # 8017a6ae <cpu+0x6>
80001e14:	0084d613          	srli	a2,s1,0x8
80001e18:	00090513          	mv	a0,s2
80001e1c:	00167613          	andi	a2,a2,1
80001e20:	00000593          	li	a1,0
80001e24:	825ff0ef          	jal	ra,80001648 <common_modify_bitb>
80001e28:	00344783          	lbu	a5,3(s0)
80001e2c:	0009a683          	lw	a3,0(s3)
80001e30:	00090513          	mv	a0,s2
80001e34:	0097c733          	xor	a4,a5,s1
80001e38:	00d7c633          	xor	a2,a5,a3
80001e3c:	fff64613          	not	a2,a2
80001e40:	00e67633          	and	a2,a2,a4
80001e44:	00765613          	srli	a2,a2,0x7
80001e48:	00600593          	li	a1,6
80001e4c:	00167613          	andi	a2,a2,1
80001e50:	ff8ff0ef          	jal	ra,80001648 <common_modify_bitb>
80001e54:	0ff4f693          	zext.b	a3,s1
80001e58:	00003717          	auipc	a4,0x3
80001e5c:	2b470713          	addi	a4,a4,692 # 8000510c <cpu_zn_flag_table>
80001e60:	00644783          	lbu	a5,6(s0)
80001e64:	00d70733          	add	a4,a4,a3
80001e68:	00074703          	lbu	a4,0(a4)
80001e6c:	07d7f793          	andi	a5,a5,125
80001e70:	009401a3          	sb	s1,3(s0)
80001e74:	00e7e7b3          	or	a5,a5,a4
80001e78:	01c12083          	lw	ra,28(sp)
80001e7c:	00f40323          	sb	a5,6(s0)
80001e80:	01812403          	lw	s0,24(sp)
80001e84:	01412483          	lw	s1,20(sp)
80001e88:	01012903          	lw	s2,16(sp)
80001e8c:	00c12983          	lw	s3,12(sp)
80001e90:	02010113          	addi	sp,sp,32
80001e94:	00008067          	ret

80001e98 <cpu_op_sbc>:
80001e98:	fe010113          	addi	sp,sp,-32
80001e9c:	00912a23          	sw	s1,20(sp)
80001ea0:	01312623          	sw	s3,12(sp)
80001ea4:	00179497          	auipc	s1,0x179
80001ea8:	80448493          	addi	s1,s1,-2044 # 8017a6a8 <cpu>
80001eac:	00179997          	auipc	s3,0x179
80001eb0:	81898993          	addi	s3,s3,-2024 # 8017a6c4 <op_value>
80001eb4:	00812c23          	sw	s0,24(sp)
80001eb8:	0009a783          	lw	a5,0(s3)
80001ebc:	0034c403          	lbu	s0,3(s1)
80001ec0:	0064c503          	lbu	a0,6(s1)
80001ec4:	00000613          	li	a2,0
80001ec8:	00000593          	li	a1,0
80001ecc:	00112e23          	sw	ra,28(sp)
80001ed0:	01212823          	sw	s2,16(sp)
80001ed4:	40f40433          	sub	s0,s0,a5
80001ed8:	f1cff0ef          	jal	ra,800015f4 <common_bit_set>
80001edc:	00154513          	xori	a0,a0,1
80001ee0:	0ff57513          	zext.b	a0,a0
80001ee4:	40a40433          	sub	s0,s0,a0
80001ee8:	00845613          	srli	a2,s0,0x8
80001eec:	00178917          	auipc	s2,0x178
80001ef0:	7c290913          	addi	s2,s2,1986 # 8017a6ae <cpu+0x6>
80001ef4:	00164613          	xori	a2,a2,1
80001ef8:	00090513          	mv	a0,s2
80001efc:	00167613          	andi	a2,a2,1
80001f00:	00000593          	li	a1,0
80001f04:	f44ff0ef          	jal	ra,80001648 <common_modify_bitb>
80001f08:	0034c603          	lbu	a2,3(s1)
80001f0c:	0009a703          	lw	a4,0(s3)
80001f10:	00090513          	mv	a0,s2
80001f14:	008647b3          	xor	a5,a2,s0
80001f18:	00e64633          	xor	a2,a2,a4
80001f1c:	00f67633          	and	a2,a2,a5
80001f20:	00765613          	srli	a2,a2,0x7
80001f24:	00600593          	li	a1,6
80001f28:	00167613          	andi	a2,a2,1
80001f2c:	f1cff0ef          	jal	ra,80001648 <common_modify_bitb>
80001f30:	0ff47693          	zext.b	a3,s0
80001f34:	00003797          	auipc	a5,0x3
80001f38:	1d878793          	addi	a5,a5,472 # 8000510c <cpu_zn_flag_table>
80001f3c:	0064c703          	lbu	a4,6(s1)
80001f40:	00d787b3          	add	a5,a5,a3
80001f44:	0007c783          	lbu	a5,0(a5)
80001f48:	008481a3          	sb	s0,3(s1)
80001f4c:	01c12083          	lw	ra,28(sp)
80001f50:	01812403          	lw	s0,24(sp)
80001f54:	07d77713          	andi	a4,a4,125
80001f58:	00e7e7b3          	or	a5,a5,a4
80001f5c:	00f48323          	sb	a5,6(s1)
80001f60:	01012903          	lw	s2,16(sp)
80001f64:	01412483          	lw	s1,20(sp)
80001f68:	00c12983          	lw	s3,12(sp)
80001f6c:	02010113          	addi	sp,sp,32
80001f70:	00008067          	ret

80001f74 <cpu_op_ins>:
80001f74:	00178797          	auipc	a5,0x178
80001f78:	75078793          	addi	a5,a5,1872 # 8017a6c4 <op_value>
80001f7c:	0007a583          	lw	a1,0(a5)
80001f80:	ff010113          	addi	sp,sp,-16
80001f84:	00112623          	sw	ra,12(sp)
80001f88:	00158593          	addi	a1,a1,1
80001f8c:	0ff5f713          	zext.b	a4,a1
80001f90:	00178517          	auipc	a0,0x178
80001f94:	72855503          	lhu	a0,1832(a0) # 8017a6b8 <op_address>
80001f98:	0ff5f593          	zext.b	a1,a1
80001f9c:	00e7a023          	sw	a4,0(a5)
80001fa0:	ee4fe0ef          	jal	ra,80000684 <memory_writeb>
80001fa4:	00c12083          	lw	ra,12(sp)
80001fa8:	01010113          	addi	sp,sp,16
80001fac:	eedff06f          	j	80001e98 <cpu_op_sbc>

80001fb0 <cpu_op_bit>:
80001fb0:	ff010113          	addi	sp,sp,-16
80001fb4:	00812423          	sw	s0,8(sp)
80001fb8:	00912223          	sw	s1,4(sp)
80001fbc:	00178417          	auipc	s0,0x178
80001fc0:	6ec40413          	addi	s0,s0,1772 # 8017a6a8 <cpu>
80001fc4:	00178497          	auipc	s1,0x178
80001fc8:	70048493          	addi	s1,s1,1792 # 8017a6c4 <op_value>
80001fcc:	0004a783          	lw	a5,0(s1)
80001fd0:	00344603          	lbu	a2,3(s0)
80001fd4:	00100593          	li	a1,1
80001fd8:	00178517          	auipc	a0,0x178
80001fdc:	6d650513          	addi	a0,a0,1750 # 8017a6ae <cpu+0x6>
80001fe0:	00f67633          	and	a2,a2,a5
80001fe4:	00163613          	seqz	a2,a2
80001fe8:	00112623          	sw	ra,12(sp)
80001fec:	e5cff0ef          	jal	ra,80001648 <common_modify_bitb>
80001ff0:	00644783          	lbu	a5,6(s0)
80001ff4:	0004a703          	lw	a4,0(s1)
80001ff8:	00c12083          	lw	ra,12(sp)
80001ffc:	03f7f793          	andi	a5,a5,63
80002000:	fc077713          	andi	a4,a4,-64
80002004:	00e7e7b3          	or	a5,a5,a4
80002008:	00f40323          	sb	a5,6(s0)
8000200c:	00812403          	lw	s0,8(sp)
80002010:	00412483          	lw	s1,4(sp)
80002014:	01010113          	addi	sp,sp,16
80002018:	00008067          	ret

8000201c <cpu_op_asla>:
8000201c:	ff010113          	addi	sp,sp,-16
80002020:	00812423          	sw	s0,8(sp)
80002024:	00178417          	auipc	s0,0x178
80002028:	68440413          	addi	s0,s0,1668 # 8017a6a8 <cpu>
8000202c:	00344603          	lbu	a2,3(s0)
80002030:	00000593          	li	a1,0
80002034:	00178517          	auipc	a0,0x178
80002038:	67a50513          	addi	a0,a0,1658 # 8017a6ae <cpu+0x6>
8000203c:	00765613          	srli	a2,a2,0x7
80002040:	00112623          	sw	ra,12(sp)
80002044:	e04ff0ef          	jal	ra,80001648 <common_modify_bitb>
80002048:	00344783          	lbu	a5,3(s0)
8000204c:	00003697          	auipc	a3,0x3
80002050:	0c068693          	addi	a3,a3,192 # 8000510c <cpu_zn_flag_table>
80002054:	00644703          	lbu	a4,6(s0)
80002058:	00179793          	slli	a5,a5,0x1
8000205c:	0ff7f793          	zext.b	a5,a5
80002060:	00f686b3          	add	a3,a3,a5
80002064:	0006c683          	lbu	a3,0(a3)
80002068:	07d77713          	andi	a4,a4,125
8000206c:	00f401a3          	sb	a5,3(s0)
80002070:	00d767b3          	or	a5,a4,a3
80002074:	00c12083          	lw	ra,12(sp)
80002078:	00f40323          	sb	a5,6(s0)
8000207c:	00812403          	lw	s0,8(sp)
80002080:	01010113          	addi	sp,sp,16
80002084:	00008067          	ret

80002088 <cpu_op_asl>:
80002088:	ff010113          	addi	sp,sp,-16
8000208c:	00812423          	sw	s0,8(sp)
80002090:	00178417          	auipc	s0,0x178
80002094:	63440413          	addi	s0,s0,1588 # 8017a6c4 <op_value>
80002098:	00042603          	lw	a2,0(s0)
8000209c:	00000593          	li	a1,0
800020a0:	00178517          	auipc	a0,0x178
800020a4:	60e50513          	addi	a0,a0,1550 # 8017a6ae <cpu+0x6>
800020a8:	00765613          	srli	a2,a2,0x7
800020ac:	00167613          	andi	a2,a2,1
800020b0:	00112623          	sw	ra,12(sp)
800020b4:	d94ff0ef          	jal	ra,80001648 <common_modify_bitb>
800020b8:	00042583          	lw	a1,0(s0)
800020bc:	00178697          	auipc	a3,0x178
800020c0:	5ec68693          	addi	a3,a3,1516 # 8017a6a8 <cpu>
800020c4:	00003717          	auipc	a4,0x3
800020c8:	04870713          	addi	a4,a4,72 # 8000510c <cpu_zn_flag_table>
800020cc:	00159593          	slli	a1,a1,0x1
800020d0:	0ff5f613          	zext.b	a2,a1
800020d4:	0066c783          	lbu	a5,6(a3)
800020d8:	00c70733          	add	a4,a4,a2
800020dc:	00074703          	lbu	a4,0(a4)
800020e0:	07d7f793          	andi	a5,a5,125
800020e4:	00c42023          	sw	a2,0(s0)
800020e8:	00e7e7b3          	or	a5,a5,a4
800020ec:	00f68323          	sb	a5,6(a3)
800020f0:	00812403          	lw	s0,8(sp)
800020f4:	00c12083          	lw	ra,12(sp)
800020f8:	00178517          	auipc	a0,0x178
800020fc:	5c055503          	lhu	a0,1472(a0) # 8017a6b8 <op_address>
80002100:	0fe5f593          	andi	a1,a1,254
80002104:	01010113          	addi	sp,sp,16
80002108:	d7cfe06f          	j	80000684 <memory_writeb>

8000210c <cpu_op_lsra>:
8000210c:	ff010113          	addi	sp,sp,-16
80002110:	00912223          	sw	s1,4(sp)
80002114:	00178497          	auipc	s1,0x178
80002118:	59448493          	addi	s1,s1,1428 # 8017a6a8 <cpu>
8000211c:	00812423          	sw	s0,8(sp)
80002120:	0034c403          	lbu	s0,3(s1)
80002124:	00000593          	li	a1,0
80002128:	00178517          	auipc	a0,0x178
8000212c:	58650513          	addi	a0,a0,1414 # 8017a6ae <cpu+0x6>
80002130:	00147613          	andi	a2,s0,1
80002134:	00112623          	sw	ra,12(sp)
80002138:	d10ff0ef          	jal	ra,80001648 <common_modify_bitb>
8000213c:	00145413          	srli	s0,s0,0x1
80002140:	00003717          	auipc	a4,0x3
80002144:	fcc70713          	addi	a4,a4,-52 # 8000510c <cpu_zn_flag_table>
80002148:	0064c783          	lbu	a5,6(s1)
8000214c:	00870733          	add	a4,a4,s0
80002150:	00074703          	lbu	a4,0(a4)
80002154:	008481a3          	sb	s0,3(s1)
80002158:	00c12083          	lw	ra,12(sp)
8000215c:	00812403          	lw	s0,8(sp)
80002160:	07d7f793          	andi	a5,a5,125
80002164:	00e7e7b3          	or	a5,a5,a4
80002168:	00f48323          	sb	a5,6(s1)
8000216c:	00412483          	lw	s1,4(sp)
80002170:	01010113          	addi	sp,sp,16
80002174:	00008067          	ret

80002178 <cpu_op_lsr>:
80002178:	ff010113          	addi	sp,sp,-16
8000217c:	00812423          	sw	s0,8(sp)
80002180:	00178417          	auipc	s0,0x178
80002184:	54440413          	addi	s0,s0,1348 # 8017a6c4 <op_value>
80002188:	00042603          	lw	a2,0(s0)
8000218c:	00000593          	li	a1,0
80002190:	00178517          	auipc	a0,0x178
80002194:	51e50513          	addi	a0,a0,1310 # 8017a6ae <cpu+0x6>
80002198:	00167613          	andi	a2,a2,1
8000219c:	00112623          	sw	ra,12(sp)
800021a0:	00912223          	sw	s1,4(sp)
800021a4:	ca4ff0ef          	jal	ra,80001648 <common_modify_bitb>
800021a8:	00042583          	lw	a1,0(s0)
800021ac:	00178517          	auipc	a0,0x178
800021b0:	50c55503          	lhu	a0,1292(a0) # 8017a6b8 <op_address>
800021b4:	00178497          	auipc	s1,0x178
800021b8:	4f448493          	addi	s1,s1,1268 # 8017a6a8 <cpu>
800021bc:	4015d593          	srai	a1,a1,0x1
800021c0:	0ff5f793          	zext.b	a5,a1
800021c4:	0ff5f593          	zext.b	a1,a1
800021c8:	00f42023          	sw	a5,0(s0)
800021cc:	cb8fe0ef          	jal	ra,80000684 <memory_writeb>
800021d0:	00042683          	lw	a3,0(s0)
800021d4:	00003797          	auipc	a5,0x3
800021d8:	f3878793          	addi	a5,a5,-200 # 8000510c <cpu_zn_flag_table>
800021dc:	0064c703          	lbu	a4,6(s1)
800021e0:	00d787b3          	add	a5,a5,a3
800021e4:	0007c783          	lbu	a5,0(a5)
800021e8:	00c12083          	lw	ra,12(sp)
800021ec:	00812403          	lw	s0,8(sp)
800021f0:	07d77713          	andi	a4,a4,125
800021f4:	00e7e7b3          	or	a5,a5,a4
800021f8:	00f48323          	sb	a5,6(s1)
800021fc:	00412483          	lw	s1,4(sp)
80002200:	01010113          	addi	sp,sp,16
80002204:	00008067          	ret

80002208 <cpu_op_rola>:
80002208:	ff010113          	addi	sp,sp,-16
8000220c:	00812423          	sw	s0,8(sp)
80002210:	00178417          	auipc	s0,0x178
80002214:	49840413          	addi	s0,s0,1176 # 8017a6a8 <cpu>
80002218:	00912223          	sw	s1,4(sp)
8000221c:	00644503          	lbu	a0,6(s0)
80002220:	00344483          	lbu	s1,3(s0)
80002224:	00000613          	li	a2,0
80002228:	00000593          	li	a1,0
8000222c:	00112623          	sw	ra,12(sp)
80002230:	00149493          	slli	s1,s1,0x1
80002234:	bc0ff0ef          	jal	ra,800015f4 <common_bit_set>
80002238:	009564b3          	or	s1,a0,s1
8000223c:	1004a613          	slti	a2,s1,256
80002240:	00164613          	xori	a2,a2,1
80002244:	00000593          	li	a1,0
80002248:	00178517          	auipc	a0,0x178
8000224c:	46650513          	addi	a0,a0,1126 # 8017a6ae <cpu+0x6>
80002250:	bf8ff0ef          	jal	ra,80001648 <common_modify_bitb>
80002254:	0ff4f693          	zext.b	a3,s1
80002258:	00003717          	auipc	a4,0x3
8000225c:	eb470713          	addi	a4,a4,-332 # 8000510c <cpu_zn_flag_table>
80002260:	00644783          	lbu	a5,6(s0)
80002264:	00d70733          	add	a4,a4,a3
80002268:	00074703          	lbu	a4,0(a4)
8000226c:	07d7f793          	andi	a5,a5,125
80002270:	009401a3          	sb	s1,3(s0)
80002274:	00e7e7b3          	or	a5,a5,a4
80002278:	00c12083          	lw	ra,12(sp)
8000227c:	00f40323          	sb	a5,6(s0)
80002280:	00812403          	lw	s0,8(sp)
80002284:	00412483          	lw	s1,4(sp)
80002288:	01010113          	addi	sp,sp,16
8000228c:	00008067          	ret

80002290 <cpu_op_rol>:
80002290:	ff010113          	addi	sp,sp,-16
80002294:	00812423          	sw	s0,8(sp)
80002298:	00178417          	auipc	s0,0x178
8000229c:	42c40413          	addi	s0,s0,1068 # 8017a6c4 <op_value>
800022a0:	00912223          	sw	s1,4(sp)
800022a4:	00042783          	lw	a5,0(s0)
800022a8:	00178497          	auipc	s1,0x178
800022ac:	40048493          	addi	s1,s1,1024 # 8017a6a8 <cpu>
800022b0:	0064c503          	lbu	a0,6(s1)
800022b4:	00179793          	slli	a5,a5,0x1
800022b8:	00000613          	li	a2,0
800022bc:	00000593          	li	a1,0
800022c0:	00112623          	sw	ra,12(sp)
800022c4:	00f42023          	sw	a5,0(s0)
800022c8:	b2cff0ef          	jal	ra,800015f4 <common_bit_set>
800022cc:	00042703          	lw	a4,0(s0)
800022d0:	00050793          	mv	a5,a0
800022d4:	00000593          	li	a1,0
800022d8:	00e7e7b3          	or	a5,a5,a4
800022dc:	1007a613          	slti	a2,a5,256
800022e0:	00178517          	auipc	a0,0x178
800022e4:	3ce50513          	addi	a0,a0,974 # 8017a6ae <cpu+0x6>
800022e8:	00164613          	xori	a2,a2,1
800022ec:	00f42023          	sw	a5,0(s0)
800022f0:	b58ff0ef          	jal	ra,80001648 <common_modify_bitb>
800022f4:	00042583          	lw	a1,0(s0)
800022f8:	00178517          	auipc	a0,0x178
800022fc:	3c055503          	lhu	a0,960(a0) # 8017a6b8 <op_address>
80002300:	0ff5f793          	zext.b	a5,a1
80002304:	0ff5f593          	zext.b	a1,a1
80002308:	00f42023          	sw	a5,0(s0)
8000230c:	b78fe0ef          	jal	ra,80000684 <memory_writeb>
80002310:	00042683          	lw	a3,0(s0)
80002314:	00003717          	auipc	a4,0x3
80002318:	df870713          	addi	a4,a4,-520 # 8000510c <cpu_zn_flag_table>
8000231c:	0064c783          	lbu	a5,6(s1)
80002320:	00d70733          	add	a4,a4,a3
80002324:	00074703          	lbu	a4,0(a4)
80002328:	00c12083          	lw	ra,12(sp)
8000232c:	00812403          	lw	s0,8(sp)
80002330:	07d7f793          	andi	a5,a5,125
80002334:	00e7e7b3          	or	a5,a5,a4
80002338:	00f48323          	sb	a5,6(s1)
8000233c:	00412483          	lw	s1,4(sp)
80002340:	01010113          	addi	sp,sp,16
80002344:	00008067          	ret

80002348 <cpu_op_rora>:
80002348:	ff010113          	addi	sp,sp,-16
8000234c:	00912223          	sw	s1,4(sp)
80002350:	00178497          	auipc	s1,0x178
80002354:	35848493          	addi	s1,s1,856 # 8017a6a8 <cpu>
80002358:	0064c503          	lbu	a0,6(s1)
8000235c:	00000613          	li	a2,0
80002360:	00000593          	li	a1,0
80002364:	00112623          	sw	ra,12(sp)
80002368:	00812423          	sw	s0,8(sp)
8000236c:	01212023          	sw	s2,0(sp)
80002370:	a84ff0ef          	jal	ra,800015f4 <common_bit_set>
80002374:	0034c603          	lbu	a2,3(s1)
80002378:	00178917          	auipc	s2,0x178
8000237c:	33690913          	addi	s2,s2,822 # 8017a6ae <cpu+0x6>
80002380:	00050413          	mv	s0,a0
80002384:	00000593          	li	a1,0
80002388:	00090513          	mv	a0,s2
8000238c:	00167613          	andi	a2,a2,1
80002390:	ab8ff0ef          	jal	ra,80001648 <common_modify_bitb>
80002394:	0034c783          	lbu	a5,3(s1)
80002398:	00741713          	slli	a4,s0,0x7
8000239c:	00090513          	mv	a0,s2
800023a0:	0017d793          	srli	a5,a5,0x1
800023a4:	00e7e7b3          	or	a5,a5,a4
800023a8:	0ff7f793          	zext.b	a5,a5
800023ac:	00100593          	li	a1,1
800023b0:	0017b613          	seqz	a2,a5
800023b4:	00f481a3          	sb	a5,3(s1)
800023b8:	a90ff0ef          	jal	ra,80001648 <common_modify_bitb>
800023bc:	00040613          	mv	a2,s0
800023c0:	00812403          	lw	s0,8(sp)
800023c4:	00c12083          	lw	ra,12(sp)
800023c8:	00412483          	lw	s1,4(sp)
800023cc:	00090513          	mv	a0,s2
800023d0:	00012903          	lw	s2,0(sp)
800023d4:	00700593          	li	a1,7
800023d8:	01010113          	addi	sp,sp,16
800023dc:	a6cff06f          	j	80001648 <common_modify_bitb>

800023e0 <cpu_op_ror>:
800023e0:	ff010113          	addi	sp,sp,-16
800023e4:	00000613          	li	a2,0
800023e8:	00000593          	li	a1,0
800023ec:	00178517          	auipc	a0,0x178
800023f0:	2c254503          	lbu	a0,706(a0) # 8017a6ae <cpu+0x6>
800023f4:	00112623          	sw	ra,12(sp)
800023f8:	00812423          	sw	s0,8(sp)
800023fc:	00912223          	sw	s1,4(sp)
80002400:	01212023          	sw	s2,0(sp)
80002404:	00178417          	auipc	s0,0x178
80002408:	2c040413          	addi	s0,s0,704 # 8017a6c4 <op_value>
8000240c:	9e8ff0ef          	jal	ra,800015f4 <common_bit_set>
80002410:	00042603          	lw	a2,0(s0)
80002414:	00178917          	auipc	s2,0x178
80002418:	29a90913          	addi	s2,s2,666 # 8017a6ae <cpu+0x6>
8000241c:	00050493          	mv	s1,a0
80002420:	00000593          	li	a1,0
80002424:	00090513          	mv	a0,s2
80002428:	00167613          	andi	a2,a2,1
8000242c:	a1cff0ef          	jal	ra,80001648 <common_modify_bitb>
80002430:	00042783          	lw	a5,0(s0)
80002434:	00749713          	slli	a4,s1,0x7
80002438:	00090513          	mv	a0,s2
8000243c:	4017d793          	srai	a5,a5,0x1
80002440:	00e7e7b3          	or	a5,a5,a4
80002444:	0ff7f793          	zext.b	a5,a5
80002448:	0017b613          	seqz	a2,a5
8000244c:	00100593          	li	a1,1
80002450:	00f42023          	sw	a5,0(s0)
80002454:	9f4ff0ef          	jal	ra,80001648 <common_modify_bitb>
80002458:	00090513          	mv	a0,s2
8000245c:	00048613          	mv	a2,s1
80002460:	00700593          	li	a1,7
80002464:	9e4ff0ef          	jal	ra,80001648 <common_modify_bitb>
80002468:	00044583          	lbu	a1,0(s0)
8000246c:	00812403          	lw	s0,8(sp)
80002470:	00c12083          	lw	ra,12(sp)
80002474:	00412483          	lw	s1,4(sp)
80002478:	00012903          	lw	s2,0(sp)
8000247c:	00178517          	auipc	a0,0x178
80002480:	23c55503          	lhu	a0,572(a0) # 8017a6b8 <op_address>
80002484:	01010113          	addi	sp,sp,16
80002488:	9fcfe06f          	j	80000684 <memory_writeb>

8000248c <cpu_op_rra>:
8000248c:	ff010113          	addi	sp,sp,-16
80002490:	00112623          	sw	ra,12(sp)
80002494:	f4dff0ef          	jal	ra,800023e0 <cpu_op_ror>
80002498:	00c12083          	lw	ra,12(sp)
8000249c:	01010113          	addi	sp,sp,16
800024a0:	925ff06f          	j	80001dc4 <cpu_op_adc>

800024a4 <cpu_op_cmp>:
800024a4:	ff010113          	addi	sp,sp,-16
800024a8:	00812423          	sw	s0,8(sp)
800024ac:	00178797          	auipc	a5,0x178
800024b0:	2187a783          	lw	a5,536(a5) # 8017a6c4 <op_value>
800024b4:	00178417          	auipc	s0,0x178
800024b8:	1f744403          	lbu	s0,503(s0) # 8017a6ab <cpu+0x3>
800024bc:	40f40433          	sub	s0,s0,a5
800024c0:	00912223          	sw	s1,4(sp)
800024c4:	fff44613          	not	a2,s0
800024c8:	00178497          	auipc	s1,0x178
800024cc:	1e648493          	addi	s1,s1,486 # 8017a6ae <cpu+0x6>
800024d0:	00048513          	mv	a0,s1
800024d4:	01f65613          	srli	a2,a2,0x1f
800024d8:	00000593          	li	a1,0
800024dc:	00112623          	sw	ra,12(sp)
800024e0:	968ff0ef          	jal	ra,80001648 <common_modify_bitb>
800024e4:	00143613          	seqz	a2,s0
800024e8:	00048513          	mv	a0,s1
800024ec:	00100593          	li	a1,1
800024f0:	958ff0ef          	jal	ra,80001648 <common_modify_bitb>
800024f4:	40745613          	srai	a2,s0,0x7
800024f8:	00812403          	lw	s0,8(sp)
800024fc:	00c12083          	lw	ra,12(sp)
80002500:	00048513          	mv	a0,s1
80002504:	00412483          	lw	s1,4(sp)
80002508:	00167613          	andi	a2,a2,1
8000250c:	00700593          	li	a1,7
80002510:	01010113          	addi	sp,sp,16
80002514:	934ff06f          	j	80001648 <common_modify_bitb>

80002518 <cpu_op_dcm>:
80002518:	00178797          	auipc	a5,0x178
8000251c:	1ac78793          	addi	a5,a5,428 # 8017a6c4 <op_value>
80002520:	0007a583          	lw	a1,0(a5)
80002524:	ff010113          	addi	sp,sp,-16
80002528:	00112623          	sw	ra,12(sp)
8000252c:	fff58593          	addi	a1,a1,-1
80002530:	0ff5f713          	zext.b	a4,a1
80002534:	00178517          	auipc	a0,0x178
80002538:	18455503          	lhu	a0,388(a0) # 8017a6b8 <op_address>
8000253c:	0ff5f593          	zext.b	a1,a1
80002540:	00e7a023          	sw	a4,0(a5)
80002544:	940fe0ef          	jal	ra,80000684 <memory_writeb>
80002548:	00c12083          	lw	ra,12(sp)
8000254c:	01010113          	addi	sp,sp,16
80002550:	f55ff06f          	j	800024a4 <cpu_op_cmp>

80002554 <cpu_op_cpx>:
80002554:	ff010113          	addi	sp,sp,-16
80002558:	00812423          	sw	s0,8(sp)
8000255c:	00178797          	auipc	a5,0x178
80002560:	1687a783          	lw	a5,360(a5) # 8017a6c4 <op_value>
80002564:	00178417          	auipc	s0,0x178
80002568:	14844403          	lbu	s0,328(s0) # 8017a6ac <cpu+0x4>
8000256c:	40f40433          	sub	s0,s0,a5
80002570:	00912223          	sw	s1,4(sp)
80002574:	fff44613          	not	a2,s0
80002578:	00178497          	auipc	s1,0x178
8000257c:	13648493          	addi	s1,s1,310 # 8017a6ae <cpu+0x6>
80002580:	00048513          	mv	a0,s1
80002584:	01f65613          	srli	a2,a2,0x1f
80002588:	00000593          	li	a1,0
8000258c:	00112623          	sw	ra,12(sp)
80002590:	8b8ff0ef          	jal	ra,80001648 <common_modify_bitb>
80002594:	00143613          	seqz	a2,s0
80002598:	00048513          	mv	a0,s1
8000259c:	00100593          	li	a1,1
800025a0:	8a8ff0ef          	jal	ra,80001648 <common_modify_bitb>
800025a4:	40745613          	srai	a2,s0,0x7
800025a8:	00812403          	lw	s0,8(sp)
800025ac:	00c12083          	lw	ra,12(sp)
800025b0:	00048513          	mv	a0,s1
800025b4:	00412483          	lw	s1,4(sp)
800025b8:	00167613          	andi	a2,a2,1
800025bc:	00700593          	li	a1,7
800025c0:	01010113          	addi	sp,sp,16
800025c4:	884ff06f          	j	80001648 <common_modify_bitb>

800025c8 <cpu_op_cpy>:
800025c8:	ff010113          	addi	sp,sp,-16
800025cc:	00812423          	sw	s0,8(sp)
800025d0:	00178797          	auipc	a5,0x178
800025d4:	0f47a783          	lw	a5,244(a5) # 8017a6c4 <op_value>
800025d8:	00178417          	auipc	s0,0x178
800025dc:	0d544403          	lbu	s0,213(s0) # 8017a6ad <cpu+0x5>
800025e0:	40f40433          	sub	s0,s0,a5
800025e4:	00912223          	sw	s1,4(sp)
800025e8:	fff44613          	not	a2,s0
800025ec:	00178497          	auipc	s1,0x178
800025f0:	0c248493          	addi	s1,s1,194 # 8017a6ae <cpu+0x6>
800025f4:	00048513          	mv	a0,s1
800025f8:	01f65613          	srli	a2,a2,0x1f
800025fc:	00000593          	li	a1,0
80002600:	00112623          	sw	ra,12(sp)
80002604:	844ff0ef          	jal	ra,80001648 <common_modify_bitb>
80002608:	00143613          	seqz	a2,s0
8000260c:	00048513          	mv	a0,s1
80002610:	00100593          	li	a1,1
80002614:	834ff0ef          	jal	ra,80001648 <common_modify_bitb>
80002618:	40745613          	srai	a2,s0,0x7
8000261c:	00812403          	lw	s0,8(sp)
80002620:	00c12083          	lw	ra,12(sp)
80002624:	00048513          	mv	a0,s1
80002628:	00412483          	lw	s1,4(sp)
8000262c:	00167613          	andi	a2,a2,1
80002630:	00700593          	li	a1,7
80002634:	01010113          	addi	sp,sp,16
80002638:	810ff06f          	j	80001648 <common_modify_bitb>

8000263c <cpu_op_clc>:
8000263c:	00000593          	li	a1,0
80002640:	00178517          	auipc	a0,0x178
80002644:	06e50513          	addi	a0,a0,110 # 8017a6ae <cpu+0x6>
80002648:	fe5fe06f          	j	8000162c <common_unset_bitb>

8000264c <cpu_op_cld>:
8000264c:	00300593          	li	a1,3
80002650:	00178517          	auipc	a0,0x178
80002654:	05e50513          	addi	a0,a0,94 # 8017a6ae <cpu+0x6>
80002658:	fd5fe06f          	j	8000162c <common_unset_bitb>

8000265c <cpu_op_cli>:
8000265c:	00200593          	li	a1,2
80002660:	00178517          	auipc	a0,0x178
80002664:	04e50513          	addi	a0,a0,78 # 8017a6ae <cpu+0x6>
80002668:	fc5fe06f          	j	8000162c <common_unset_bitb>

8000266c <cpu_op_clv>:
8000266c:	00600593          	li	a1,6
80002670:	00178517          	auipc	a0,0x178
80002674:	03e50513          	addi	a0,a0,62 # 8017a6ae <cpu+0x6>
80002678:	fb5fe06f          	j	8000162c <common_unset_bitb>

8000267c <cpu_op_sec>:
8000267c:	00000593          	li	a1,0
80002680:	00178517          	auipc	a0,0x178
80002684:	02e50513          	addi	a0,a0,46 # 8017a6ae <cpu+0x6>
80002688:	f8dfe06f          	j	80001614 <common_set_bitb>

8000268c <cpu_op_sed>:
8000268c:	00300593          	li	a1,3
80002690:	00178517          	auipc	a0,0x178
80002694:	01e50513          	addi	a0,a0,30 # 8017a6ae <cpu+0x6>
80002698:	f7dfe06f          	j	80001614 <common_set_bitb>

8000269c <cpu_op_sei>:
8000269c:	00200593          	li	a1,2
800026a0:	00178517          	auipc	a0,0x178
800026a4:	00e50513          	addi	a0,a0,14 # 8017a6ae <cpu+0x6>
800026a8:	f6dfe06f          	j	80001614 <common_set_bitb>

800026ac <cpu_op_nop>:
800026ac:	00008067          	ret

800026b0 <cpu_op_rts>:
800026b0:	ff010113          	addi	sp,sp,-16
800026b4:	00812423          	sw	s0,8(sp)
800026b8:	00178417          	auipc	s0,0x178
800026bc:	ff040413          	addi	s0,s0,-16 # 8017a6a8 <cpu>
800026c0:	00244783          	lbu	a5,2(s0)
800026c4:	00112623          	sw	ra,12(sp)
800026c8:	00278793          	addi	a5,a5,2
800026cc:	0ff7f793          	zext.b	a5,a5
800026d0:	0ff78513          	addi	a0,a5,255
800026d4:	00f40123          	sb	a5,2(s0)
800026d8:	8acfe0ef          	jal	ra,80000784 <memory_readw>
800026dc:	00150513          	addi	a0,a0,1
800026e0:	00c12083          	lw	ra,12(sp)
800026e4:	00a41023          	sh	a0,0(s0)
800026e8:	00812403          	lw	s0,8(sp)
800026ec:	01010113          	addi	sp,sp,16
800026f0:	00008067          	ret

800026f4 <cpu_op_aso>:
800026f4:	ff010113          	addi	sp,sp,-16
800026f8:	00112623          	sw	ra,12(sp)
800026fc:	98dff0ef          	jal	ra,80002088 <cpu_op_asl>
80002700:	00178797          	auipc	a5,0x178
80002704:	fa878793          	addi	a5,a5,-88 # 8017a6a8 <cpu>
80002708:	0037c703          	lbu	a4,3(a5)
8000270c:	00178697          	auipc	a3,0x178
80002710:	fb86c683          	lbu	a3,-72(a3) # 8017a6c4 <op_value>
80002714:	0067c603          	lbu	a2,6(a5)
80002718:	00d76733          	or	a4,a4,a3
8000271c:	00003697          	auipc	a3,0x3
80002720:	9f068693          	addi	a3,a3,-1552 # 8000510c <cpu_zn_flag_table>
80002724:	00e686b3          	add	a3,a3,a4
80002728:	0006c683          	lbu	a3,0(a3)
8000272c:	07d67613          	andi	a2,a2,125
80002730:	00e781a3          	sb	a4,3(a5)
80002734:	00c6e733          	or	a4,a3,a2
80002738:	00e78323          	sb	a4,6(a5)
8000273c:	00c12083          	lw	ra,12(sp)
80002740:	01010113          	addi	sp,sp,16
80002744:	00008067          	ret

80002748 <cpu_op_lse>:
80002748:	ff010113          	addi	sp,sp,-16
8000274c:	00112623          	sw	ra,12(sp)
80002750:	a29ff0ef          	jal	ra,80002178 <cpu_op_lsr>
80002754:	00178797          	auipc	a5,0x178
80002758:	f5478793          	addi	a5,a5,-172 # 8017a6a8 <cpu>
8000275c:	0037c703          	lbu	a4,3(a5)
80002760:	00178697          	auipc	a3,0x178
80002764:	f646c683          	lbu	a3,-156(a3) # 8017a6c4 <op_value>
80002768:	0067c603          	lbu	a2,6(a5)
8000276c:	00d74733          	xor	a4,a4,a3
80002770:	00003697          	auipc	a3,0x3
80002774:	99c68693          	addi	a3,a3,-1636 # 8000510c <cpu_zn_flag_table>
80002778:	00e686b3          	add	a3,a3,a4
8000277c:	0006c683          	lbu	a3,0(a3)
80002780:	07d67613          	andi	a2,a2,125
80002784:	00e781a3          	sb	a4,3(a5)
80002788:	00c6e733          	or	a4,a3,a2
8000278c:	00e78323          	sb	a4,6(a5)
80002790:	00c12083          	lw	ra,12(sp)
80002794:	01010113          	addi	sp,sp,16
80002798:	00008067          	ret

8000279c <cpu_op_rla>:
8000279c:	ff010113          	addi	sp,sp,-16
800027a0:	00112623          	sw	ra,12(sp)
800027a4:	aedff0ef          	jal	ra,80002290 <cpu_op_rol>
800027a8:	00178797          	auipc	a5,0x178
800027ac:	f0078793          	addi	a5,a5,-256 # 8017a6a8 <cpu>
800027b0:	0037c703          	lbu	a4,3(a5)
800027b4:	00178697          	auipc	a3,0x178
800027b8:	f106a683          	lw	a3,-240(a3) # 8017a6c4 <op_value>
800027bc:	0067c603          	lbu	a2,6(a5)
800027c0:	00d77733          	and	a4,a4,a3
800027c4:	00003697          	auipc	a3,0x3
800027c8:	94868693          	addi	a3,a3,-1720 # 8000510c <cpu_zn_flag_table>
800027cc:	00e686b3          	add	a3,a3,a4
800027d0:	0006c683          	lbu	a3,0(a3)
800027d4:	07d67613          	andi	a2,a2,125
800027d8:	00e781a3          	sb	a4,3(a5)
800027dc:	00c6e733          	or	a4,a3,a2
800027e0:	00e78323          	sb	a4,6(a5)
800027e4:	00c12083          	lw	ra,12(sp)
800027e8:	01010113          	addi	sp,sp,16
800027ec:	00008067          	ret

800027f0 <cpu_op_plp>:
800027f0:	ff010113          	addi	sp,sp,-16
800027f4:	00812423          	sw	s0,8(sp)
800027f8:	00178417          	auipc	s0,0x178
800027fc:	eb040413          	addi	s0,s0,-336 # 8017a6a8 <cpu>
80002800:	00244783          	lbu	a5,2(s0)
80002804:	00112623          	sw	ra,12(sp)
80002808:	00178793          	addi	a5,a5,1
8000280c:	0ff7f793          	zext.b	a5,a5
80002810:	10078513          	addi	a0,a5,256
80002814:	00f40123          	sb	a5,2(s0)
80002818:	e21fd0ef          	jal	ra,80000638 <memory_readb>
8000281c:	fcf57513          	andi	a0,a0,-49
80002820:	02056513          	ori	a0,a0,32
80002824:	00c12083          	lw	ra,12(sp)
80002828:	00a40323          	sb	a0,6(s0)
8000282c:	00812403          	lw	s0,8(sp)
80002830:	01010113          	addi	sp,sp,16
80002834:	00008067          	ret

80002838 <cpu_op_pla>:
80002838:	ff010113          	addi	sp,sp,-16
8000283c:	00812423          	sw	s0,8(sp)
80002840:	00178417          	auipc	s0,0x178
80002844:	e6840413          	addi	s0,s0,-408 # 8017a6a8 <cpu>
80002848:	00244783          	lbu	a5,2(s0)
8000284c:	00112623          	sw	ra,12(sp)
80002850:	00178793          	addi	a5,a5,1
80002854:	0ff7f793          	zext.b	a5,a5
80002858:	10078513          	addi	a0,a5,256
8000285c:	00f40123          	sb	a5,2(s0)
80002860:	dd9fd0ef          	jal	ra,80000638 <memory_readb>
80002864:	00003717          	auipc	a4,0x3
80002868:	8a870713          	addi	a4,a4,-1880 # 8000510c <cpu_zn_flag_table>
8000286c:	00644783          	lbu	a5,6(s0)
80002870:	00a70733          	add	a4,a4,a0
80002874:	00074703          	lbu	a4,0(a4)
80002878:	07d7f793          	andi	a5,a5,125
8000287c:	00c12083          	lw	ra,12(sp)
80002880:	00e7e7b3          	or	a5,a5,a4
80002884:	00a401a3          	sb	a0,3(s0)
80002888:	00f40323          	sb	a5,6(s0)
8000288c:	00812403          	lw	s0,8(sp)
80002890:	01010113          	addi	sp,sp,16
80002894:	00008067          	ret

80002898 <cpu_op_pha>:
80002898:	00178797          	auipc	a5,0x178
8000289c:	e1078793          	addi	a5,a5,-496 # 8017a6a8 <cpu>
800028a0:	0027c503          	lbu	a0,2(a5)
800028a4:	0037c583          	lbu	a1,3(a5)
800028a8:	fff50713          	addi	a4,a0,-1
800028ac:	10050513          	addi	a0,a0,256
800028b0:	00e78123          	sb	a4,2(a5)
800028b4:	dd1fd06f          	j	80000684 <memory_writeb>

800028b8 <cpu_op_rti>:
800028b8:	ff010113          	addi	sp,sp,-16
800028bc:	00812423          	sw	s0,8(sp)
800028c0:	00178417          	auipc	s0,0x178
800028c4:	de840413          	addi	s0,s0,-536 # 8017a6a8 <cpu>
800028c8:	00244783          	lbu	a5,2(s0)
800028cc:	00112623          	sw	ra,12(sp)
800028d0:	00178793          	addi	a5,a5,1
800028d4:	0ff7f793          	zext.b	a5,a5
800028d8:	10078513          	addi	a0,a5,256
800028dc:	00f40123          	sb	a5,2(s0)
800028e0:	d59fd0ef          	jal	ra,80000638 <memory_readb>
800028e4:	00244783          	lbu	a5,2(s0)
800028e8:	02056513          	ori	a0,a0,32
800028ec:	00a40323          	sb	a0,6(s0)
800028f0:	00278793          	addi	a5,a5,2
800028f4:	0ff7f793          	zext.b	a5,a5
800028f8:	0ff78513          	addi	a0,a5,255
800028fc:	00f40123          	sb	a5,2(s0)
80002900:	e85fd0ef          	jal	ra,80000784 <memory_readw>
80002904:	00c12083          	lw	ra,12(sp)
80002908:	00a41023          	sh	a0,0(s0)
8000290c:	00812403          	lw	s0,8(sp)
80002910:	01010113          	addi	sp,sp,16
80002914:	00008067          	ret

80002918 <cpu_op_php>:
80002918:	00178797          	auipc	a5,0x178
8000291c:	d9078793          	addi	a5,a5,-624 # 8017a6a8 <cpu>
80002920:	0027c503          	lbu	a0,2(a5)
80002924:	0067c583          	lbu	a1,6(a5)
80002928:	fff50713          	addi	a4,a0,-1
8000292c:	0305e593          	ori	a1,a1,48
80002930:	10050513          	addi	a0,a0,256
80002934:	00e78123          	sb	a4,2(a5)
80002938:	d4dfd06f          	j	80000684 <memory_writeb>

8000293c <cpu_op_jsr>:
8000293c:	ff010113          	addi	sp,sp,-16
80002940:	00812423          	sw	s0,8(sp)
80002944:	00178417          	auipc	s0,0x178
80002948:	d6440413          	addi	s0,s0,-668 # 8017a6a8 <cpu>
8000294c:	00045583          	lhu	a1,0(s0)
80002950:	00244503          	lbu	a0,2(s0)
80002954:	00112623          	sw	ra,12(sp)
80002958:	fff58593          	addi	a1,a1,-1
8000295c:	01059593          	slli	a1,a1,0x10
80002960:	0105d593          	srli	a1,a1,0x10
80002964:	0ff50513          	addi	a0,a0,255
80002968:	e69fd0ef          	jal	ra,800007d0 <memory_writew>
8000296c:	00244783          	lbu	a5,2(s0)
80002970:	00178717          	auipc	a4,0x178
80002974:	d4872703          	lw	a4,-696(a4) # 8017a6b8 <op_address>
80002978:	00c12083          	lw	ra,12(sp)
8000297c:	ffe78793          	addi	a5,a5,-2
80002980:	00e41023          	sh	a4,0(s0)
80002984:	00f40123          	sb	a5,2(s0)
80002988:	00812403          	lw	s0,8(sp)
8000298c:	01010113          	addi	sp,sp,16
80002990:	00008067          	ret

80002994 <cpu_op_brk>:
80002994:	ff010113          	addi	sp,sp,-16
80002998:	00812423          	sw	s0,8(sp)
8000299c:	00178417          	auipc	s0,0x178
800029a0:	d0c40413          	addi	s0,s0,-756 # 8017a6a8 <cpu>
800029a4:	00045583          	lhu	a1,0(s0)
800029a8:	00244503          	lbu	a0,2(s0)
800029ac:	00112623          	sw	ra,12(sp)
800029b0:	fff58593          	addi	a1,a1,-1
800029b4:	01059593          	slli	a1,a1,0x10
800029b8:	0105d593          	srli	a1,a1,0x10
800029bc:	0ff50513          	addi	a0,a0,255
800029c0:	e11fd0ef          	jal	ra,800007d0 <memory_writew>
800029c4:	00244783          	lbu	a5,2(s0)
800029c8:	00644583          	lbu	a1,6(s0)
800029cc:	ffe78513          	addi	a0,a5,-2
800029d0:	0ff57513          	zext.b	a0,a0
800029d4:	10050513          	addi	a0,a0,256
800029d8:	01051513          	slli	a0,a0,0x10
800029dc:	ffd78793          	addi	a5,a5,-3
800029e0:	01055513          	srli	a0,a0,0x10
800029e4:	00f40123          	sb	a5,2(s0)
800029e8:	c9dfd0ef          	jal	ra,80000684 <memory_writeb>
800029ec:	00644783          	lbu	a5,6(s0)
800029f0:	00010537          	lui	a0,0x10
800029f4:	ffa50513          	addi	a0,a0,-6 # fffa <_entry_offset+0xfffa>
800029f8:	0307e793          	ori	a5,a5,48
800029fc:	00f40323          	sb	a5,6(s0)
80002a00:	d85fd0ef          	jal	ra,80000784 <memory_readw>
80002a04:	00c12083          	lw	ra,12(sp)
80002a08:	00a41023          	sh	a0,0(s0)
80002a0c:	00812403          	lw	s0,8(sp)
80002a10:	01010113          	addi	sp,sp,16
80002a14:	00008067          	ret

80002a18 <cpu_ram_read>:
80002a18:	7ff57513          	andi	a0,a0,2047
80002a1c:	0016f797          	auipc	a5,0x16f
80002a20:	07078793          	addi	a5,a5,112 # 80171a8c <CPU_RAM>
80002a24:	00a787b3          	add	a5,a5,a0
80002a28:	0007c503          	lbu	a0,0(a5)
80002a2c:	00008067          	ret

80002a30 <cpu_ram_write>:
80002a30:	7ff57513          	andi	a0,a0,2047
80002a34:	0016f797          	auipc	a5,0x16f
80002a38:	05878793          	addi	a5,a5,88 # 80171a8c <CPU_RAM>
80002a3c:	00a787b3          	add	a5,a5,a0
80002a40:	00b78023          	sb	a1,0(a5)
80002a44:	00008067          	ret

80002a48 <cpu_init>:
80002a48:	fd010113          	addi	sp,sp,-48
80002a4c:	00178717          	auipc	a4,0x178
80002a50:	84070713          	addi	a4,a4,-1984 # 8017a28c <cpu_op_handler>
80002a54:	02812623          	sw	s0,44(sp)
80002a58:	02912423          	sw	s1,40(sp)
80002a5c:	03212223          	sw	s2,36(sp)
80002a60:	03312023          	sw	s3,32(sp)
80002a64:	01412e23          	sw	s4,28(sp)
80002a68:	01512c23          	sw	s5,24(sp)
80002a6c:	01612a23          	sw	s6,20(sp)
80002a70:	01712823          	sw	s7,16(sp)
80002a74:	01812623          	sw	s8,12(sp)
80002a78:	01912423          	sw	s9,8(sp)
80002a7c:	01a12223          	sw	s10,4(sp)
80002a80:	01b12023          	sw	s11,0(sp)
80002a84:	00000b97          	auipc	s7,0x0
80002a88:	f10b8b93          	addi	s7,s7,-240 # 80002994 <cpu_op_brk>
80002a8c:	01772023          	sw	s7,0(a4)
80002a90:	00000b97          	auipc	s7,0x0
80002a94:	e88b8b93          	addi	s7,s7,-376 # 80002918 <cpu_op_php>
80002a98:	00177797          	auipc	a5,0x177
80002a9c:	ff478793          	addi	a5,a5,-12 # 80179a8c <cpu_op_address_mode>
80002aa0:	00177697          	auipc	a3,0x177
80002aa4:	3ec68693          	addi	a3,a3,1004 # 80179e8c <cpu_op_cycles>
80002aa8:	00200593          	li	a1,2
80002aac:	00600513          	li	a0,6
80002ab0:	00001817          	auipc	a6,0x1
80002ab4:	fc080813          	addi	a6,a6,-64 # 80003a70 <cpu_address_implied>
80002ab8:	00001897          	auipc	a7,0x1
80002abc:	ffc88893          	addi	a7,a7,-4 # 80003ab4 <cpu_address_zero_page>
80002ac0:	00500f13          	li	t5,5
80002ac4:	00300f93          	li	t6,3
80002ac8:	00700393          	li	t2,7
80002acc:	00001917          	auipc	s2,0x1
80002ad0:	38890913          	addi	s2,s2,904 # 80003e54 <cpu_address_indirect_x>
80002ad4:	00001997          	auipc	s3,0x1
80002ad8:	fa098993          	addi	s3,s3,-96 # 80003a74 <cpu_address_immediate>
80002adc:	fffffa97          	auipc	s5,0xfffff
80002ae0:	c20a8a93          	addi	s5,s5,-992 # 800016fc <cpu_op_ora>
80002ae4:	fffffb17          	auipc	s6,0xfffff
80002ae8:	5a4b0b13          	addi	s6,s6,1444 # 80002088 <cpu_op_asl>
80002aec:	03772023          	sw	s7,32(a4)
80002af0:	fffffb97          	auipc	s7,0xfffff
80002af4:	52cb8b93          	addi	s7,s7,1324 # 8000201c <cpu_op_asla>
80002af8:	0127a223          	sw	s2,4(a5)
80002afc:	0337a223          	sw	s3,36(a5)
80002b00:	0107a023          	sw	a6,0(a5)
80002b04:	01572223          	sw	s5,4(a4)
80002b08:	01f6aa23          	sw	t6,20(a3)
80002b0c:	01572a23          	sw	s5,20(a4)
80002b10:	0117aa23          	sw	a7,20(a5)
80002b14:	01672c23          	sw	s6,24(a4)
80002b18:	0117ac23          	sw	a7,24(a5)
80002b1c:	03f6a023          	sw	t6,32(a3)
80002b20:	0307a023          	sw	a6,32(a5)
80002b24:	03572223          	sw	s5,36(a4)
80002b28:	03772423          	sw	s7,40(a4)
80002b2c:	0076a023          	sw	t2,0(a3)
80002b30:	fffffb97          	auipc	s7,0xfffff
80002b34:	20cb8b93          	addi	s7,s7,524 # 80001d3c <cpu_op_bpl>
80002b38:	00a6a223          	sw	a0,4(a3)
80002b3c:	01e6ac23          	sw	t5,24(a3)
80002b40:	02b6a223          	sw	a1,36(a3)
80002b44:	02b6a423          	sw	a1,40(a3)
80002b48:	00400613          	li	a2,4
80002b4c:	0307a423          	sw	a6,40(a5)
80002b50:	00001317          	auipc	t1,0x1
80002b54:	08430313          	addi	t1,t1,132 # 80003bd4 <cpu_address_absolute>
80002b58:	00001e17          	auipc	t3,0x1
80002b5c:	fb4e0e13          	addi	t3,t3,-76 # 80003b0c <cpu_address_zero_page_x>
80002b60:	00001e97          	auipc	t4,0x1
80002b64:	0c0e8e93          	addi	t4,t4,192 # 80003c20 <cpu_address_absolute_x>
80002b68:	00001417          	auipc	s0,0x1
80002b6c:	14c40413          	addi	s0,s0,332 # 80003cb4 <cpu_address_absolute_y>
80002b70:	00001497          	auipc	s1,0x1
80002b74:	37c48493          	addi	s1,s1,892 # 80003eec <cpu_address_indirect_y>
80002b78:	00001297          	auipc	t0,0x1
80002b7c:	1d428293          	addi	t0,t0,468 # 80003d4c <cpu_address_relative>
80002b80:	03572a23          	sw	s5,52(a4)
80002b84:	05772023          	sw	s7,64(a4)
80002b88:	05572223          	sw	s5,68(a4)
80002b8c:	05572a23          	sw	s5,84(a4)
80002b90:	00000b97          	auipc	s7,0x0
80002b94:	aacb8b93          	addi	s7,s7,-1364 # 8000263c <cpu_op_clc>
80002b98:	07572223          	sw	s5,100(a4)
80002b9c:	07572a23          	sw	s5,116(a4)
80002ba0:	00000a97          	auipc	s5,0x0
80002ba4:	d9ca8a93          	addi	s5,s5,-612 # 8000293c <cpu_op_jsr>
80002ba8:	fffffc97          	auipc	s9,0xfffff
80002bac:	408c8c93          	addi	s9,s9,1032 # 80001fb0 <cpu_op_bit>
80002bb0:	0457a023          	sw	t0,64(a5)
80002bb4:	0497a223          	sw	s1,68(a5)
80002bb8:	0687a223          	sw	s0,100(a5)
80002bbc:	02c6aa23          	sw	a2,52(a3)
80002bc0:	0267aa23          	sw	t1,52(a5)
80002bc4:	03672c23          	sw	s6,56(a4)
80002bc8:	0267ac23          	sw	t1,56(a5)
80002bcc:	04c6aa23          	sw	a2,84(a3)
80002bd0:	05c7aa23          	sw	t3,84(a5)
80002bd4:	05672c23          	sw	s6,88(a4)
80002bd8:	05c7ac23          	sw	t3,88(a5)
80002bdc:	07772023          	sw	s7,96(a4)
80002be0:	0707a023          	sw	a6,96(a5)
80002be4:	06c6a223          	sw	a2,100(a3)
80002be8:	06c6aa23          	sw	a2,116(a3)
80002bec:	07d7aa23          	sw	t4,116(a5)
80002bf0:	07672c23          	sw	s6,120(a4)
80002bf4:	07d7ac23          	sw	t4,120(a5)
80002bf8:	09572023          	sw	s5,128(a4)
80002bfc:	00000d17          	auipc	s10,0x0
80002c00:	bf4d0d13          	addi	s10,s10,-1036 # 800027f0 <cpu_op_plp>
80002c04:	02a6ac23          	sw	a0,56(a3)
80002c08:	04b6a023          	sw	a1,64(a3)
80002c0c:	05e6a223          	sw	t5,68(a3)
80002c10:	04a6ac23          	sw	a0,88(a3)
80002c14:	06b6a023          	sw	a1,96(a3)
80002c18:	0676ac23          	sw	t2,120(a3)
80002c1c:	08a6a023          	sw	a0,128(a3)
80002c20:	0867a023          	sw	t1,128(a5)
80002c24:	fffffa17          	auipc	s4,0xfffff
80002c28:	a58a0a13          	addi	s4,s4,-1448 # 8000167c <cpu_op_and>
80002c2c:	fffffc17          	auipc	s8,0xfffff
80002c30:	664c0c13          	addi	s8,s8,1636 # 80002290 <cpu_op_rol>
80002c34:	09972823          	sw	s9,144(a4)
80002c38:	0ba72023          	sw	s10,160(a4)
80002c3c:	0b972823          	sw	s9,176(a4)
80002c40:	fffffd17          	auipc	s10,0xfffff
80002c44:	5c8d0d13          	addi	s10,s10,1480 # 80002208 <cpu_op_rola>
80002c48:	fffffc97          	auipc	s9,0xfffff
80002c4c:	fe4c8c93          	addi	s9,s9,-28 # 80001c2c <cpu_op_bmi>
80002c50:	0927a223          	sw	s2,132(a5)
80002c54:	0b37a223          	sw	s3,164(a5)
80002c58:	09472223          	sw	s4,132(a4)
80002c5c:	09f6a823          	sw	t6,144(a3)
80002c60:	0917a823          	sw	a7,144(a5)
80002c64:	09f6aa23          	sw	t6,148(a3)
80002c68:	09472a23          	sw	s4,148(a4)
80002c6c:	0917aa23          	sw	a7,148(a5)
80002c70:	09872c23          	sw	s8,152(a4)
80002c74:	0917ac23          	sw	a7,152(a5)
80002c78:	0ac6a023          	sw	a2,160(a3)
80002c7c:	0b07a023          	sw	a6,160(a5)
80002c80:	0b472223          	sw	s4,164(a4)
80002c84:	0ba72423          	sw	s10,168(a4)
80002c88:	0b07a423          	sw	a6,168(a5)
80002c8c:	0ac6a823          	sw	a2,176(a3)
80002c90:	0a67a823          	sw	t1,176(a5)
80002c94:	0b472a23          	sw	s4,180(a4)
80002c98:	0a67aa23          	sw	t1,180(a5)
80002c9c:	0b872c23          	sw	s8,184(a4)
80002ca0:	0a67ac23          	sw	t1,184(a5)
80002ca4:	0d972023          	sw	s9,192(a4)
80002ca8:	08a6a223          	sw	a0,132(a3)
80002cac:	09e6ac23          	sw	t5,152(a3)
80002cb0:	0ab6a223          	sw	a1,164(a3)
80002cb4:	0ab6a423          	sw	a1,168(a3)
80002cb8:	0ab6aa23          	sw	a1,180(a3)
80002cbc:	0aa6ac23          	sw	a0,184(a3)
80002cc0:	0cb6a023          	sw	a1,192(a3)
80002cc4:	0c57a023          	sw	t0,192(a5)
80002cc8:	fffffa97          	auipc	s5,0xfffff
80002ccc:	9f4a8a93          	addi	s5,s5,-1548 # 800016bc <cpu_op_eor>
80002cd0:	fffffb97          	auipc	s7,0xfffff
80002cd4:	4a8b8b93          	addi	s7,s7,1192 # 80002178 <cpu_op_lsr>
80002cd8:	0d472223          	sw	s4,196(a4)
80002cdc:	0d472a23          	sw	s4,212(a4)
80002ce0:	00000c97          	auipc	s9,0x0
80002ce4:	99cc8c93          	addi	s9,s9,-1636 # 8000267c <cpu_op_sec>
80002ce8:	0f472223          	sw	s4,228(a4)
80002cec:	0f472a23          	sw	s4,244(a4)
80002cf0:	00000a17          	auipc	s4,0x0
80002cf4:	bc8a0a13          	addi	s4,s4,-1080 # 800028b8 <cpu_op_rti>
80002cf8:	0c97a223          	sw	s1,196(a5)
80002cfc:	0e87a223          	sw	s0,228(a5)
80002d00:	1127a223          	sw	s2,260(a5)
80002d04:	0cc6aa23          	sw	a2,212(a3)
80002d08:	0dc7aa23          	sw	t3,212(a5)
80002d0c:	0d872c23          	sw	s8,216(a4)
80002d10:	0dc7ac23          	sw	t3,216(a5)
80002d14:	0f972023          	sw	s9,224(a4)
80002d18:	0f07a023          	sw	a6,224(a5)
80002d1c:	0ec6a223          	sw	a2,228(a3)
80002d20:	0ec6aa23          	sw	a2,244(a3)
80002d24:	0fd7aa23          	sw	t4,244(a5)
80002d28:	0f872c23          	sw	s8,248(a4)
80002d2c:	0fd7ac23          	sw	t4,248(a5)
80002d30:	11472023          	sw	s4,256(a4)
80002d34:	1107a023          	sw	a6,256(a5)
80002d38:	11572223          	sw	s5,260(a4)
80002d3c:	11f6aa23          	sw	t6,276(a3)
80002d40:	11572a23          	sw	s5,276(a4)
80002d44:	1117aa23          	sw	a7,276(a5)
80002d48:	11772c23          	sw	s7,280(a4)
80002d4c:	00000a17          	auipc	s4,0x0
80002d50:	b4ca0a13          	addi	s4,s4,-1204 # 80002898 <cpu_op_pha>
80002d54:	fffffc17          	auipc	s8,0xfffff
80002d58:	02cc0c13          	addi	s8,s8,44 # 80001d80 <cpu_op_bvc>
80002d5c:	0de6a223          	sw	t5,196(a3)
80002d60:	0ca6ac23          	sw	a0,216(a3)
80002d64:	0eb6a023          	sw	a1,224(a3)
80002d68:	0e76ac23          	sw	t2,248(a3)
80002d6c:	10a6a023          	sw	a0,256(a3)
80002d70:	10a6a223          	sw	a0,260(a3)
80002d74:	11e6ac23          	sw	t5,280(a3)
80002d78:	1117ac23          	sw	a7,280(a5)
80002d7c:	fffffb17          	auipc	s6,0xfffff
80002d80:	b8cb0b13          	addi	s6,s6,-1140 # 80001908 <cpu_op_jmp>
80002d84:	13472023          	sw	s4,288(a4)
80002d88:	15872023          	sw	s8,320(a4)
80002d8c:	fffffa17          	auipc	s4,0xfffff
80002d90:	380a0a13          	addi	s4,s4,896 # 8000210c <cpu_op_lsra>
80002d94:	00000c17          	auipc	s8,0x0
80002d98:	8c8c0c13          	addi	s8,s8,-1848 # 8000265c <cpu_op_cli>
80002d9c:	1337a223          	sw	s3,292(a5)
80002da0:	1457a023          	sw	t0,320(a5)
80002da4:	1497a223          	sw	s1,324(a5)
80002da8:	13f6a023          	sw	t6,288(a3)
80002dac:	1307a023          	sw	a6,288(a5)
80002db0:	13572223          	sw	s5,292(a4)
80002db4:	13472423          	sw	s4,296(a4)
80002db8:	1307a423          	sw	a6,296(a5)
80002dbc:	13f6a823          	sw	t6,304(a3)
80002dc0:	13672823          	sw	s6,304(a4)
80002dc4:	1267a823          	sw	t1,304(a5)
80002dc8:	12c6aa23          	sw	a2,308(a3)
80002dcc:	13572a23          	sw	s5,308(a4)
80002dd0:	1267aa23          	sw	t1,308(a5)
80002dd4:	13772c23          	sw	s7,312(a4)
80002dd8:	1267ac23          	sw	t1,312(a5)
80002ddc:	15572223          	sw	s5,324(a4)
80002de0:	14c6aa23          	sw	a2,340(a3)
80002de4:	15572a23          	sw	s5,340(a4)
80002de8:	15c7aa23          	sw	t3,340(a5)
80002dec:	15772c23          	sw	s7,344(a4)
80002df0:	15c7ac23          	sw	t3,344(a5)
80002df4:	17872023          	sw	s8,352(a4)
80002df8:	12b6a223          	sw	a1,292(a3)
80002dfc:	12b6a423          	sw	a1,296(a3)
80002e00:	12a6ac23          	sw	a0,312(a3)
80002e04:	14b6a023          	sw	a1,320(a3)
80002e08:	15e6a223          	sw	t5,324(a3)
80002e0c:	14a6ac23          	sw	a0,344(a3)
80002e10:	16b6a023          	sw	a1,352(a3)
80002e14:	1707a023          	sw	a6,352(a5)
80002e18:	17572223          	sw	s5,356(a4)
80002e1c:	17572a23          	sw	s5,372(a4)
80002e20:	00000a97          	auipc	s5,0x0
80002e24:	890a8a93          	addi	s5,s5,-1904 # 800026b0 <cpu_op_rts>
80002e28:	19572023          	sw	s5,384(a4)
80002e2c:	00000a97          	auipc	s5,0x0
80002e30:	a0ca8a93          	addi	s5,s5,-1524 # 80002838 <cpu_op_pla>
80002e34:	fffffa17          	auipc	s4,0xfffff
80002e38:	f90a0a13          	addi	s4,s4,-112 # 80001dc4 <cpu_op_adc>
80002e3c:	fffffd17          	auipc	s10,0xfffff
80002e40:	5a4d0d13          	addi	s10,s10,1444 # 800023e0 <cpu_op_ror>
80002e44:	1b572023          	sw	s5,416(a4)
80002e48:	fffffa97          	auipc	s5,0xfffff
80002e4c:	500a8a93          	addi	s5,s5,1280 # 80002348 <cpu_op_rora>
80002e50:	1687a223          	sw	s0,356(a5)
80002e54:	1927a223          	sw	s2,388(a5)
80002e58:	1b37a223          	sw	s3,420(a5)
80002e5c:	16c6a223          	sw	a2,356(a3)
80002e60:	16c6aa23          	sw	a2,372(a3)
80002e64:	17d7aa23          	sw	t4,372(a5)
80002e68:	17772c23          	sw	s7,376(a4)
80002e6c:	17d7ac23          	sw	t4,376(a5)
80002e70:	1907a023          	sw	a6,384(a5)
80002e74:	19472223          	sw	s4,388(a4)
80002e78:	19f6aa23          	sw	t6,404(a3)
80002e7c:	19472a23          	sw	s4,404(a4)
80002e80:	1917aa23          	sw	a7,404(a5)
80002e84:	19a72c23          	sw	s10,408(a4)
80002e88:	1917ac23          	sw	a7,408(a5)
80002e8c:	1ac6a023          	sw	a2,416(a3)
80002e90:	1b07a023          	sw	a6,416(a5)
80002e94:	1b472223          	sw	s4,420(a4)
80002e98:	1b572423          	sw	s5,424(a4)
80002e9c:	1b07a423          	sw	a6,424(a5)
80002ea0:	1b672823          	sw	s6,432(a4)
80002ea4:	00001a97          	auipc	s5,0x1
80002ea8:	f24a8a93          	addi	s5,s5,-220 # 80003dc8 <cpu_address_indirect>
80002eac:	1676ac23          	sw	t2,376(a3)
80002eb0:	18a6a023          	sw	a0,384(a3)
80002eb4:	18a6a223          	sw	a0,388(a3)
80002eb8:	19e6ac23          	sw	t5,408(a3)
80002ebc:	1ab6a223          	sw	a1,420(a3)
80002ec0:	1ab6a423          	sw	a1,424(a3)
80002ec4:	1be6a823          	sw	t5,432(a3)
80002ec8:	1b57a823          	sw	s5,432(a5)
80002ecc:	fffffa97          	auipc	s5,0xfffff
80002ed0:	da4a8a93          	addi	s5,s5,-604 # 80001c70 <cpu_op_bvs>
80002ed4:	fffffb97          	auipc	s7,0xfffff
80002ed8:	b7cb8b93          	addi	s7,s7,-1156 # 80001a50 <cpu_op_sta>
80002edc:	1d572023          	sw	s5,448(a4)
80002ee0:	fffffa97          	auipc	s5,0xfffff
80002ee4:	7bca8a93          	addi	s5,s5,1980 # 8000269c <cpu_op_sei>
80002ee8:	1c57a023          	sw	t0,448(a5)
80002eec:	1c97a223          	sw	s1,452(a5)
80002ef0:	1e87a223          	sw	s0,484(a5)
80002ef4:	1ac6aa23          	sw	a2,436(a3)
80002ef8:	1b472a23          	sw	s4,436(a4)
80002efc:	1a67aa23          	sw	t1,436(a5)
80002f00:	1ba72c23          	sw	s10,440(a4)
80002f04:	1a67ac23          	sw	t1,440(a5)
80002f08:	1d472223          	sw	s4,452(a4)
80002f0c:	1cc6aa23          	sw	a2,468(a3)
80002f10:	1d472a23          	sw	s4,468(a4)
80002f14:	1dc7aa23          	sw	t3,468(a5)
80002f18:	1da72c23          	sw	s10,472(a4)
80002f1c:	1dc7ac23          	sw	t3,472(a5)
80002f20:	1f572023          	sw	s5,480(a4)
80002f24:	1f07a023          	sw	a6,480(a5)
80002f28:	1ec6a223          	sw	a2,484(a3)
80002f2c:	1f472223          	sw	s4,484(a4)
80002f30:	1ec6aa23          	sw	a2,500(a3)
80002f34:	1f472a23          	sw	s4,500(a4)
80002f38:	1fd7aa23          	sw	t4,500(a5)
80002f3c:	1fa72c23          	sw	s10,504(a4)
80002f40:	1fd7ac23          	sw	t4,504(a5)
80002f44:	21772223          	sw	s7,516(a4)
80002f48:	fffffa17          	auipc	s4,0xfffff
80002f4c:	a88a0a13          	addi	s4,s4,-1400 # 800019d0 <cpu_op_dey>
80002f50:	1aa6ac23          	sw	a0,440(a3)
80002f54:	1cb6a023          	sw	a1,448(a3)
80002f58:	1de6a223          	sw	t5,452(a3)
80002f5c:	1ca6ac23          	sw	a0,472(a3)
80002f60:	1eb6a023          	sw	a1,480(a3)
80002f64:	1e76ac23          	sw	t2,504(a3)
80002f68:	20a6a223          	sw	a0,516(a3)
80002f6c:	2127a223          	sw	s2,516(a5)
80002f70:	23472023          	sw	s4,544(a4)
80002f74:	fffffa17          	auipc	s4,0xfffff
80002f78:	8b0a0a13          	addi	s4,s4,-1872 # 80001824 <cpu_op_txa>
80002f7c:	fffffc97          	auipc	s9,0xfffff
80002f80:	afcc8c93          	addi	s9,s9,-1284 # 80001a78 <cpu_op_sty>
80002f84:	fffffc17          	auipc	s8,0xfffff
80002f88:	ae0c0c13          	addi	s8,s8,-1312 # 80001a64 <cpu_op_stx>
80002f8c:	23472423          	sw	s4,552(a4)
80002f90:	fffffa17          	auipc	s4,0xfffff
80002f94:	d68a0a13          	addi	s4,s4,-664 # 80001cf8 <cpu_op_bcc>
80002f98:	2457a023          	sw	t0,576(a5)
80002f9c:	2497a223          	sw	s1,580(a5)
80002fa0:	21f6a823          	sw	t6,528(a3)
80002fa4:	21972823          	sw	s9,528(a4)
80002fa8:	2117a823          	sw	a7,528(a5)
80002fac:	21f6aa23          	sw	t6,532(a3)
80002fb0:	21772a23          	sw	s7,532(a4)
80002fb4:	2117aa23          	sw	a7,532(a5)
80002fb8:	21f6ac23          	sw	t6,536(a3)
80002fbc:	21872c23          	sw	s8,536(a4)
80002fc0:	2117ac23          	sw	a7,536(a5)
80002fc4:	2307a023          	sw	a6,544(a5)
80002fc8:	2307a423          	sw	a6,552(a5)
80002fcc:	22c6a823          	sw	a2,560(a3)
80002fd0:	23972823          	sw	s9,560(a4)
80002fd4:	2267a823          	sw	t1,560(a5)
80002fd8:	22c6aa23          	sw	a2,564(a3)
80002fdc:	23772a23          	sw	s7,564(a4)
80002fe0:	2267aa23          	sw	t1,564(a5)
80002fe4:	22c6ac23          	sw	a2,568(a3)
80002fe8:	23872c23          	sw	s8,568(a4)
80002fec:	2267ac23          	sw	t1,568(a5)
80002ff0:	25472023          	sw	s4,576(a4)
80002ff4:	25772223          	sw	s7,580(a4)
80002ff8:	24c6a823          	sw	a2,592(a3)
80002ffc:	25972823          	sw	s9,592(a4)
80003000:	fffffa17          	auipc	s4,0xfffff
80003004:	88ca0a13          	addi	s4,s4,-1908 # 8000188c <cpu_op_tya>
80003008:	22b6a023          	sw	a1,544(a3)
8000300c:	22b6a423          	sw	a1,552(a3)
80003010:	24b6a023          	sw	a1,576(a3)
80003014:	24a6a223          	sw	a0,580(a3)
80003018:	25c7a823          	sw	t3,592(a5)
8000301c:	ffffea97          	auipc	s5,0xffffe
80003020:	720a8a93          	addi	s5,s5,1824 # 8000173c <cpu_op_lda>
80003024:	ffffed97          	auipc	s11,0xffffe
80003028:	790d8d93          	addi	s11,s11,1936 # 800017b4 <cpu_op_ldy>
8000302c:	ffffed17          	auipc	s10,0xffffe
80003030:	74cd0d13          	addi	s10,s10,1868 # 80001778 <cpu_op_ldx>
80003034:	00001b17          	auipc	s6,0x1
80003038:	b3cb0b13          	addi	s6,s6,-1220 # 80003b70 <cpu_address_zero_page_y>
8000303c:	27472023          	sw	s4,608(a4)
80003040:	fffffa17          	auipc	s4,0xfffff
80003044:	8b4a0a13          	addi	s4,s4,-1868 # 800018f4 <cpu_op_txs>
80003048:	2567ac23          	sw	s6,600(a5)
8000304c:	2687a223          	sw	s0,612(a5)
80003050:	2937a023          	sw	s3,640(a5)
80003054:	2927a223          	sw	s2,644(a5)
80003058:	2937a423          	sw	s3,648(a5)
8000305c:	24c6aa23          	sw	a2,596(a3)
80003060:	25772a23          	sw	s7,596(a4)
80003064:	25c7aa23          	sw	t3,596(a5)
80003068:	24c6ac23          	sw	a2,600(a3)
8000306c:	25872c23          	sw	s8,600(a4)
80003070:	2707a023          	sw	a6,608(a5)
80003074:	27772223          	sw	s7,612(a4)
80003078:	27472423          	sw	s4,616(a4)
8000307c:	2707a423          	sw	a6,616(a5)
80003080:	27772a23          	sw	s7,628(a4)
80003084:	27d7aa23          	sw	t4,628(a5)
80003088:	29b72023          	sw	s11,640(a4)
8000308c:	29572223          	sw	s5,644(a4)
80003090:	29a72423          	sw	s10,648(a4)
80003094:	29f6a823          	sw	t6,656(a3)
80003098:	29b72823          	sw	s11,656(a4)
8000309c:	2917a823          	sw	a7,656(a5)
800030a0:	29f6aa23          	sw	t6,660(a3)
800030a4:	29572a23          	sw	s5,660(a4)
800030a8:	ffffea17          	auipc	s4,0xffffe
800030ac:	7b0a0a13          	addi	s4,s4,1968 # 80001858 <cpu_op_tay>
800030b0:	26b6a023          	sw	a1,608(a3)
800030b4:	27e6a223          	sw	t5,612(a3)
800030b8:	26b6a423          	sw	a1,616(a3)
800030bc:	27e6aa23          	sw	t5,628(a3)
800030c0:	28b6a023          	sw	a1,640(a3)
800030c4:	28a6a223          	sw	a0,644(a3)
800030c8:	28b6a423          	sw	a1,648(a3)
800030cc:	2917aa23          	sw	a7,660(a5)
800030d0:	fffffb97          	auipc	s7,0xfffff
800030d4:	ad4b8b93          	addi	s7,s7,-1324 # 80001ba4 <cpu_op_bcs>
800030d8:	2b472023          	sw	s4,672(a4)
800030dc:	ffffea17          	auipc	s4,0xffffe
800030e0:	714a0a13          	addi	s4,s4,1812 # 800017f0 <cpu_op_tax>
800030e4:	2b37a223          	sw	s3,676(a5)
800030e8:	2c57a023          	sw	t0,704(a5)
800030ec:	2c97a223          	sw	s1,708(a5)
800030f0:	29f6ac23          	sw	t6,664(a3)
800030f4:	29a72c23          	sw	s10,664(a4)
800030f8:	2917ac23          	sw	a7,664(a5)
800030fc:	2b07a023          	sw	a6,672(a5)
80003100:	2b572223          	sw	s5,676(a4)
80003104:	2b472423          	sw	s4,680(a4)
80003108:	2b07a423          	sw	a6,680(a5)
8000310c:	2ac6a823          	sw	a2,688(a3)
80003110:	2bb72823          	sw	s11,688(a4)
80003114:	2a67a823          	sw	t1,688(a5)
80003118:	2ac6aa23          	sw	a2,692(a3)
8000311c:	2b572a23          	sw	s5,692(a4)
80003120:	2a67aa23          	sw	t1,692(a5)
80003124:	2ac6ac23          	sw	a2,696(a3)
80003128:	2ba72c23          	sw	s10,696(a4)
8000312c:	2a67ac23          	sw	t1,696(a5)
80003130:	2d772023          	sw	s7,704(a4)
80003134:	2d572223          	sw	s5,708(a4)
80003138:	2cc6a823          	sw	a2,720(a3)
8000313c:	2db72823          	sw	s11,720(a4)
80003140:	2dc7a823          	sw	t3,720(a5)
80003144:	2cc6aa23          	sw	a2,724(a3)
80003148:	2d572a23          	sw	s5,724(a4)
8000314c:	fffffb97          	auipc	s7,0xfffff
80003150:	520b8b93          	addi	s7,s7,1312 # 8000266c <cpu_op_clv>
80003154:	2ab6a023          	sw	a1,672(a3)
80003158:	2ab6a223          	sw	a1,676(a3)
8000315c:	2ab6a423          	sw	a1,680(a3)
80003160:	2cb6a023          	sw	a1,704(a3)
80003164:	2de6a223          	sw	t5,708(a3)
80003168:	2dc7aa23          	sw	t3,724(a5)
8000316c:	fffffa17          	auipc	s4,0xfffff
80003170:	338a0a13          	addi	s4,s4,824 # 800024a4 <cpu_op_cmp>
80003174:	fffffc97          	auipc	s9,0xfffff
80003178:	454c8c93          	addi	s9,s9,1108 # 800025c8 <cpu_op_cpy>
8000317c:	2f772023          	sw	s7,736(a4)
80003180:	ffffeb97          	auipc	s7,0xffffe
80003184:	740b8b93          	addi	s7,s7,1856 # 800018c0 <cpu_op_tsx>
80003188:	2d67ac23          	sw	s6,728(a5)
8000318c:	2e87a223          	sw	s0,740(a5)
80003190:	2e87ac23          	sw	s0,760(a5)
80003194:	3137a023          	sw	s3,768(a5)
80003198:	3127a223          	sw	s2,772(a5)
8000319c:	2cc6ac23          	sw	a2,728(a3)
800031a0:	2da72c23          	sw	s10,728(a4)
800031a4:	2f07a023          	sw	a6,736(a5)
800031a8:	2ec6a223          	sw	a2,740(a3)
800031ac:	2f572223          	sw	s5,740(a4)
800031b0:	2f772423          	sw	s7,744(a4)
800031b4:	2f07a423          	sw	a6,744(a5)
800031b8:	2ec6a823          	sw	a2,752(a3)
800031bc:	2fb72823          	sw	s11,752(a4)
800031c0:	2fd7a823          	sw	t4,752(a5)
800031c4:	2ec6aa23          	sw	a2,756(a3)
800031c8:	2f572a23          	sw	s5,756(a4)
800031cc:	2fd7aa23          	sw	t4,756(a5)
800031d0:	2ec6ac23          	sw	a2,760(a3)
800031d4:	2fa72c23          	sw	s10,760(a4)
800031d8:	31972023          	sw	s9,768(a4)
800031dc:	31472223          	sw	s4,772(a4)
800031e0:	31f6a823          	sw	t6,784(a3)
800031e4:	31972823          	sw	s9,784(a4)
800031e8:	3117a823          	sw	a7,784(a5)
800031ec:	31f6aa23          	sw	t6,788(a3)
800031f0:	31472a23          	sw	s4,788(a4)
800031f4:	ffffea97          	auipc	s5,0xffffe
800031f8:	764a8a93          	addi	s5,s5,1892 # 80001958 <cpu_op_iny>
800031fc:	2eb6a023          	sw	a1,736(a3)
80003200:	2eb6a423          	sw	a1,744(a3)
80003204:	30b6a023          	sw	a1,768(a3)
80003208:	30a6a223          	sw	a0,772(a3)
8000320c:	3117aa23          	sw	a7,788(a5)
80003210:	fffffc17          	auipc	s8,0xfffff
80003214:	8e0c0c13          	addi	s8,s8,-1824 # 80001af0 <cpu_op_dec>
80003218:	33572023          	sw	s5,800(a4)
8000321c:	33972823          	sw	s9,816(a4)
80003220:	ffffea97          	auipc	s5,0xffffe
80003224:	774a8a93          	addi	s5,s5,1908 # 80001994 <cpu_op_dex>
80003228:	fffffc97          	auipc	s9,0xfffff
8000322c:	a8cc8c93          	addi	s9,s9,-1396 # 80001cb4 <cpu_op_bne>
80003230:	3337a223          	sw	s3,804(a5)
80003234:	3457a023          	sw	t0,832(a5)
80003238:	3497a223          	sw	s1,836(a5)
8000323c:	31872c23          	sw	s8,792(a4)
80003240:	3117ac23          	sw	a7,792(a5)
80003244:	3307a023          	sw	a6,800(a5)
80003248:	33472223          	sw	s4,804(a4)
8000324c:	33572423          	sw	s5,808(a4)
80003250:	3307a423          	sw	a6,808(a5)
80003254:	32c6a823          	sw	a2,816(a3)
80003258:	3267a823          	sw	t1,816(a5)
8000325c:	32c6aa23          	sw	a2,820(a3)
80003260:	33472a23          	sw	s4,820(a4)
80003264:	3267aa23          	sw	t1,820(a5)
80003268:	33872c23          	sw	s8,824(a4)
8000326c:	3267ac23          	sw	t1,824(a5)
80003270:	35972023          	sw	s9,832(a4)
80003274:	35472223          	sw	s4,836(a4)
80003278:	34c6aa23          	sw	a2,852(a3)
8000327c:	35472a23          	sw	s4,852(a4)
80003280:	35c7aa23          	sw	t3,852(a5)
80003284:	35872c23          	sw	s8,856(a4)
80003288:	31e6ac23          	sw	t5,792(a3)
8000328c:	32b6a023          	sw	a1,800(a3)
80003290:	32b6a223          	sw	a1,804(a3)
80003294:	32b6a423          	sw	a1,808(a3)
80003298:	32a6ac23          	sw	a0,824(a3)
8000329c:	34b6a023          	sw	a1,832(a3)
800032a0:	35e6a223          	sw	t5,836(a3)
800032a4:	34a6ac23          	sw	a0,856(a3)
800032a8:	35c7ac23          	sw	t3,856(a5)
800032ac:	fffffa97          	auipc	s5,0xfffff
800032b0:	beca8a93          	addi	s5,s5,-1044 # 80001e98 <cpu_op_sbc>
800032b4:	ffffeb97          	auipc	s7,0xffffe
800032b8:	7d8b8b93          	addi	s7,s7,2008 # 80001a8c <cpu_op_inc>
800032bc:	fffffd17          	auipc	s10,0xfffff
800032c0:	298d0d13          	addi	s10,s10,664 # 80002554 <cpu_op_cpx>
800032c4:	fffffc97          	auipc	s9,0xfffff
800032c8:	388c8c93          	addi	s9,s9,904 # 8000264c <cpu_op_cld>
800032cc:	37872c23          	sw	s8,888(a4)
800032d0:	ffffec17          	auipc	s8,0xffffe
800032d4:	64cc0c13          	addi	s8,s8,1612 # 8000191c <cpu_op_inx>
800032d8:	3687a223          	sw	s0,868(a5)
800032dc:	3937a023          	sw	s3,896(a5)
800032e0:	3927a223          	sw	s2,900(a5)
800032e4:	37972023          	sw	s9,864(a4)
800032e8:	3707a023          	sw	a6,864(a5)
800032ec:	36c6a223          	sw	a2,868(a3)
800032f0:	37472223          	sw	s4,868(a4)
800032f4:	36c6aa23          	sw	a2,884(a3)
800032f8:	37472a23          	sw	s4,884(a4)
800032fc:	37d7aa23          	sw	t4,884(a5)
80003300:	37d7ac23          	sw	t4,888(a5)
80003304:	39a72023          	sw	s10,896(a4)
80003308:	39572223          	sw	s5,900(a4)
8000330c:	39f6a823          	sw	t6,912(a3)
80003310:	39a72823          	sw	s10,912(a4)
80003314:	3917a823          	sw	a7,912(a5)
80003318:	39f6aa23          	sw	t6,916(a3)
8000331c:	39572a23          	sw	s5,916(a4)
80003320:	3917aa23          	sw	a7,916(a5)
80003324:	39772c23          	sw	s7,920(a4)
80003328:	3917ac23          	sw	a7,920(a5)
8000332c:	3b872023          	sw	s8,928(a4)
80003330:	3b07a023          	sw	a6,928(a5)
80003334:	3b572223          	sw	s5,932(a4)
80003338:	36b6a023          	sw	a1,864(a3)
8000333c:	3676ac23          	sw	t2,888(a3)
80003340:	38b6a023          	sw	a1,896(a3)
80003344:	38a6a223          	sw	a0,900(a3)
80003348:	39e6ac23          	sw	t5,920(a3)
8000334c:	3ab6a023          	sw	a1,928(a3)
80003350:	3ab6a223          	sw	a1,932(a3)
80003354:	3b37a223          	sw	s3,932(a5)
80003358:	fffffc17          	auipc	s8,0xfffff
8000335c:	354c0c13          	addi	s8,s8,852 # 800026ac <cpu_op_nop>
80003360:	3c57a023          	sw	t0,960(a5)
80003364:	3ba72823          	sw	s10,944(a4)
80003368:	fffff297          	auipc	t0,0xfffff
8000336c:	32428293          	addi	t0,t0,804 # 8000268c <cpu_op_sed>
80003370:	fffffd17          	auipc	s10,0xfffff
80003374:	878d0d13          	addi	s10,s10,-1928 # 80001be8 <cpu_op_beq>
80003378:	00800a13          	li	s4,8
8000337c:	fffffc97          	auipc	s9,0xfffff
80003380:	378c8c93          	addi	s9,s9,888 # 800026f4 <cpu_op_aso>
80003384:	3c97a223          	sw	s1,964(a5)
80003388:	3e87a223          	sw	s0,996(a5)
8000338c:	3b872423          	sw	s8,936(a4)
80003390:	3b07a423          	sw	a6,936(a5)
80003394:	fffffc17          	auipc	s8,0xfffff
80003398:	408c0c13          	addi	s8,s8,1032 # 8000279c <cpu_op_rla>
8000339c:	3ac6a823          	sw	a2,944(a3)
800033a0:	3a67a823          	sw	t1,944(a5)
800033a4:	3ac6aa23          	sw	a2,948(a3)
800033a8:	3b572a23          	sw	s5,948(a4)
800033ac:	3a67aa23          	sw	t1,948(a5)
800033b0:	3b772c23          	sw	s7,952(a4)
800033b4:	3a67ac23          	sw	t1,952(a5)
800033b8:	3da72023          	sw	s10,960(a4)
800033bc:	3d572223          	sw	s5,964(a4)
800033c0:	3cc6aa23          	sw	a2,980(a3)
800033c4:	3d572a23          	sw	s5,980(a4)
800033c8:	3dc7aa23          	sw	t3,980(a5)
800033cc:	3d772c23          	sw	s7,984(a4)
800033d0:	3dc7ac23          	sw	t3,984(a5)
800033d4:	3e572023          	sw	t0,992(a4)
800033d8:	3f07a023          	sw	a6,992(a5)
800033dc:	3ec6a223          	sw	a2,996(a3)
800033e0:	3f572223          	sw	s5,996(a4)
800033e4:	3ec6aa23          	sw	a2,1012(a3)
800033e8:	3f572a23          	sw	s5,1012(a4)
800033ec:	3ab6a423          	sw	a1,936(a3)
800033f0:	3aa6ac23          	sw	a0,952(a3)
800033f4:	3cb6a023          	sw	a1,960(a3)
800033f8:	3de6a223          	sw	t5,964(a3)
800033fc:	3ca6ac23          	sw	a0,984(a3)
80003400:	3eb6a023          	sw	a1,992(a3)
80003404:	3fd7aa23          	sw	t4,1012(a5)
80003408:	0127a623          	sw	s2,12(a5)
8000340c:	0497a623          	sw	s1,76(a5)
80003410:	0687a623          	sw	s0,108(a5)
80003414:	0927a623          	sw	s2,140(a5)
80003418:	3f772c23          	sw	s7,1016(a4)
8000341c:	3fd7ac23          	sw	t4,1016(a5)
80003420:	fffffb97          	auipc	s7,0xfffff
80003424:	328b8b93          	addi	s7,s7,808 # 80002748 <cpu_op_lse>
80003428:	0146a623          	sw	s4,12(a3)
8000342c:	01972623          	sw	s9,12(a4)
80003430:	01972e23          	sw	s9,28(a4)
80003434:	0117ae23          	sw	a7,28(a5)
80003438:	03972e23          	sw	s9,60(a4)
8000343c:	0267ae23          	sw	t1,60(a5)
80003440:	0546a623          	sw	s4,76(a3)
80003444:	05972623          	sw	s9,76(a4)
80003448:	05972e23          	sw	s9,92(a4)
8000344c:	05c7ae23          	sw	t3,92(a5)
80003450:	07972623          	sw	s9,108(a4)
80003454:	07972e23          	sw	s9,124(a4)
80003458:	07d7ae23          	sw	t4,124(a5)
8000345c:	0946a623          	sw	s4,140(a3)
80003460:	09872623          	sw	s8,140(a4)
80003464:	09872e23          	sw	s8,156(a4)
80003468:	0917ae23          	sw	a7,156(a5)
8000346c:	0b872e23          	sw	s8,188(a4)
80003470:	3e76ac23          	sw	t2,1016(a3)
80003474:	01e6ae23          	sw	t5,28(a3)
80003478:	02a6ae23          	sw	a0,60(a3)
8000347c:	04a6ae23          	sw	a0,92(a3)
80003480:	0676a623          	sw	t2,108(a3)
80003484:	0676ae23          	sw	t2,124(a3)
80003488:	09e6ae23          	sw	t5,156(a3)
8000348c:	0aa6ae23          	sw	a0,188(a3)
80003490:	0a67ae23          	sw	t1,188(a5)
80003494:	fffff297          	auipc	t0,0xfffff
80003498:	ff828293          	addi	t0,t0,-8 # 8000248c <cpu_op_rra>
8000349c:	ffffed17          	auipc	s10,0xffffe
800034a0:	6e8d0d13          	addi	s10,s10,1768 # 80001b84 <cpu_op_axs>
800034a4:	0c97a623          	sw	s1,204(a5)
800034a8:	0e87a623          	sw	s0,236(a5)
800034ac:	ffffed97          	auipc	s11,0xffffe
800034b0:	6a8d8d93          	addi	s11,s11,1704 # 80001b54 <cpu_op_axa>
800034b4:	1127a623          	sw	s2,268(a5)
800034b8:	1497a623          	sw	s1,332(a5)
800034bc:	1687a623          	sw	s0,364(a5)
800034c0:	0d46a623          	sw	s4,204(a3)
800034c4:	0d872623          	sw	s8,204(a4)
800034c8:	0d872e23          	sw	s8,220(a4)
800034cc:	0dc7ae23          	sw	t3,220(a5)
800034d0:	0f872623          	sw	s8,236(a4)
800034d4:	0f872e23          	sw	s8,252(a4)
800034d8:	0fd7ae23          	sw	t4,252(a5)
800034dc:	1146a623          	sw	s4,268(a3)
800034e0:	11772623          	sw	s7,268(a4)
800034e4:	11772e23          	sw	s7,284(a4)
800034e8:	1117ae23          	sw	a7,284(a5)
800034ec:	13772e23          	sw	s7,316(a4)
800034f0:	1267ae23          	sw	t1,316(a5)
800034f4:	1546a623          	sw	s4,332(a3)
800034f8:	15772623          	sw	s7,332(a4)
800034fc:	15772e23          	sw	s7,348(a4)
80003500:	15c7ae23          	sw	t3,348(a5)
80003504:	17772623          	sw	s7,364(a4)
80003508:	17772e23          	sw	s7,380(a4)
8000350c:	0ca6ae23          	sw	a0,220(a3)
80003510:	0e76a623          	sw	t2,236(a3)
80003514:	0e76ae23          	sw	t2,252(a3)
80003518:	11e6ae23          	sw	t5,284(a3)
8000351c:	12a6ae23          	sw	a0,316(a3)
80003520:	14a6ae23          	sw	a0,348(a3)
80003524:	1676a623          	sw	t2,364(a3)
80003528:	1676ae23          	sw	t2,380(a3)
8000352c:	17d7ae23          	sw	t4,380(a5)
80003530:	fffffc17          	auipc	s8,0xfffff
80003534:	fe8c0c13          	addi	s8,s8,-24 # 80002518 <cpu_op_dcm>
80003538:	ffffec97          	auipc	s9,0xffffe
8000353c:	4d4c8c93          	addi	s9,s9,1236 # 80001a0c <cpu_op_lax>
80003540:	1927a623          	sw	s2,396(a5)
80003544:	1c97a623          	sw	s1,460(a5)
80003548:	1e87a623          	sw	s0,492(a5)
8000354c:	2127a623          	sw	s2,524(a5)
80003550:	1946a623          	sw	s4,396(a3)
80003554:	18572623          	sw	t0,396(a4)
80003558:	18572e23          	sw	t0,412(a4)
8000355c:	1917ae23          	sw	a7,412(a5)
80003560:	1a572e23          	sw	t0,444(a4)
80003564:	1a67ae23          	sw	t1,444(a5)
80003568:	1d46a623          	sw	s4,460(a3)
8000356c:	1c572623          	sw	t0,460(a4)
80003570:	1c572e23          	sw	t0,476(a4)
80003574:	1dc7ae23          	sw	t3,476(a5)
80003578:	1e572623          	sw	t0,492(a4)
8000357c:	1e572e23          	sw	t0,508(a4)
80003580:	1fd7ae23          	sw	t4,508(a5)
80003584:	21a72623          	sw	s10,524(a4)
80003588:	21f6ae23          	sw	t6,540(a3)
8000358c:	21a72e23          	sw	s10,540(a4)
80003590:	2117ae23          	sw	a7,540(a5)
80003594:	22c6ae23          	sw	a2,572(a3)
80003598:	23a72e23          	sw	s10,572(a4)
8000359c:	2267ae23          	sw	t1,572(a5)
800035a0:	25b72623          	sw	s11,588(a4)
800035a4:	19e6ae23          	sw	t5,412(a3)
800035a8:	1aa6ae23          	sw	a0,444(a3)
800035ac:	1ca6ae23          	sw	a0,476(a3)
800035b0:	1e76a623          	sw	t2,492(a3)
800035b4:	1e76ae23          	sw	t2,508(a3)
800035b8:	20a6a623          	sw	a0,524(a3)
800035bc:	24a6a623          	sw	a0,588(a3)
800035c0:	2497a623          	sw	s1,588(a5)
800035c4:	fffffb97          	auipc	s7,0xfffff
800035c8:	9b0b8b93          	addi	s7,s7,-1616 # 80001f74 <cpu_op_ins>
800035cc:	2567ae23          	sw	s6,604(a5)
800035d0:	2687ae23          	sw	s0,636(a5)
800035d4:	2927a623          	sw	s2,652(a5)
800035d8:	2c97a623          	sw	s1,716(a5)
800035dc:	2d67ae23          	sw	s6,732(a5)
800035e0:	2e87ae23          	sw	s0,764(a5)
800035e4:	3127a623          	sw	s2,780(a5)
800035e8:	24c6ae23          	sw	a2,604(a3)
800035ec:	25a72e23          	sw	s10,604(a4)
800035f0:	27b72e23          	sw	s11,636(a4)
800035f4:	29972623          	sw	s9,652(a4)
800035f8:	29f6ae23          	sw	t6,668(a3)
800035fc:	29972e23          	sw	s9,668(a4)
80003600:	2917ae23          	sw	a7,668(a5)
80003604:	2ac6ae23          	sw	a2,700(a3)
80003608:	2b972e23          	sw	s9,700(a4)
8000360c:	2a67ae23          	sw	t1,700(a5)
80003610:	2d972623          	sw	s9,716(a4)
80003614:	2cc6ae23          	sw	a2,732(a3)
80003618:	2d972e23          	sw	s9,732(a4)
8000361c:	2ec6ae23          	sw	a2,764(a3)
80003620:	2f972e23          	sw	s9,764(a4)
80003624:	3146a623          	sw	s4,780(a3)
80003628:	31872623          	sw	s8,780(a4)
8000362c:	31872e23          	sw	s8,796(a4)
80003630:	3117ae23          	sw	a7,796(a5)
80003634:	33872e23          	sw	s8,828(a4)
80003638:	27e6ae23          	sw	t5,636(a3)
8000363c:	28a6a623          	sw	a0,652(a3)
80003640:	2de6a623          	sw	t5,716(a3)
80003644:	31e6ae23          	sw	t5,796(a3)
80003648:	32a6ae23          	sw	a0,828(a3)
8000364c:	3267ae23          	sw	t1,828(a5)
80003650:	00100293          	li	t0,1
80003654:	ffffef97          	auipc	t6,0xffffe
80003658:	024f8f93          	addi	t6,t6,36 # 80001678 <____FE____>
8000365c:	3497a623          	sw	s1,844(a5)
80003660:	3687a623          	sw	s0,876(a5)
80003664:	3927a623          	sw	s2,908(a5)
80003668:	3b37a623          	sw	s3,940(a5)
8000366c:	3c97a623          	sw	s1,972(a5)
80003670:	3546a623          	sw	s4,844(a3)
80003674:	35872623          	sw	s8,844(a4)
80003678:	35872e23          	sw	s8,860(a4)
8000367c:	35c7ae23          	sw	t3,860(a5)
80003680:	37872623          	sw	s8,876(a4)
80003684:	37872e23          	sw	s8,892(a4)
80003688:	37d7ae23          	sw	t4,892(a5)
8000368c:	3946a623          	sw	s4,908(a3)
80003690:	39772623          	sw	s7,908(a4)
80003694:	39772e23          	sw	s7,924(a4)
80003698:	3917ae23          	sw	a7,924(a5)
8000369c:	3b572623          	sw	s5,940(a4)
800036a0:	3b772e23          	sw	s7,956(a4)
800036a4:	3a67ae23          	sw	t1,956(a5)
800036a8:	3d46a623          	sw	s4,972(a3)
800036ac:	3d772623          	sw	s7,972(a4)
800036b0:	3d772e23          	sw	s7,988(a4)
800036b4:	3dc7ae23          	sw	t3,988(a5)
800036b8:	3f772623          	sw	s7,1004(a4)
800036bc:	34a6ae23          	sw	a0,860(a3)
800036c0:	3676a623          	sw	t2,876(a3)
800036c4:	3676ae23          	sw	t2,892(a3)
800036c8:	39e6ae23          	sw	t5,924(a3)
800036cc:	3ab6a623          	sw	a1,940(a3)
800036d0:	3aa6ae23          	sw	a0,956(a3)
800036d4:	3ca6ae23          	sw	a0,988(a3)
800036d8:	3e76a623          	sw	t2,1004(a3)
800036dc:	3e87a623          	sw	s0,1004(a5)
800036e0:	3f772e23          	sw	s7,1020(a4)
800036e4:	3fd7ae23          	sw	t4,1020(a5)
800036e8:	0117a823          	sw	a7,16(a5)
800036ec:	0267a823          	sw	t1,48(a5)
800036f0:	05c7a823          	sw	t3,80(a5)
800036f4:	0707a423          	sw	a6,104(a5)
800036f8:	07d7a823          	sw	t4,112(a5)
800036fc:	0dc7a823          	sw	t3,208(a5)
80003700:	0f07a423          	sw	a6,232(a5)
80003704:	0fd7a823          	sw	t4,240(a5)
80003708:	1117a823          	sw	a7,272(a5)
8000370c:	3e76ae23          	sw	t2,1020(a3)
80003710:	0056a823          	sw	t0,16(a3)
80003714:	01f72823          	sw	t6,16(a4)
80003718:	0256a823          	sw	t0,48(a3)
8000371c:	03f72823          	sw	t6,48(a4)
80003720:	0456a823          	sw	t0,80(a3)
80003724:	05f72823          	sw	t6,80(a4)
80003728:	0656a423          	sw	t0,104(a3)
8000372c:	07f72423          	sw	t6,104(a4)
80003730:	0656a823          	sw	t0,112(a3)
80003734:	07f72823          	sw	t6,112(a4)
80003738:	0c56a823          	sw	t0,208(a3)
8000373c:	0df72823          	sw	t6,208(a4)
80003740:	0e56a423          	sw	t0,232(a3)
80003744:	0ff72423          	sw	t6,232(a4)
80003748:	0e56a823          	sw	t0,240(a3)
8000374c:	0ff72823          	sw	t6,240(a4)
80003750:	1056a823          	sw	t0,272(a3)
80003754:	11f72823          	sw	t6,272(a4)
80003758:	1456a823          	sw	t0,336(a3)
8000375c:	15f72823          	sw	t6,336(a4)
80003760:	15c7a823          	sw	t3,336(a5)
80003764:	2137a023          	sw	s3,512(a5)
80003768:	1707a423          	sw	a6,360(a5)
8000376c:	17d7a823          	sw	t4,368(a5)
80003770:	1917a823          	sw	a7,400(a5)
80003774:	1dc7a823          	sw	t3,464(a5)
80003778:	1f07a423          	sw	a6,488(a5)
8000377c:	1fd7a823          	sw	t4,496(a5)
80003780:	35c7a823          	sw	t3,848(a5)
80003784:	3707a423          	sw	a6,872(a5)
80003788:	37d7a823          	sw	t4,880(a5)
8000378c:	1656a423          	sw	t0,360(a3)
80003790:	17f72423          	sw	t6,360(a4)
80003794:	1656a823          	sw	t0,368(a3)
80003798:	17f72823          	sw	t6,368(a4)
8000379c:	1856a823          	sw	t0,400(a3)
800037a0:	19f72823          	sw	t6,400(a4)
800037a4:	1c56a823          	sw	t0,464(a3)
800037a8:	1df72823          	sw	t6,464(a4)
800037ac:	1e56a423          	sw	t0,488(a3)
800037b0:	1ff72423          	sw	t6,488(a4)
800037b4:	1e56a823          	sw	t0,496(a3)
800037b8:	1ff72823          	sw	t6,496(a4)
800037bc:	2056a023          	sw	t0,512(a3)
800037c0:	21f72023          	sw	t6,512(a4)
800037c4:	3456a823          	sw	t0,848(a3)
800037c8:	35f72823          	sw	t6,848(a4)
800037cc:	3656a423          	sw	t0,872(a3)
800037d0:	37f72423          	sw	t6,872(a4)
800037d4:	3656a823          	sw	t0,880(a3)
800037d8:	37f72823          	sw	t6,880(a4)
800037dc:	3c56a823          	sw	t0,976(a3)
800037e0:	3df72823          	sw	t6,976(a4)
800037e4:	3dc7a823          	sw	t3,976(a5)
800037e8:	00177617          	auipc	a2,0x177
800037ec:	ec060613          	addi	a2,a2,-320 # 8017a6a8 <cpu>
800037f0:	3f07a423          	sw	a6,1000(a5)
800037f4:	3fd7a823          	sw	t4,1008(a5)
800037f8:	02400793          	li	a5,36
800037fc:	00061123          	sh	zero,2(a2)
80003800:	00061223          	sh	zero,4(a2)
80003804:	00f60323          	sb	a5,6(a2)
80003808:	02c12403          	lw	s0,44(sp)
8000380c:	3e56a423          	sw	t0,1000(a3)
80003810:	3ff72423          	sw	t6,1000(a4)
80003814:	3e56a823          	sw	t0,1008(a3)
80003818:	3ff72823          	sw	t6,1008(a4)
8000381c:	02812483          	lw	s1,40(sp)
80003820:	02412903          	lw	s2,36(sp)
80003824:	02012983          	lw	s3,32(sp)
80003828:	01c12a03          	lw	s4,28(sp)
8000382c:	01812a83          	lw	s5,24(sp)
80003830:	01412b03          	lw	s6,20(sp)
80003834:	01012b83          	lw	s7,16(sp)
80003838:	00c12c03          	lw	s8,12(sp)
8000383c:	00812c83          	lw	s9,8(sp)
80003840:	00412d03          	lw	s10,4(sp)
80003844:	00012d83          	lw	s11,0(sp)
80003848:	03010113          	addi	sp,sp,48
8000384c:	00008067          	ret

80003850 <cpu_reset>:
80003850:	00010537          	lui	a0,0x10
80003854:	ff010113          	addi	sp,sp,-16
80003858:	ffc50513          	addi	a0,a0,-4 # fffc <_entry_offset+0xfffc>
8000385c:	00112623          	sw	ra,12(sp)
80003860:	f25fc0ef          	jal	ra,80000784 <memory_readw>
80003864:	00177797          	auipc	a5,0x177
80003868:	e4478793          	addi	a5,a5,-444 # 8017a6a8 <cpu>
8000386c:	0027c683          	lbu	a3,2(a5)
80003870:	0067c703          	lbu	a4,6(a5)
80003874:	00a79023          	sh	a0,0(a5)
80003878:	ffd68693          	addi	a3,a3,-3
8000387c:	00476713          	ori	a4,a4,4
80003880:	00d78123          	sb	a3,2(a5)
80003884:	00e78323          	sb	a4,6(a5)
80003888:	00c12083          	lw	ra,12(sp)
8000388c:	01010113          	addi	sp,sp,16
80003890:	00008067          	ret

80003894 <cpu_interrupt>:
80003894:	ff010113          	addi	sp,sp,-16
80003898:	00112623          	sw	ra,12(sp)
8000389c:	00812423          	sw	s0,8(sp)
800038a0:	f75fc0ef          	jal	ra,80000814 <ppu_generates_nmi>
800038a4:	00051a63          	bnez	a0,800038b8 <cpu_interrupt+0x24>
800038a8:	00c12083          	lw	ra,12(sp)
800038ac:	00812403          	lw	s0,8(sp)
800038b0:	01010113          	addi	sp,sp,16
800038b4:	00008067          	ret
800038b8:	00177417          	auipc	s0,0x177
800038bc:	df040413          	addi	s0,s0,-528 # 8017a6a8 <cpu>
800038c0:	00644783          	lbu	a5,6(s0)
800038c4:	00500593          	li	a1,5
800038c8:	00177517          	auipc	a0,0x177
800038cc:	de650513          	addi	a0,a0,-538 # 8017a6ae <cpu+0x6>
800038d0:	0047e793          	ori	a5,a5,4
800038d4:	00f40323          	sb	a5,6(s0)
800038d8:	d55fd0ef          	jal	ra,8000162c <common_unset_bitb>
800038dc:	00244503          	lbu	a0,2(s0)
800038e0:	00045583          	lhu	a1,0(s0)
800038e4:	0ff50513          	addi	a0,a0,255
800038e8:	ee9fc0ef          	jal	ra,800007d0 <memory_writew>
800038ec:	00244783          	lbu	a5,2(s0)
800038f0:	00644583          	lbu	a1,6(s0)
800038f4:	ffe78513          	addi	a0,a5,-2
800038f8:	0ff57513          	zext.b	a0,a0
800038fc:	10050513          	addi	a0,a0,256
80003900:	01051513          	slli	a0,a0,0x10
80003904:	ffd78793          	addi	a5,a5,-3
80003908:	01055513          	srli	a0,a0,0x10
8000390c:	00f40123          	sb	a5,2(s0)
80003910:	d75fc0ef          	jal	ra,80000684 <memory_writeb>
80003914:	00010537          	lui	a0,0x10
80003918:	ffa50513          	addi	a0,a0,-6 # fffa <_entry_offset+0xfffa>
8000391c:	e69fc0ef          	jal	ra,80000784 <memory_readw>
80003920:	00c12083          	lw	ra,12(sp)
80003924:	00a41023          	sh	a0,0(s0)
80003928:	00812403          	lw	s0,8(sp)
8000392c:	01010113          	addi	sp,sp,16
80003930:	00008067          	ret

80003934 <cpu_clock>:
80003934:	00177797          	auipc	a5,0x177
80003938:	d7c78793          	addi	a5,a5,-644 # 8017a6b0 <cpu_cycles>
8000393c:	0007a503          	lw	a0,0(a5)
80003940:	0047a583          	lw	a1,4(a5)
80003944:	00008067          	ret

80003948 <cpu_run>:
80003948:	fd010113          	addi	sp,sp,-48
8000394c:	02812423          	sw	s0,40(sp)
80003950:	02112623          	sw	ra,44(sp)
80003954:	00300413          	li	s0,3
80003958:	02912223          	sw	s1,36(sp)
8000395c:	03212023          	sw	s2,32(sp)
80003960:	01312e23          	sw	s3,28(sp)
80003964:	01412c23          	sw	s4,24(sp)
80003968:	01512a23          	sw	s5,20(sp)
8000396c:	01612823          	sw	s6,16(sp)
80003970:	01712623          	sw	s7,12(sp)
80003974:	00200793          	li	a5,2
80003978:	02854433          	div	s0,a0,s0
8000397c:	0ca7d463          	bge	a5,a0,80003a44 <cpu_run+0xfc>
80003980:	00177917          	auipc	s2,0x177
80003984:	d2890913          	addi	s2,s2,-728 # 8017a6a8 <cpu>
80003988:	00177497          	auipc	s1,0x177
8000398c:	d3448493          	addi	s1,s1,-716 # 8017a6bc <op_code>
80003990:	00176a97          	auipc	s5,0x176
80003994:	0fca8a93          	addi	s5,s5,252 # 80179a8c <cpu_op_address_mode>
80003998:	00176a17          	auipc	s4,0x176
8000399c:	4f4a0a13          	addi	s4,s4,1268 # 80179e8c <cpu_op_cycles>
800039a0:	00177997          	auipc	s3,0x177
800039a4:	d2098993          	addi	s3,s3,-736 # 8017a6c0 <op_cycles>
800039a8:	00177b97          	auipc	s7,0x177
800039ac:	d08b8b93          	addi	s7,s7,-760 # 8017a6b0 <cpu_cycles>
800039b0:	00177b17          	auipc	s6,0x177
800039b4:	8dcb0b13          	addi	s6,s6,-1828 # 8017a28c <cpu_op_handler>
800039b8:	00095503          	lhu	a0,0(s2)
800039bc:	00150793          	addi	a5,a0,1
800039c0:	00f91023          	sh	a5,0(s2)
800039c4:	c75fc0ef          	jal	ra,80000638 <memory_readb>
800039c8:	00251713          	slli	a4,a0,0x2
800039cc:	00ea8733          	add	a4,s5,a4
800039d0:	00072703          	lw	a4,0(a4)
800039d4:	00a48023          	sb	a0,0(s1)
800039d8:	00050793          	mv	a5,a0
800039dc:	02070063          	beqz	a4,800039fc <cpu_run+0xb4>
800039e0:	000700e7          	jalr	a4
800039e4:	0004c783          	lbu	a5,0(s1)
800039e8:	00279793          	slli	a5,a5,0x2
800039ec:	00fb07b3          	add	a5,s6,a5
800039f0:	0007a783          	lw	a5,0(a5)
800039f4:	000780e7          	jalr	a5
800039f8:	0004c783          	lbu	a5,0(s1)
800039fc:	00279793          	slli	a5,a5,0x2
80003a00:	00fa07b3          	add	a5,s4,a5
80003a04:	0009a603          	lw	a2,0(s3)
80003a08:	0007a703          	lw	a4,0(a5)
80003a0c:	000ba683          	lw	a3,0(s7)
80003a10:	004ba783          	lw	a5,4(s7)
80003a14:	00c70733          	add	a4,a4,a2
80003a18:	00177597          	auipc	a1,0x177
80003a1c:	ca05a423          	sw	zero,-856(a1) # 8017a6c0 <op_cycles>
80003a20:	40e68633          	sub	a2,a3,a4
80003a24:	41f75593          	srai	a1,a4,0x1f
80003a28:	00c6b6b3          	sltu	a3,a3,a2
80003a2c:	40b787b3          	sub	a5,a5,a1
80003a30:	40d787b3          	sub	a5,a5,a3
80003a34:	40e40433          	sub	s0,s0,a4
80003a38:	00cba023          	sw	a2,0(s7)
80003a3c:	00fba223          	sw	a5,4(s7)
80003a40:	f6804ce3          	bgtz	s0,800039b8 <cpu_run+0x70>
80003a44:	02c12083          	lw	ra,44(sp)
80003a48:	02812403          	lw	s0,40(sp)
80003a4c:	02412483          	lw	s1,36(sp)
80003a50:	02012903          	lw	s2,32(sp)
80003a54:	01c12983          	lw	s3,28(sp)
80003a58:	01812a03          	lw	s4,24(sp)
80003a5c:	01412a83          	lw	s5,20(sp)
80003a60:	01012b03          	lw	s6,16(sp)
80003a64:	00c12b83          	lw	s7,12(sp)
80003a68:	03010113          	addi	sp,sp,48
80003a6c:	00008067          	ret

80003a70 <cpu_address_implied>:
80003a70:	00008067          	ret

80003a74 <cpu_address_immediate>:
80003a74:	ff010113          	addi	sp,sp,-16
80003a78:	00812423          	sw	s0,8(sp)
80003a7c:	00177417          	auipc	s0,0x177
80003a80:	c2c40413          	addi	s0,s0,-980 # 8017a6a8 <cpu>
80003a84:	00045503          	lhu	a0,0(s0)
80003a88:	00112623          	sw	ra,12(sp)
80003a8c:	badfc0ef          	jal	ra,80000638 <memory_readb>
80003a90:	00045783          	lhu	a5,0(s0)
80003a94:	00c12083          	lw	ra,12(sp)
80003a98:	00177717          	auipc	a4,0x177
80003a9c:	c2a72623          	sw	a0,-980(a4) # 8017a6c4 <op_value>
80003aa0:	00178793          	addi	a5,a5,1
80003aa4:	00f41023          	sh	a5,0(s0)
80003aa8:	00812403          	lw	s0,8(sp)
80003aac:	01010113          	addi	sp,sp,16
80003ab0:	00008067          	ret

80003ab4 <cpu_address_zero_page>:
80003ab4:	ff010113          	addi	sp,sp,-16
80003ab8:	00812423          	sw	s0,8(sp)
80003abc:	00177417          	auipc	s0,0x177
80003ac0:	bec40413          	addi	s0,s0,-1044 # 8017a6a8 <cpu>
80003ac4:	00045503          	lhu	a0,0(s0)
80003ac8:	00112623          	sw	ra,12(sp)
80003acc:	b6dfc0ef          	jal	ra,80000638 <memory_readb>
80003ad0:	00045783          	lhu	a5,0(s0)
80003ad4:	0016e717          	auipc	a4,0x16e
80003ad8:	fb870713          	addi	a4,a4,-72 # 80171a8c <CPU_RAM>
80003adc:	00a70733          	add	a4,a4,a0
80003ae0:	00074703          	lbu	a4,0(a4)
80003ae4:	00178793          	addi	a5,a5,1
80003ae8:	00c12083          	lw	ra,12(sp)
80003aec:	00f41023          	sh	a5,0(s0)
80003af0:	00812403          	lw	s0,8(sp)
80003af4:	00177697          	auipc	a3,0x177
80003af8:	bca6a223          	sw	a0,-1084(a3) # 8017a6b8 <op_address>
80003afc:	00177697          	auipc	a3,0x177
80003b00:	bce6a423          	sw	a4,-1080(a3) # 8017a6c4 <op_value>
80003b04:	01010113          	addi	sp,sp,16
80003b08:	00008067          	ret

80003b0c <cpu_address_zero_page_x>:
80003b0c:	ff010113          	addi	sp,sp,-16
80003b10:	00812423          	sw	s0,8(sp)
80003b14:	00177417          	auipc	s0,0x177
80003b18:	b9440413          	addi	s0,s0,-1132 # 8017a6a8 <cpu>
80003b1c:	00045503          	lhu	a0,0(s0)
80003b20:	00112623          	sw	ra,12(sp)
80003b24:	b15fc0ef          	jal	ra,80000638 <memory_readb>
80003b28:	00444703          	lbu	a4,4(s0)
80003b2c:	00045783          	lhu	a5,0(s0)
80003b30:	00c12083          	lw	ra,12(sp)
80003b34:	00e50533          	add	a0,a0,a4
80003b38:	0ff57513          	zext.b	a0,a0
80003b3c:	0016e717          	auipc	a4,0x16e
80003b40:	f5070713          	addi	a4,a4,-176 # 80171a8c <CPU_RAM>
80003b44:	00a70733          	add	a4,a4,a0
80003b48:	00074703          	lbu	a4,0(a4)
80003b4c:	00178793          	addi	a5,a5,1
80003b50:	00f41023          	sh	a5,0(s0)
80003b54:	00812403          	lw	s0,8(sp)
80003b58:	00177697          	auipc	a3,0x177
80003b5c:	b6a6a023          	sw	a0,-1184(a3) # 8017a6b8 <op_address>
80003b60:	00177697          	auipc	a3,0x177
80003b64:	b6e6a223          	sw	a4,-1180(a3) # 8017a6c4 <op_value>
80003b68:	01010113          	addi	sp,sp,16
80003b6c:	00008067          	ret

80003b70 <cpu_address_zero_page_y>:
80003b70:	ff010113          	addi	sp,sp,-16
80003b74:	00812423          	sw	s0,8(sp)
80003b78:	00177417          	auipc	s0,0x177
80003b7c:	b3040413          	addi	s0,s0,-1232 # 8017a6a8 <cpu>
80003b80:	00045503          	lhu	a0,0(s0)
80003b84:	00112623          	sw	ra,12(sp)
80003b88:	ab1fc0ef          	jal	ra,80000638 <memory_readb>
80003b8c:	00544703          	lbu	a4,5(s0)
80003b90:	00045783          	lhu	a5,0(s0)
80003b94:	00c12083          	lw	ra,12(sp)
80003b98:	00e50533          	add	a0,a0,a4
80003b9c:	0ff57513          	zext.b	a0,a0
80003ba0:	0016e717          	auipc	a4,0x16e
80003ba4:	eec70713          	addi	a4,a4,-276 # 80171a8c <CPU_RAM>
80003ba8:	00a70733          	add	a4,a4,a0
80003bac:	00074703          	lbu	a4,0(a4)
80003bb0:	00178793          	addi	a5,a5,1
80003bb4:	00f41023          	sh	a5,0(s0)
80003bb8:	00812403          	lw	s0,8(sp)
80003bbc:	00177697          	auipc	a3,0x177
80003bc0:	aea6ae23          	sw	a0,-1284(a3) # 8017a6b8 <op_address>
80003bc4:	00177697          	auipc	a3,0x177
80003bc8:	b0e6a023          	sw	a4,-1280(a3) # 8017a6c4 <op_value>
80003bcc:	01010113          	addi	sp,sp,16
80003bd0:	00008067          	ret

80003bd4 <cpu_address_absolute>:
80003bd4:	ff010113          	addi	sp,sp,-16
80003bd8:	00812423          	sw	s0,8(sp)
80003bdc:	00177417          	auipc	s0,0x177
80003be0:	acc40413          	addi	s0,s0,-1332 # 8017a6a8 <cpu>
80003be4:	00045503          	lhu	a0,0(s0)
80003be8:	00112623          	sw	ra,12(sp)
80003bec:	b99fc0ef          	jal	ra,80000784 <memory_readw>
80003bf0:	00177717          	auipc	a4,0x177
80003bf4:	aca72423          	sw	a0,-1336(a4) # 8017a6b8 <op_address>
80003bf8:	a41fc0ef          	jal	ra,80000638 <memory_readb>
80003bfc:	00045783          	lhu	a5,0(s0)
80003c00:	00c12083          	lw	ra,12(sp)
80003c04:	00177717          	auipc	a4,0x177
80003c08:	aca72023          	sw	a0,-1344(a4) # 8017a6c4 <op_value>
80003c0c:	00278793          	addi	a5,a5,2
80003c10:	00f41023          	sh	a5,0(s0)
80003c14:	00812403          	lw	s0,8(sp)
80003c18:	01010113          	addi	sp,sp,16
80003c1c:	00008067          	ret

80003c20 <cpu_address_absolute_x>:
80003c20:	ff010113          	addi	sp,sp,-16
80003c24:	00812423          	sw	s0,8(sp)
80003c28:	00177417          	auipc	s0,0x177
80003c2c:	a8040413          	addi	s0,s0,-1408 # 8017a6a8 <cpu>
80003c30:	00045503          	lhu	a0,0(s0)
80003c34:	00112623          	sw	ra,12(sp)
80003c38:	00912223          	sw	s1,4(sp)
80003c3c:	b49fc0ef          	jal	ra,80000784 <memory_readw>
80003c40:	00444783          	lbu	a5,4(s0)
80003c44:	00177497          	auipc	s1,0x177
80003c48:	a7448493          	addi	s1,s1,-1420 # 8017a6b8 <op_address>
80003c4c:	00a787b3          	add	a5,a5,a0
80003c50:	01079513          	slli	a0,a5,0x10
80003c54:	01055513          	srli	a0,a0,0x10
80003c58:	00f4a023          	sw	a5,0(s1)
80003c5c:	9ddfc0ef          	jal	ra,80000638 <memory_readb>
80003c60:	00045783          	lhu	a5,0(s0)
80003c64:	0004a703          	lw	a4,0(s1)
80003c68:	00177697          	auipc	a3,0x177
80003c6c:	a4a6ae23          	sw	a0,-1444(a3) # 8017a6c4 <op_value>
80003c70:	00278793          	addi	a5,a5,2
80003c74:	01079793          	slli	a5,a5,0x10
80003c78:	0107d793          	srli	a5,a5,0x10
80003c7c:	00f41023          	sh	a5,0(s0)
80003c80:	40875713          	srai	a4,a4,0x8
80003c84:	0087d793          	srli	a5,a5,0x8
80003c88:	00f70c63          	beq	a4,a5,80003ca0 <cpu_address_absolute_x+0x80>
80003c8c:	00177717          	auipc	a4,0x177
80003c90:	a3470713          	addi	a4,a4,-1484 # 8017a6c0 <op_cycles>
80003c94:	00072783          	lw	a5,0(a4)
80003c98:	00178793          	addi	a5,a5,1
80003c9c:	00f72023          	sw	a5,0(a4)
80003ca0:	00c12083          	lw	ra,12(sp)
80003ca4:	00812403          	lw	s0,8(sp)
80003ca8:	00412483          	lw	s1,4(sp)
80003cac:	01010113          	addi	sp,sp,16
80003cb0:	00008067          	ret

80003cb4 <cpu_address_absolute_y>:
80003cb4:	ff010113          	addi	sp,sp,-16
80003cb8:	00812423          	sw	s0,8(sp)
80003cbc:	00177417          	auipc	s0,0x177
80003cc0:	9ec40413          	addi	s0,s0,-1556 # 8017a6a8 <cpu>
80003cc4:	00045503          	lhu	a0,0(s0)
80003cc8:	00112623          	sw	ra,12(sp)
80003ccc:	00912223          	sw	s1,4(sp)
80003cd0:	ab5fc0ef          	jal	ra,80000784 <memory_readw>
80003cd4:	00544783          	lbu	a5,5(s0)
80003cd8:	00177497          	auipc	s1,0x177
80003cdc:	9e048493          	addi	s1,s1,-1568 # 8017a6b8 <op_address>
80003ce0:	00a78533          	add	a0,a5,a0
80003ce4:	01051793          	slli	a5,a0,0x10
80003ce8:	0107d793          	srli	a5,a5,0x10
80003cec:	00078513          	mv	a0,a5
80003cf0:	00f4a023          	sw	a5,0(s1)
80003cf4:	945fc0ef          	jal	ra,80000638 <memory_readb>
80003cf8:	00045783          	lhu	a5,0(s0)
80003cfc:	0004a703          	lw	a4,0(s1)
80003d00:	00177697          	auipc	a3,0x177
80003d04:	9ca6a223          	sw	a0,-1596(a3) # 8017a6c4 <op_value>
80003d08:	00278793          	addi	a5,a5,2
80003d0c:	01079793          	slli	a5,a5,0x10
80003d10:	0107d793          	srli	a5,a5,0x10
80003d14:	00f41023          	sh	a5,0(s0)
80003d18:	40875713          	srai	a4,a4,0x8
80003d1c:	0087d793          	srli	a5,a5,0x8
80003d20:	00f70c63          	beq	a4,a5,80003d38 <cpu_address_absolute_y+0x84>
80003d24:	00177717          	auipc	a4,0x177
80003d28:	99c70713          	addi	a4,a4,-1636 # 8017a6c0 <op_cycles>
80003d2c:	00072783          	lw	a5,0(a4)
80003d30:	00178793          	addi	a5,a5,1
80003d34:	00f72023          	sw	a5,0(a4)
80003d38:	00c12083          	lw	ra,12(sp)
80003d3c:	00812403          	lw	s0,8(sp)
80003d40:	00412483          	lw	s1,4(sp)
80003d44:	01010113          	addi	sp,sp,16
80003d48:	00008067          	ret

80003d4c <cpu_address_relative>:
80003d4c:	ff010113          	addi	sp,sp,-16
80003d50:	00812423          	sw	s0,8(sp)
80003d54:	00177417          	auipc	s0,0x177
80003d58:	95440413          	addi	s0,s0,-1708 # 8017a6a8 <cpu>
80003d5c:	00045503          	lhu	a0,0(s0)
80003d60:	00112623          	sw	ra,12(sp)
80003d64:	8d5fc0ef          	jal	ra,80000638 <memory_readb>
80003d68:	00045783          	lhu	a5,0(s0)
80003d6c:	01851713          	slli	a4,a0,0x18
80003d70:	41875713          	srai	a4,a4,0x18
80003d74:	00178793          	addi	a5,a5,1
80003d78:	01079793          	slli	a5,a5,0x10
80003d7c:	0107d793          	srli	a5,a5,0x10
80003d80:	00f41023          	sh	a5,0(s0)
80003d84:	00075463          	bgez	a4,80003d8c <cpu_address_relative+0x40>
80003d88:	f0050513          	addi	a0,a0,-256
80003d8c:	00a78533          	add	a0,a5,a0
80003d90:	00177717          	auipc	a4,0x177
80003d94:	92a72423          	sw	a0,-1752(a4) # 8017a6b8 <op_address>
80003d98:	0087d793          	srli	a5,a5,0x8
80003d9c:	40855513          	srai	a0,a0,0x8
80003da0:	00f50c63          	beq	a0,a5,80003db8 <cpu_address_relative+0x6c>
80003da4:	00177717          	auipc	a4,0x177
80003da8:	91c70713          	addi	a4,a4,-1764 # 8017a6c0 <op_cycles>
80003dac:	00072783          	lw	a5,0(a4)
80003db0:	00178793          	addi	a5,a5,1
80003db4:	00f72023          	sw	a5,0(a4)
80003db8:	00c12083          	lw	ra,12(sp)
80003dbc:	00812403          	lw	s0,8(sp)
80003dc0:	01010113          	addi	sp,sp,16
80003dc4:	00008067          	ret

80003dc8 <cpu_address_indirect>:
80003dc8:	ff010113          	addi	sp,sp,-16
80003dcc:	01212023          	sw	s2,0(sp)
80003dd0:	00177917          	auipc	s2,0x177
80003dd4:	8d890913          	addi	s2,s2,-1832 # 8017a6a8 <cpu>
80003dd8:	00095503          	lhu	a0,0(s2)
80003ddc:	00112623          	sw	ra,12(sp)
80003de0:	00812423          	sw	s0,8(sp)
80003de4:	00912223          	sw	s1,4(sp)
80003de8:	99dfc0ef          	jal	ra,80000784 <memory_readw>
80003dec:	0ff57713          	zext.b	a4,a0
80003df0:	0ff00793          	li	a5,255
80003df4:	02f70a63          	beq	a4,a5,80003e28 <cpu_address_indirect+0x60>
80003df8:	98dfc0ef          	jal	ra,80000784 <memory_readw>
80003dfc:	00095783          	lhu	a5,0(s2)
80003e00:	00c12083          	lw	ra,12(sp)
80003e04:	00812403          	lw	s0,8(sp)
80003e08:	00278793          	addi	a5,a5,2
80003e0c:	00f91023          	sh	a5,0(s2)
80003e10:	00177717          	auipc	a4,0x177
80003e14:	8aa72423          	sw	a0,-1880(a4) # 8017a6b8 <op_address>
80003e18:	00412483          	lw	s1,4(sp)
80003e1c:	00012903          	lw	s2,0(sp)
80003e20:	01010113          	addi	sp,sp,16
80003e24:	00008067          	ret
80003e28:	00050493          	mv	s1,a0
80003e2c:	f0057513          	andi	a0,a0,-256
80003e30:	01051513          	slli	a0,a0,0x10
80003e34:	01055513          	srli	a0,a0,0x10
80003e38:	801fc0ef          	jal	ra,80000638 <memory_readb>
80003e3c:	00050413          	mv	s0,a0
80003e40:	00048513          	mv	a0,s1
80003e44:	ff4fc0ef          	jal	ra,80000638 <memory_readb>
80003e48:	00841413          	slli	s0,s0,0x8
80003e4c:	00a40533          	add	a0,s0,a0
80003e50:	fadff06f          	j	80003dfc <cpu_address_indirect+0x34>

80003e54 <cpu_address_indirect_x>:
80003e54:	ff010113          	addi	sp,sp,-16
80003e58:	01212023          	sw	s2,0(sp)
80003e5c:	00177917          	auipc	s2,0x177
80003e60:	84c90913          	addi	s2,s2,-1972 # 8017a6a8 <cpu>
80003e64:	00095503          	lhu	a0,0(s2)
80003e68:	00112623          	sw	ra,12(sp)
80003e6c:	00812423          	sw	s0,8(sp)
80003e70:	00912223          	sw	s1,4(sp)
80003e74:	fc4fc0ef          	jal	ra,80000638 <memory_readb>
80003e78:	00494783          	lbu	a5,4(s2)
80003e7c:	00050493          	mv	s1,a0
80003e80:	00178513          	addi	a0,a5,1
80003e84:	00950533          	add	a0,a0,s1
80003e88:	0ff57513          	zext.b	a0,a0
80003e8c:	facfc0ef          	jal	ra,80000638 <memory_readb>
80003e90:	00494783          	lbu	a5,4(s2)
80003e94:	00050413          	mv	s0,a0
80003e98:	00f48533          	add	a0,s1,a5
80003e9c:	0ff57513          	zext.b	a0,a0
80003ea0:	f98fc0ef          	jal	ra,80000638 <memory_readb>
80003ea4:	00841793          	slli	a5,s0,0x8
80003ea8:	00a7e7b3          	or	a5,a5,a0
80003eac:	01079513          	slli	a0,a5,0x10
80003eb0:	01055513          	srli	a0,a0,0x10
80003eb4:	00177717          	auipc	a4,0x177
80003eb8:	80f72223          	sw	a5,-2044(a4) # 8017a6b8 <op_address>
80003ebc:	f7cfc0ef          	jal	ra,80000638 <memory_readb>
80003ec0:	00095783          	lhu	a5,0(s2)
80003ec4:	00c12083          	lw	ra,12(sp)
80003ec8:	00812403          	lw	s0,8(sp)
80003ecc:	00178793          	addi	a5,a5,1
80003ed0:	00f91023          	sh	a5,0(s2)
80003ed4:	00176717          	auipc	a4,0x176
80003ed8:	7ea72823          	sw	a0,2032(a4) # 8017a6c4 <op_value>
80003edc:	00412483          	lw	s1,4(sp)
80003ee0:	00012903          	lw	s2,0(sp)
80003ee4:	01010113          	addi	sp,sp,16
80003ee8:	00008067          	ret

80003eec <cpu_address_indirect_y>:
80003eec:	fe010113          	addi	sp,sp,-32
80003ef0:	00912a23          	sw	s1,20(sp)
80003ef4:	00176497          	auipc	s1,0x176
80003ef8:	7b448493          	addi	s1,s1,1972 # 8017a6a8 <cpu>
80003efc:	0004d503          	lhu	a0,0(s1)
80003f00:	00112e23          	sw	ra,28(sp)
80003f04:	00812c23          	sw	s0,24(sp)
80003f08:	01212823          	sw	s2,16(sp)
80003f0c:	01312623          	sw	s3,12(sp)
80003f10:	f28fc0ef          	jal	ra,80000638 <memory_readb>
80003f14:	01051913          	slli	s2,a0,0x10
80003f18:	01095913          	srli	s2,s2,0x10
80003f1c:	00190513          	addi	a0,s2,1
80003f20:	0ff57513          	zext.b	a0,a0
80003f24:	f14fc0ef          	jal	ra,80000638 <memory_readb>
80003f28:	00050413          	mv	s0,a0
80003f2c:	00090513          	mv	a0,s2
80003f30:	f08fc0ef          	jal	ra,80000638 <memory_readb>
80003f34:	0054c783          	lbu	a5,5(s1)
80003f38:	00841413          	slli	s0,s0,0x8
80003f3c:	00a46433          	or	s0,s0,a0
80003f40:	00f40533          	add	a0,s0,a5
80003f44:	01051793          	slli	a5,a0,0x10
80003f48:	0107d793          	srli	a5,a5,0x10
80003f4c:	00176997          	auipc	s3,0x176
80003f50:	76c98993          	addi	s3,s3,1900 # 8017a6b8 <op_address>
80003f54:	00078513          	mv	a0,a5
80003f58:	00f9a023          	sw	a5,0(s3)
80003f5c:	edcfc0ef          	jal	ra,80000638 <memory_readb>
80003f60:	0004d783          	lhu	a5,0(s1)
80003f64:	0009a703          	lw	a4,0(s3)
80003f68:	00176697          	auipc	a3,0x176
80003f6c:	74a6ae23          	sw	a0,1884(a3) # 8017a6c4 <op_value>
80003f70:	00178793          	addi	a5,a5,1
80003f74:	01079793          	slli	a5,a5,0x10
80003f78:	0107d793          	srli	a5,a5,0x10
80003f7c:	00f49023          	sh	a5,0(s1)
80003f80:	40875713          	srai	a4,a4,0x8
80003f84:	0087d793          	srli	a5,a5,0x8
80003f88:	00f70c63          	beq	a4,a5,80003fa0 <cpu_address_indirect_y+0xb4>
80003f8c:	00176717          	auipc	a4,0x176
80003f90:	73470713          	addi	a4,a4,1844 # 8017a6c0 <op_cycles>
80003f94:	00072783          	lw	a5,0(a4)
80003f98:	00178793          	addi	a5,a5,1
80003f9c:	00f72023          	sw	a5,0(a4)
80003fa0:	01c12083          	lw	ra,28(sp)
80003fa4:	01812403          	lw	s0,24(sp)
80003fa8:	01412483          	lw	s1,20(sp)
80003fac:	01012903          	lw	s2,16(sp)
80003fb0:	00c12983          	lw	s3,12(sp)
80003fb4:	02010113          	addi	sp,sp,32
80003fb8:	00008067          	ret

80003fbc <main>:
80003fbc:	fe010113          	addi	sp,sp,-32
80003fc0:	00112e23          	sw	ra,28(sp)
80003fc4:	15c000ef          	jal	ra,80004120 <ioe_init>
80003fc8:	00001517          	auipc	a0,0x1
80003fcc:	24450513          	addi	a0,a0,580 # 8000520c <cpu_zn_flag_table+0x100>
80003fd0:	420000ef          	jal	ra,800043f0 <printf>
80003fd4:	00001517          	auipc	a0,0x1
80003fd8:	30050513          	addi	a0,a0,768 # 800052d4 <cpu_zn_flag_table+0x1c8>
80003fdc:	00001897          	auipc	a7,0x1
80003fe0:	27088893          	addi	a7,a7,624 # 8000524c <cpu_zn_flag_table+0x140>
80003fe4:	00001817          	auipc	a6,0x1
80003fe8:	26c80813          	addi	a6,a6,620 # 80005250 <cpu_zn_flag_table+0x144>
80003fec:	00001797          	auipc	a5,0x1
80003ff0:	26878793          	addi	a5,a5,616 # 80005254 <cpu_zn_flag_table+0x148>
80003ff4:	00001717          	auipc	a4,0x1
80003ff8:	26470713          	addi	a4,a4,612 # 80005258 <cpu_zn_flag_table+0x14c>
80003ffc:	00001697          	auipc	a3,0x1
80004000:	26068693          	addi	a3,a3,608 # 8000525c <cpu_zn_flag_table+0x150>
80004004:	00001617          	auipc	a2,0x1
80004008:	25c60613          	addi	a2,a2,604 # 80005260 <cpu_zn_flag_table+0x154>
8000400c:	00001597          	auipc	a1,0x1
80004010:	25858593          	addi	a1,a1,600 # 80005264 <cpu_zn_flag_table+0x158>
80004014:	00a12023          	sw	a0,0(sp)
80004018:	00001517          	auipc	a0,0x1
8000401c:	25050513          	addi	a0,a0,592 # 80005268 <cpu_zn_flag_table+0x15c>
80004020:	3d0000ef          	jal	ra,800043f0 <printf>
80004024:	00001517          	auipc	a0,0x1
80004028:	2b450513          	addi	a0,a0,692 # 800052d8 <cpu_zn_flag_table+0x1cc>
8000402c:	3c4000ef          	jal	ra,800043f0 <printf>
80004030:	00001517          	auipc	a0,0x1
80004034:	36850513          	addi	a0,a0,872 # 80005398 <rom_mario_nes>
80004038:	93cfc0ef          	jal	ra,80000174 <fce_load_rom>
8000403c:	a80fc0ef          	jal	ra,800002bc <fce_init>
80004040:	aacfc0ef          	jal	ra,800002ec <fce_run>
80004044:	01c12083          	lw	ra,28(sp)
80004048:	00100513          	li	a0,1
8000404c:	02010113          	addi	sp,sp,32
80004050:	00008067          	ret

80004054 <putch>:
80004054:	a00007b7          	lui	a5,0xa0000
80004058:	3ea78c23          	sb	a0,1016(a5) # a00003f8 <_end+0x1fe7d3f8>
8000405c:	00008067          	ret

80004060 <halt>:
80004060:	00050513          	mv	a0,a0
80004064:	00100073          	ebreak
80004068:	0000006f          	j	80004068 <halt+0x8>

8000406c <_trm_init>:
8000406c:	ff010113          	addi	sp,sp,-16
80004070:	00001517          	auipc	a0,0x1
80004074:	32050513          	addi	a0,a0,800 # 80005390 <mainargs>
80004078:	00112623          	sw	ra,12(sp)
8000407c:	f41ff0ef          	jal	ra,80003fbc <main>
80004080:	00050513          	mv	a0,a0
80004084:	00100073          	ebreak
80004088:	0000006f          	j	80004088 <_trm_init+0x1c>

8000408c <__am_timer_config>:
8000408c:	00100793          	li	a5,1
80004090:	00f50023          	sb	a5,0(a0)
80004094:	00f500a3          	sb	a5,1(a0)
80004098:	00008067          	ret

8000409c <__am_input_config>:
8000409c:	00100793          	li	a5,1
800040a0:	00f50023          	sb	a5,0(a0)
800040a4:	00008067          	ret

800040a8 <__am_uart_config>:
800040a8:	00050023          	sb	zero,0(a0)
800040ac:	00008067          	ret

800040b0 <__am_net_config>:
800040b0:	00050023          	sb	zero,0(a0)
800040b4:	00008067          	ret

800040b8 <fail>:
800040b8:	ff010113          	addi	sp,sp,-16
800040bc:	00812423          	sw	s0,8(sp)
800040c0:	00112623          	sw	ra,12(sp)
800040c4:	00001417          	auipc	s0,0x1
800040c8:	ab840413          	addi	s0,s0,-1352 # 80004b7c <_etext+0x84>
800040cc:	04100513          	li	a0,65
800040d0:	00140413          	addi	s0,s0,1
800040d4:	f81ff0ef          	jal	ra,80004054 <putch>
800040d8:	00044503          	lbu	a0,0(s0)
800040dc:	fe051ae3          	bnez	a0,800040d0 <fail+0x18>
800040e0:	00001417          	auipc	s0,0x1
800040e4:	23440413          	addi	s0,s0,564 # 80005314 <cpu_zn_flag_table+0x208>
800040e8:	06100513          	li	a0,97
800040ec:	00140413          	addi	s0,s0,1
800040f0:	f65ff0ef          	jal	ra,80004054 <putch>
800040f4:	00044503          	lbu	a0,0(s0)
800040f8:	fe051ae3          	bnez	a0,800040ec <fail+0x34>
800040fc:	00001417          	auipc	s0,0x1
80004100:	23440413          	addi	s0,s0,564 # 80005330 <cpu_zn_flag_table+0x224>
80004104:	02000513          	li	a0,32
80004108:	00140413          	addi	s0,s0,1
8000410c:	f49ff0ef          	jal	ra,80004054 <putch>
80004110:	00044503          	lbu	a0,0(s0)
80004114:	fe051ae3          	bnez	a0,80004108 <fail+0x50>
80004118:	00100513          	li	a0,1
8000411c:	f45ff0ef          	jal	ra,80004060 <halt>

80004120 <ioe_init>:
80004120:	ff010113          	addi	sp,sp,-16
80004124:	00112623          	sw	ra,12(sp)
80004128:	0000b797          	auipc	a5,0xb
8000412c:	28078793          	addi	a5,a5,640 # 8000f3a8 <lut>
80004130:	0000b697          	auipc	a3,0xb
80004134:	47868693          	addi	a3,a3,1144 # 8000f5a8 <memory>
80004138:	00000617          	auipc	a2,0x0
8000413c:	f8060613          	addi	a2,a2,-128 # 800040b8 <fail>
80004140:	00c0006f          	j	8000414c <ioe_init+0x2c>
80004144:	00478793          	addi	a5,a5,4
80004148:	00d78c63          	beq	a5,a3,80004160 <ioe_init+0x40>
8000414c:	0007a703          	lw	a4,0(a5)
80004150:	fe071ae3          	bnez	a4,80004144 <ioe_init+0x24>
80004154:	00c7a023          	sw	a2,0(a5)
80004158:	00478793          	addi	a5,a5,4
8000415c:	fed798e3          	bne	a5,a3,8000414c <ioe_init+0x2c>
80004160:	0d0000ef          	jal	ra,80004230 <__am_gpu_init>
80004164:	050000ef          	jal	ra,800041b4 <__am_timer_init>
80004168:	25c000ef          	jal	ra,800043c4 <__am_audio_init>
8000416c:	00c12083          	lw	ra,12(sp)
80004170:	00100513          	li	a0,1
80004174:	01010113          	addi	sp,sp,16
80004178:	00008067          	ret

8000417c <ioe_read>:
8000417c:	00251513          	slli	a0,a0,0x2
80004180:	0000b797          	auipc	a5,0xb
80004184:	22878793          	addi	a5,a5,552 # 8000f3a8 <lut>
80004188:	00a787b3          	add	a5,a5,a0
8000418c:	0007a783          	lw	a5,0(a5)
80004190:	00058513          	mv	a0,a1
80004194:	00078067          	jr	a5

80004198 <ioe_write>:
80004198:	00251513          	slli	a0,a0,0x2
8000419c:	0000b797          	auipc	a5,0xb
800041a0:	20c78793          	addi	a5,a5,524 # 8000f3a8 <lut>
800041a4:	00a787b3          	add	a5,a5,a0
800041a8:	0007a783          	lw	a5,0(a5)
800041ac:	00058513          	mv	a0,a1
800041b0:	00078067          	jr	a5

800041b4 <__am_timer_init>:
800041b4:	00008067          	ret

800041b8 <__am_timer_uptime>:
800041b8:	a00007b7          	lui	a5,0xa0000
800041bc:	0487a703          	lw	a4,72(a5) # a0000048 <_end+0x1fe7d048>
800041c0:	04c7a783          	lw	a5,76(a5)
800041c4:	00e52023          	sw	a4,0(a0)
800041c8:	00f52223          	sw	a5,4(a0)
800041cc:	00008067          	ret

800041d0 <__am_timer_rtc>:
800041d0:	76c00793          	li	a5,1900
800041d4:	00052a23          	sw	zero,20(a0)
800041d8:	00052823          	sw	zero,16(a0)
800041dc:	00052623          	sw	zero,12(a0)
800041e0:	00052423          	sw	zero,8(a0)
800041e4:	00052223          	sw	zero,4(a0)
800041e8:	00f52023          	sw	a5,0(a0)
800041ec:	00008067          	ret

800041f0 <__am_input_keybrd>:
800041f0:	a00007b7          	lui	a5,0xa0000
800041f4:	0607a783          	lw	a5,96(a5) # a0000060 <_end+0x1fe7d060>
800041f8:	02078263          	beqz	a5,8000421c <__am_input_keybrd+0x2c>
800041fc:	ffff86b7          	lui	a3,0xffff8
80004200:	00f7d713          	srli	a4,a5,0xf
80004204:	fff68693          	addi	a3,a3,-1 # ffff7fff <_end+0x7fe74fff>
80004208:	00177713          	andi	a4,a4,1
8000420c:	00d7f7b3          	and	a5,a5,a3
80004210:	00e50023          	sb	a4,0(a0)
80004214:	00f52223          	sw	a5,4(a0)
80004218:	00008067          	ret
8000421c:	00000713          	li	a4,0
80004220:	00000793          	li	a5,0
80004224:	00e50023          	sb	a4,0(a0)
80004228:	00f52223          	sw	a5,4(a0)
8000422c:	00008067          	ret

80004230 <__am_gpu_init>:
80004230:	a00007b7          	lui	a5,0xa0000
80004234:	1007a783          	lw	a5,256(a5) # a0000100 <_end+0x1fe7d100>
80004238:	0107d713          	srli	a4,a5,0x10
8000423c:	01079793          	slli	a5,a5,0x10
80004240:	0107d793          	srli	a5,a5,0x10
80004244:	02f70733          	mul	a4,a4,a5
80004248:	02070063          	beqz	a4,80004268 <__am_gpu_init+0x38>
8000424c:	284007b7          	lui	a5,0x28400
80004250:	00f70733          	add	a4,a4,a5
80004254:	00271713          	slli	a4,a4,0x2
80004258:	a10007b7          	lui	a5,0xa1000
8000425c:	0007a023          	sw	zero,0(a5) # a1000000 <_end+0x20e7d000>
80004260:	00478793          	addi	a5,a5,4
80004264:	fee79ce3          	bne	a5,a4,8000425c <__am_gpu_init+0x2c>
80004268:	a00007b7          	lui	a5,0xa0000
8000426c:	00100713          	li	a4,1
80004270:	10e7a223          	sw	a4,260(a5) # a0000104 <_end+0x1fe7d104>
80004274:	00008067          	ret

80004278 <__am_gpu_config>:
80004278:	a00007b7          	lui	a5,0xa0000
8000427c:	1007a783          	lw	a5,256(a5) # a0000100 <_end+0x1fe7d100>
80004280:	00100613          	li	a2,1
80004284:	00c51023          	sh	a2,0(a0)
80004288:	0107d693          	srli	a3,a5,0x10
8000428c:	01079793          	slli	a5,a5,0x10
80004290:	0107d793          	srli	a5,a5,0x10
80004294:	02f68733          	mul	a4,a3,a5
80004298:	00f52423          	sw	a5,8(a0)
8000429c:	00d52223          	sw	a3,4(a0)
800042a0:	00271793          	slli	a5,a4,0x2
800042a4:	00f52623          	sw	a5,12(a0)
800042a8:	00008067          	ret

800042ac <__am_gpu_fbdraw>:
800042ac:	fd010113          	addi	sp,sp,-48
800042b0:	01312e23          	sw	s3,28(sp)
800042b4:	00010593          	mv	a1,sp
800042b8:	00050993          	mv	s3,a0
800042bc:	00900513          	li	a0,9
800042c0:	01512a23          	sw	s5,20(sp)
800042c4:	02112623          	sw	ra,44(sp)
800042c8:	02812423          	sw	s0,40(sp)
800042cc:	02912223          	sw	s1,36(sp)
800042d0:	03212023          	sw	s2,32(sp)
800042d4:	01412c23          	sw	s4,24(sp)
800042d8:	01612823          	sw	s6,16(sp)
800042dc:	ea1ff0ef          	jal	ra,8000417c <ioe_read>
800042e0:	0109a783          	lw	a5,16(s3)
800042e4:	00412a83          	lw	s5,4(sp)
800042e8:	08f05a63          	blez	a5,8000437c <__am_gpu_fbdraw+0xd0>
800042ec:	00c9a703          	lw	a4,12(s3)
800042f0:	00000b13          	li	s6,0
800042f4:	a1000a37          	lui	s4,0xa1000
800042f8:	00000413          	li	s0,0
800042fc:	00e04863          	bgtz	a4,8000430c <__am_gpu_fbdraw+0x60>
80004300:	0740006f          	j	80004374 <__am_gpu_fbdraw+0xc8>
80004304:	00140413          	addi	s0,s0,1
80004308:	06e45463          	bge	s0,a4,80004370 <__am_gpu_fbdraw+0xc4>
8000430c:	0009a483          	lw	s1,0(s3)
80004310:	0049a783          	lw	a5,4(s3)
80004314:	009404b3          	add	s1,s0,s1
80004318:	ff54d6e3          	bge	s1,s5,80004304 <__am_gpu_fbdraw+0x58>
8000431c:	00010593          	mv	a1,sp
80004320:	00900513          	li	a0,9
80004324:	01678933          	add	s2,a5,s6
80004328:	e55ff0ef          	jal	ra,8000417c <ioe_read>
8000432c:	00812783          	lw	a5,8(sp)
80004330:	00c9a703          	lw	a4,12(s3)
80004334:	fcf958e3          	bge	s2,a5,80004304 <__am_gpu_fbdraw+0x58>
80004338:	02eb0733          	mul	a4,s6,a4
8000433c:	0089a683          	lw	a3,8(s3)
80004340:	032a87b3          	mul	a5,s5,s2
80004344:	00870733          	add	a4,a4,s0
80004348:	00271713          	slli	a4,a4,0x2
8000434c:	00e68733          	add	a4,a3,a4
80004350:	00072703          	lw	a4,0(a4)
80004354:	00140413          	addi	s0,s0,1
80004358:	009787b3          	add	a5,a5,s1
8000435c:	00279793          	slli	a5,a5,0x2
80004360:	00fa07b3          	add	a5,s4,a5
80004364:	00e7a023          	sw	a4,0(a5)
80004368:	00c9a703          	lw	a4,12(s3)
8000436c:	fae440e3          	blt	s0,a4,8000430c <__am_gpu_fbdraw+0x60>
80004370:	0109a783          	lw	a5,16(s3)
80004374:	001b0b13          	addi	s6,s6,1
80004378:	f8fb40e3          	blt	s6,a5,800042f8 <__am_gpu_fbdraw+0x4c>
8000437c:	0149c783          	lbu	a5,20(s3)
80004380:	00078863          	beqz	a5,80004390 <__am_gpu_fbdraw+0xe4>
80004384:	a00007b7          	lui	a5,0xa0000
80004388:	00100713          	li	a4,1
8000438c:	10e7a223          	sw	a4,260(a5) # a0000104 <_end+0x1fe7d104>
80004390:	02c12083          	lw	ra,44(sp)
80004394:	02812403          	lw	s0,40(sp)
80004398:	02412483          	lw	s1,36(sp)
8000439c:	02012903          	lw	s2,32(sp)
800043a0:	01c12983          	lw	s3,28(sp)
800043a4:	01812a03          	lw	s4,24(sp)
800043a8:	01412a83          	lw	s5,20(sp)
800043ac:	01012b03          	lw	s6,16(sp)
800043b0:	03010113          	addi	sp,sp,48
800043b4:	00008067          	ret

800043b8 <__am_gpu_status>:
800043b8:	00100793          	li	a5,1
800043bc:	00f50023          	sb	a5,0(a0)
800043c0:	00008067          	ret

800043c4 <__am_audio_init>:
800043c4:	00008067          	ret

800043c8 <__am_audio_config>:
800043c8:	00050023          	sb	zero,0(a0)
800043cc:	00008067          	ret

800043d0 <__am_audio_ctrl>:
800043d0:	00008067          	ret

800043d4 <__am_audio_status>:
800043d4:	00052023          	sw	zero,0(a0)
800043d8:	00008067          	ret

800043dc <__am_audio_play>:
800043dc:	00008067          	ret

800043e0 <__am_disk_config>:
800043e0:	00050023          	sb	zero,0(a0)
800043e4:	00008067          	ret

800043e8 <__am_disk_status>:
800043e8:	00008067          	ret

800043ec <__am_disk_blkio>:
800043ec:	00008067          	ret

800043f0 <printf>:
800043f0:	bb010113          	addi	sp,sp,-1104
800043f4:	42912223          	sw	s1,1060(sp)
800043f8:	41812423          	sw	s8,1032(sp)
800043fc:	44f12223          	sw	a5,1092(sp)
80004400:	42112623          	sw	ra,1068(sp)
80004404:	42812423          	sw	s0,1064(sp)
80004408:	43212023          	sw	s2,1056(sp)
8000440c:	41312e23          	sw	s3,1052(sp)
80004410:	41412c23          	sw	s4,1048(sp)
80004414:	41512a23          	sw	s5,1044(sp)
80004418:	41612823          	sw	s6,1040(sp)
8000441c:	41712623          	sw	s7,1036(sp)
80004420:	41912223          	sw	s9,1028(sp)
80004424:	41a12023          	sw	s10,1024(sp)
80004428:	3fb12e23          	sw	s11,1020(sp)
8000442c:	42b12a23          	sw	a1,1076(sp)
80004430:	42c12c23          	sw	a2,1080(sp)
80004434:	42d12e23          	sw	a3,1084(sp)
80004438:	44e12023          	sw	a4,1088(sp)
8000443c:	45012423          	sw	a6,1096(sp)
80004440:	45112623          	sw	a7,1100(sp)
80004444:	00050c13          	mv	s8,a0
80004448:	00054503          	lbu	a0,0(a0)
8000444c:	43410793          	addi	a5,sp,1076
80004450:	00f12223          	sw	a5,4(sp)
80004454:	00000493          	li	s1,0
80004458:	02050a63          	beqz	a0,8000448c <printf+0x9c>
8000445c:	02500993          	li	s3,37
80004460:	03000b13          	li	s6,48
80004464:	00900913          	li	s2,9
80004468:	00810a13          	addi	s4,sp,8
8000446c:	00a00a93          	li	s5,10
80004470:	05350e63          	beq	a0,s3,800044cc <printf+0xdc>
80004474:	be1ff0ef          	jal	ra,80004054 <putch>
80004478:	00148493          	addi	s1,s1,1
8000447c:	000c0413          	mv	s0,s8
80004480:	00144503          	lbu	a0,1(s0)
80004484:	00140c13          	addi	s8,s0,1
80004488:	fe0514e3          	bnez	a0,80004470 <printf+0x80>
8000448c:	42c12083          	lw	ra,1068(sp)
80004490:	42812403          	lw	s0,1064(sp)
80004494:	42012903          	lw	s2,1056(sp)
80004498:	41c12983          	lw	s3,1052(sp)
8000449c:	41812a03          	lw	s4,1048(sp)
800044a0:	41412a83          	lw	s5,1044(sp)
800044a4:	41012b03          	lw	s6,1040(sp)
800044a8:	40c12b83          	lw	s7,1036(sp)
800044ac:	40812c03          	lw	s8,1032(sp)
800044b0:	40412c83          	lw	s9,1028(sp)
800044b4:	40012d03          	lw	s10,1024(sp)
800044b8:	3fc12d83          	lw	s11,1020(sp)
800044bc:	00048513          	mv	a0,s1
800044c0:	42412483          	lw	s1,1060(sp)
800044c4:	45010113          	addi	sp,sp,1104
800044c8:	00008067          	ret
800044cc:	001c4683          	lbu	a3,1(s8)
800044d0:	001c0413          	addi	s0,s8,1
800044d4:	02000b93          	li	s7,32
800044d8:	01669863          	bne	a3,s6,800044e8 <printf+0xf8>
800044dc:	002c4683          	lbu	a3,2(s8)
800044e0:	002c0413          	addi	s0,s8,2
800044e4:	03000b93          	li	s7,48
800044e8:	fd068713          	addi	a4,a3,-48
800044ec:	0ff77793          	zext.b	a5,a4
800044f0:	00000c13          	li	s8,0
800044f4:	02f96463          	bltu	s2,a5,8000451c <printf+0x12c>
800044f8:	00144683          	lbu	a3,1(s0)
800044fc:	002c1793          	slli	a5,s8,0x2
80004500:	018787b3          	add	a5,a5,s8
80004504:	00179793          	slli	a5,a5,0x1
80004508:	00f70c33          	add	s8,a4,a5
8000450c:	fd068713          	addi	a4,a3,-48
80004510:	0ff77793          	zext.b	a5,a4
80004514:	00140413          	addi	s0,s0,1
80004518:	fef970e3          	bgeu	s2,a5,800044f8 <printf+0x108>
8000451c:	06400793          	li	a5,100
80004520:	02f68263          	beq	a3,a5,80004544 <printf+0x154>
80004524:	07300793          	li	a5,115
80004528:	08f68a63          	beq	a3,a5,800045bc <printf+0x1cc>
8000452c:	02500513          	li	a0,37
80004530:	b25ff0ef          	jal	ra,80004054 <putch>
80004534:	00044503          	lbu	a0,0(s0)
80004538:	00248493          	addi	s1,s1,2
8000453c:	b19ff0ef          	jal	ra,80004054 <putch>
80004540:	f41ff06f          	j	80004480 <printf+0x90>
80004544:	00412783          	lw	a5,4(sp)
80004548:	00148c93          	addi	s9,s1,1
8000454c:	0007ad03          	lw	s10,0(a5)
80004550:	00478793          	addi	a5,a5,4
80004554:	00f12223          	sw	a5,4(sp)
80004558:	0a0d4863          	bltz	s10,80004608 <printf+0x218>
8000455c:	0e0d1e63          	bnez	s10,80004658 <printf+0x268>
80004560:	01610423          	sb	s6,8(sp)
80004564:	00100793          	li	a5,1
80004568:	0987d863          	bge	a5,s8,800045f8 <printf+0x208>
8000456c:	00100c93          	li	s9,1
80004570:	419c0c33          	sub	s8,s8,s9
80004574:	00000d93          	li	s11,0
80004578:	0d805863          	blez	s8,80004648 <printf+0x258>
8000457c:	001d8d93          	addi	s11,s11,1
80004580:	000b8513          	mv	a0,s7
80004584:	ad1ff0ef          	jal	ra,80004054 <putch>
80004588:	ffbc1ae3          	bne	s8,s11,8000457c <printf+0x18c>
8000458c:	3f0d0793          	addi	a5,s10,1008
80004590:	00278d33          	add	s10,a5,sp
80004594:	c18d4503          	lbu	a0,-1000(s10)
80004598:	009c04b3          	add	s1,s8,s1
8000459c:	019a0c33          	add	s8,s4,s9
800045a0:	0080006f          	j	800045a8 <printf+0x1b8>
800045a4:	fffc4503          	lbu	a0,-1(s8)
800045a8:	fffc0c13          	addi	s8,s8,-1
800045ac:	aa9ff0ef          	jal	ra,80004054 <putch>
800045b0:	ff8a1ae3          	bne	s4,s8,800045a4 <printf+0x1b4>
800045b4:	009c84b3          	add	s1,s9,s1
800045b8:	ec9ff06f          	j	80004480 <printf+0x90>
800045bc:	00412783          	lw	a5,4(sp)
800045c0:	0007ac03          	lw	s8,0(a5)
800045c4:	00478793          	addi	a5,a5,4
800045c8:	00f12223          	sw	a5,4(sp)
800045cc:	000c4503          	lbu	a0,0(s8)
800045d0:	ea0508e3          	beqz	a0,80004480 <printf+0x90>
800045d4:	00048c93          	mv	s9,s1
800045d8:	a7dff0ef          	jal	ra,80004054 <putch>
800045dc:	001c8c93          	addi	s9,s9,1
800045e0:	409c87b3          	sub	a5,s9,s1
800045e4:	00fc07b3          	add	a5,s8,a5
800045e8:	0007c503          	lbu	a0,0(a5)
800045ec:	fe0516e3          	bnez	a0,800045d8 <printf+0x1e8>
800045f0:	000c8493          	mv	s1,s9
800045f4:	e8dff06f          	j	80004480 <printf+0x90>
800045f8:	03000513          	li	a0,48
800045fc:	a59ff0ef          	jal	ra,80004054 <putch>
80004600:	000c8493          	mv	s1,s9
80004604:	e7dff06f          	j	80004480 <printf+0x90>
80004608:	02d00513          	li	a0,45
8000460c:	a49ff0ef          	jal	ra,80004054 <putch>
80004610:	000c8493          	mv	s1,s9
80004614:	41a007b3          	neg	a5,s10
80004618:	00000c93          	li	s9,0
8000461c:	0357e533          	rem	a0,a5,s5
80004620:	000c8d13          	mv	s10,s9
80004624:	001c8c93          	addi	s9,s9,1
80004628:	019a0733          	add	a4,s4,s9
8000462c:	0357c7b3          	div	a5,a5,s5
80004630:	03050513          	addi	a0,a0,48
80004634:	0ff57513          	zext.b	a0,a0
80004638:	fea70fa3          	sb	a0,-1(a4)
8000463c:	fe0790e3          	bnez	a5,8000461c <printf+0x22c>
80004640:	f38cc8e3          	blt	s9,s8,80004570 <printf+0x180>
80004644:	f59ff06f          	j	8000459c <printf+0x1ac>
80004648:	3f0d0793          	addi	a5,s10,1008
8000464c:	00278d33          	add	s10,a5,sp
80004650:	c18d4503          	lbu	a0,-1000(s10)
80004654:	f49ff06f          	j	8000459c <printf+0x1ac>
80004658:	000d0793          	mv	a5,s10
8000465c:	fbdff06f          	j	80004618 <printf+0x228>

80004660 <__udivmoddi4>:
80004660:	fe010113          	addi	sp,sp,-32
80004664:	01212823          	sw	s2,16(sp)
80004668:	01412423          	sw	s4,8(sp)
8000466c:	01512223          	sw	s5,4(sp)
80004670:	01612023          	sw	s6,0(sp)
80004674:	00112e23          	sw	ra,28(sp)
80004678:	00812c23          	sw	s0,24(sp)
8000467c:	00912a23          	sw	s1,20(sp)
80004680:	01312623          	sw	s3,12(sp)
80004684:	00068a93          	mv	s5,a3
80004688:	00050913          	mv	s2,a0
8000468c:	00060b13          	mv	s6,a2
80004690:	00070a13          	mv	s4,a4
80004694:	04059463          	bnez	a1,800046dc <__udivmoddi4+0x7c>
80004698:	18069863          	bnez	a3,80004828 <__udivmoddi4+0x1c8>
8000469c:	00070863          	beqz	a4,800046ac <__udivmoddi4+0x4c>
800046a0:	02c577b3          	remu	a5,a0,a2
800046a4:	00072223          	sw	zero,4(a4)
800046a8:	00f72023          	sw	a5,0(a4)
800046ac:	03695533          	divu	a0,s2,s6
800046b0:	00000593          	li	a1,0
800046b4:	01c12083          	lw	ra,28(sp)
800046b8:	01812403          	lw	s0,24(sp)
800046bc:	01412483          	lw	s1,20(sp)
800046c0:	01012903          	lw	s2,16(sp)
800046c4:	00c12983          	lw	s3,12(sp)
800046c8:	00812a03          	lw	s4,8(sp)
800046cc:	00412a83          	lw	s5,4(sp)
800046d0:	00012b03          	lw	s6,0(sp)
800046d4:	02010113          	addi	sp,sp,32
800046d8:	00008067          	ret
800046dc:	00058993          	mv	s3,a1
800046e0:	00058413          	mv	s0,a1
800046e4:	0e061863          	bnez	a2,800047d4 <__udivmoddi4+0x174>
800046e8:	1a068263          	beqz	a3,8000488c <__udivmoddi4+0x22c>
800046ec:	20050463          	beqz	a0,800048f4 <__udivmoddi4+0x294>
800046f0:	fff68793          	addi	a5,a3,-1
800046f4:	00d7f733          	and	a4,a5,a3
800046f8:	22070c63          	beqz	a4,80004930 <__udivmoddi4+0x2d0>
800046fc:	00068513          	mv	a0,a3
80004700:	28c000ef          	jal	ra,8000498c <__clzsi2>
80004704:	00050493          	mv	s1,a0
80004708:	00098513          	mv	a0,s3
8000470c:	280000ef          	jal	ra,8000498c <__clzsi2>
80004710:	40a48733          	sub	a4,s1,a0
80004714:	01e00793          	li	a5,30
80004718:	16e7ec63          	bltu	a5,a4,80004890 <__udivmoddi4+0x230>
8000471c:	00170713          	addi	a4,a4,1
80004720:	02000e93          	li	t4,32
80004724:	40ee8eb3          	sub	t4,t4,a4
80004728:	01d99633          	sll	a2,s3,t4
8000472c:	00e956b3          	srl	a3,s2,a4
80004730:	00e9d7b3          	srl	a5,s3,a4
80004734:	01d91eb3          	sll	t4,s2,t4
80004738:	00d66433          	or	s0,a2,a3
8000473c:	00000493          	li	s1,0
80004740:	00000313          	li	t1,0
80004744:	01fed693          	srli	a3,t4,0x1f
80004748:	00141813          	slli	a6,s0,0x1
8000474c:	00d86833          	or	a6,a6,a3
80004750:	01f45413          	srli	s0,s0,0x1f
80004754:	00179793          	slli	a5,a5,0x1
80004758:	0087e7b3          	or	a5,a5,s0
8000475c:	410b0e33          	sub	t3,s6,a6
80004760:	01cb36b3          	sltu	a3,s6,t3
80004764:	40fa88b3          	sub	a7,s5,a5
80004768:	40d888b3          	sub	a7,a7,a3
8000476c:	001e3e13          	seqz	t3,t3
80004770:	41c888b3          	sub	a7,a7,t3
80004774:	41f8de13          	srai	t3,a7,0x1f
80004778:	016e7433          	and	s0,t3,s6
8000477c:	40880433          	sub	s0,a6,s0
80004780:	015e7e33          	and	t3,t3,s5
80004784:	01f4d693          	srli	a3,s1,0x1f
80004788:	001e9e93          	slli	t4,t4,0x1
8000478c:	00149493          	slli	s1,s1,0x1
80004790:	00883833          	sltu	a6,a6,s0
80004794:	41c787b3          	sub	a5,a5,t3
80004798:	fff70713          	addi	a4,a4,-1
8000479c:	0064e4b3          	or	s1,s1,t1
800047a0:	00deeeb3          	or	t4,t4,a3
800047a4:	01f8d313          	srli	t1,a7,0x1f
800047a8:	410787b3          	sub	a5,a5,a6
800047ac:	f8071ce3          	bnez	a4,80004744 <__udivmoddi4+0xe4>
800047b0:	01f4d993          	srli	s3,s1,0x1f
800047b4:	001e9e93          	slli	t4,t4,0x1
800047b8:	00149493          	slli	s1,s1,0x1
800047bc:	0064e533          	or	a0,s1,t1
800047c0:	01d9e5b3          	or	a1,s3,t4
800047c4:	ee0a08e3          	beqz	s4,800046b4 <__udivmoddi4+0x54>
800047c8:	008a2023          	sw	s0,0(s4) # a1000000 <_end+0x20e7d000>
800047cc:	00fa2223          	sw	a5,4(s4)
800047d0:	ee5ff06f          	j	800046b4 <__udivmoddi4+0x54>
800047d4:	06068663          	beqz	a3,80004840 <__udivmoddi4+0x1e0>
800047d8:	00068513          	mv	a0,a3
800047dc:	1b0000ef          	jal	ra,8000498c <__clzsi2>
800047e0:	00050493          	mv	s1,a0
800047e4:	00098513          	mv	a0,s3
800047e8:	1a4000ef          	jal	ra,8000498c <__clzsi2>
800047ec:	40a48733          	sub	a4,s1,a0
800047f0:	01f00793          	li	a5,31
800047f4:	08e7ee63          	bltu	a5,a4,80004890 <__udivmoddi4+0x230>
800047f8:	00170713          	addi	a4,a4,1
800047fc:	02000793          	li	a5,32
80004800:	00090e93          	mv	t4,s2
80004804:	14f70863          	beq	a4,a5,80004954 <__udivmoddi4+0x2f4>
80004808:	40e786b3          	sub	a3,a5,a4
8000480c:	00e95633          	srl	a2,s2,a4
80004810:	00d995b3          	sll	a1,s3,a3
80004814:	00e9d7b3          	srl	a5,s3,a4
80004818:	00d91eb3          	sll	t4,s2,a3
8000481c:	00c5e433          	or	s0,a1,a2
80004820:	00000493          	li	s1,0
80004824:	f1dff06f          	j	80004740 <__udivmoddi4+0xe0>
80004828:	06070663          	beqz	a4,80004894 <__udivmoddi4+0x234>
8000482c:	00aa2023          	sw	a0,0(s4)
80004830:	00072223          	sw	zero,4(a4)
80004834:	00000513          	li	a0,0
80004838:	00000593          	li	a1,0
8000483c:	e79ff06f          	j	800046b4 <__udivmoddi4+0x54>
80004840:	fff60793          	addi	a5,a2,-1
80004844:	00c7f733          	and	a4,a5,a2
80004848:	04071c63          	bnez	a4,800048a0 <__udivmoddi4+0x240>
8000484c:	000a0863          	beqz	s4,8000485c <__udivmoddi4+0x1fc>
80004850:	00a7f7b3          	and	a5,a5,a0
80004854:	00fa2023          	sw	a5,0(s4)
80004858:	000a2223          	sw	zero,4(s4)
8000485c:	00100793          	li	a5,1
80004860:	0cfb0263          	beq	s6,a5,80004924 <__udivmoddi4+0x2c4>
80004864:	000b0513          	mv	a0,s6
80004868:	1bc000ef          	jal	ra,80004a24 <__ctzsi2>
8000486c:	02000713          	li	a4,32
80004870:	40a70733          	sub	a4,a4,a0
80004874:	00050793          	mv	a5,a0
80004878:	00e99733          	sll	a4,s3,a4
8000487c:	00a95933          	srl	s2,s2,a0
80004880:	01276533          	or	a0,a4,s2
80004884:	00f9d5b3          	srl	a1,s3,a5
80004888:	e2dff06f          	j	800046b4 <__udivmoddi4+0x54>
8000488c:	00100073          	ebreak
80004890:	080a1063          	bnez	s4,80004910 <__udivmoddi4+0x2b0>
80004894:	00000513          	li	a0,0
80004898:	00000593          	li	a1,0
8000489c:	e19ff06f          	j	800046b4 <__udivmoddi4+0x54>
800048a0:	00060513          	mv	a0,a2
800048a4:	00068493          	mv	s1,a3
800048a8:	0e4000ef          	jal	ra,8000498c <__clzsi2>
800048ac:	00050993          	mv	s3,a0
800048b0:	00040513          	mv	a0,s0
800048b4:	0d8000ef          	jal	ra,8000498c <__clzsi2>
800048b8:	40a98533          	sub	a0,s3,a0
800048bc:	02150713          	addi	a4,a0,33
800048c0:	02000693          	li	a3,32
800048c4:	00090e93          	mv	t4,s2
800048c8:	00000793          	li	a5,0
800048cc:	e6d70ae3          	beq	a4,a3,80004740 <__udivmoddi4+0xe0>
800048d0:	01f00613          	li	a2,31
800048d4:	08e66663          	bltu	a2,a4,80004960 <__udivmoddi4+0x300>
800048d8:	40e686b3          	sub	a3,a3,a4
800048dc:	00e95633          	srl	a2,s2,a4
800048e0:	00d415b3          	sll	a1,s0,a3
800048e4:	00e457b3          	srl	a5,s0,a4
800048e8:	00d91eb3          	sll	t4,s2,a3
800048ec:	00c5e433          	or	s0,a1,a2
800048f0:	e51ff06f          	j	80004740 <__udivmoddi4+0xe0>
800048f4:	00070863          	beqz	a4,80004904 <__udivmoddi4+0x2a4>
800048f8:	02d5f7b3          	remu	a5,a1,a3
800048fc:	00072023          	sw	zero,0(a4)
80004900:	00f72223          	sw	a5,4(a4)
80004904:	0359d533          	divu	a0,s3,s5
80004908:	00000593          	li	a1,0
8000490c:	da9ff06f          	j	800046b4 <__udivmoddi4+0x54>
80004910:	012a2023          	sw	s2,0(s4)
80004914:	013a2223          	sw	s3,4(s4)
80004918:	00000513          	li	a0,0
8000491c:	00000593          	li	a1,0
80004920:	d95ff06f          	j	800046b4 <__udivmoddi4+0x54>
80004924:	00090513          	mv	a0,s2
80004928:	00098593          	mv	a1,s3
8000492c:	d89ff06f          	j	800046b4 <__udivmoddi4+0x54>
80004930:	000a0863          	beqz	s4,80004940 <__udivmoddi4+0x2e0>
80004934:	00b7f7b3          	and	a5,a5,a1
80004938:	00aa2023          	sw	a0,0(s4)
8000493c:	00fa2223          	sw	a5,4(s4)
80004940:	000a8513          	mv	a0,s5
80004944:	0e0000ef          	jal	ra,80004a24 <__ctzsi2>
80004948:	00a9d533          	srl	a0,s3,a0
8000494c:	00000593          	li	a1,0
80004950:	d65ff06f          	j	800046b4 <__udivmoddi4+0x54>
80004954:	00000793          	li	a5,0
80004958:	00000493          	li	s1,0
8000495c:	de5ff06f          	j	80004740 <__udivmoddi4+0xe0>
80004960:	04000693          	li	a3,64
80004964:	40e686b3          	sub	a3,a3,a4
80004968:	00150513          	addi	a0,a0,1
8000496c:	00d914b3          	sll	s1,s2,a3
80004970:	00a95eb3          	srl	t4,s2,a0
80004974:	00d416b3          	sll	a3,s0,a3
80004978:	01d6eeb3          	or	t4,a3,t4
8000497c:	00a45433          	srl	s0,s0,a0
80004980:	dc1ff06f          	j	80004740 <__udivmoddi4+0xe0>

80004984 <__udivdi3>:
80004984:	00000713          	li	a4,0
80004988:	cd9ff06f          	j	80004660 <__udivmoddi4>

8000498c <__clzsi2>:
8000498c:	ffff05b7          	lui	a1,0xffff0
80004990:	00b575b3          	and	a1,a0,a1
80004994:	0015b593          	seqz	a1,a1
80004998:	00459593          	slli	a1,a1,0x4
8000499c:	01000793          	li	a5,16
800049a0:	40b787b3          	sub	a5,a5,a1
800049a4:	00010737          	lui	a4,0x10
800049a8:	00f557b3          	srl	a5,a0,a5
800049ac:	f0070713          	addi	a4,a4,-256 # ff00 <_entry_offset+0xff00>
800049b0:	00e7f733          	and	a4,a5,a4
800049b4:	00173713          	seqz	a4,a4
800049b8:	00371713          	slli	a4,a4,0x3
800049bc:	00800693          	li	a3,8
800049c0:	40e686b3          	sub	a3,a3,a4
800049c4:	00d7d7b3          	srl	a5,a5,a3
800049c8:	0f07f613          	andi	a2,a5,240
800049cc:	00163613          	seqz	a2,a2
800049d0:	00261613          	slli	a2,a2,0x2
800049d4:	00400693          	li	a3,4
800049d8:	40c686b3          	sub	a3,a3,a2
800049dc:	00d7d7b3          	srl	a5,a5,a3
800049e0:	00c7f693          	andi	a3,a5,12
800049e4:	0016b693          	seqz	a3,a3
800049e8:	00169693          	slli	a3,a3,0x1
800049ec:	00200813          	li	a6,2
800049f0:	40d80533          	sub	a0,a6,a3
800049f4:	00a7d7b3          	srl	a5,a5,a0
800049f8:	0017d513          	srli	a0,a5,0x1
800049fc:	00154513          	xori	a0,a0,1
80004a00:	00b70733          	add	a4,a4,a1
80004a04:	00157513          	andi	a0,a0,1
80004a08:	00e60633          	add	a2,a2,a4
80004a0c:	40f80833          	sub	a6,a6,a5
80004a10:	40a00733          	neg	a4,a0
80004a14:	01077733          	and	a4,a4,a6
80004a18:	00c68533          	add	a0,a3,a2
80004a1c:	00a70533          	add	a0,a4,a0
80004a20:	00008067          	ret

80004a24 <__ctzsi2>:
80004a24:	01051593          	slli	a1,a0,0x10
80004a28:	0105d593          	srli	a1,a1,0x10
80004a2c:	0015b593          	seqz	a1,a1
80004a30:	00459593          	slli	a1,a1,0x4
80004a34:	00b557b3          	srl	a5,a0,a1
80004a38:	0ff7f613          	zext.b	a2,a5
80004a3c:	00163613          	seqz	a2,a2
80004a40:	00361613          	slli	a2,a2,0x3
80004a44:	00c7d7b3          	srl	a5,a5,a2
80004a48:	00f7f693          	andi	a3,a5,15
80004a4c:	0016b693          	seqz	a3,a3
80004a50:	00269693          	slli	a3,a3,0x2
80004a54:	00d7d7b3          	srl	a5,a5,a3
80004a58:	0037f713          	andi	a4,a5,3
80004a5c:	00173713          	seqz	a4,a4
80004a60:	00171713          	slli	a4,a4,0x1
80004a64:	00e7d7b3          	srl	a5,a5,a4
80004a68:	0017d513          	srli	a0,a5,0x1
80004a6c:	00b60633          	add	a2,a2,a1
80004a70:	0017f793          	andi	a5,a5,1
80004a74:	00157593          	andi	a1,a0,1
80004a78:	00200513          	li	a0,2
80004a7c:	00c686b3          	add	a3,a3,a2
80004a80:	40b50533          	sub	a0,a0,a1
80004a84:	fff78793          	addi	a5,a5,-1
80004a88:	00f57533          	and	a0,a0,a5
80004a8c:	00d70733          	add	a4,a4,a3
80004a90:	00e50533          	add	a0,a0,a4
80004a94:	00008067          	ret

80004a98 <memcpy>:
80004a98:	02060063          	beqz	a2,80004ab8 <memcpy+0x20>
80004a9c:	00c50633          	add	a2,a0,a2
80004aa0:	00050793          	mv	a5,a0
80004aa4:	0005c703          	lbu	a4,0(a1) # ffff0000 <_end+0x7fe6d000>
80004aa8:	00178793          	addi	a5,a5,1
80004aac:	00158593          	addi	a1,a1,1
80004ab0:	fee78fa3          	sb	a4,-1(a5)
80004ab4:	fec798e3          	bne	a5,a2,80004aa4 <memcpy+0xc>
80004ab8:	00008067          	ret

80004abc <memcmp>:
80004abc:	02060a63          	beqz	a2,80004af0 <memcmp+0x34>
80004ac0:	00c58633          	add	a2,a1,a2
80004ac4:	0140006f          	j	80004ad8 <memcmp+0x1c>
80004ac8:	00150513          	addi	a0,a0,1
80004acc:	00070e63          	beqz	a4,80004ae8 <memcmp+0x2c>
80004ad0:	00f71c63          	bne	a4,a5,80004ae8 <memcmp+0x2c>
80004ad4:	00c58e63          	beq	a1,a2,80004af0 <memcmp+0x34>
80004ad8:	00054783          	lbu	a5,0(a0)
80004adc:	00158593          	addi	a1,a1,1
80004ae0:	fff5c703          	lbu	a4,-1(a1)
80004ae4:	fe0792e3          	bnez	a5,80004ac8 <memcmp+0xc>
80004ae8:	40e78533          	sub	a0,a5,a4
80004aec:	00008067          	ret
80004af0:	00000513          	li	a0,0
80004af4:	00008067          	ret
