
/home/xietianle/ysyx-workbench/am-kernels/kernels/typing-game/build/typing-game-riscv32e-npc.elf:     file format elf32-littleriscv


Disassembly of section .text:

80000000 <_start>:
80000000:	00000413          	li	s0,0
80000004:	00015117          	auipc	sp,0x15
80000008:	ffc10113          	addi	sp,sp,-4 # 80015000 <_end>
8000000c:	0b9000ef          	jal	ra,800008c4 <_trm_init>

80000010 <new_char>:
80000010:	ff010113          	addi	sp,sp,-16
80000014:	00002617          	auipc	a2,0x2
80000018:	16060613          	addi	a2,a2,352 # 80002174 <chars>
8000001c:	00812423          	sw	s0,8(sp)
80000020:	00112623          	sw	ra,12(sp)
80000024:	00912223          	sw	s1,4(sp)
80000028:	00060793          	mv	a5,a2
8000002c:	00000413          	li	s0,0
80000030:	08000693          	li	a3,128
80000034:	00c0006f          	j	80000040 <new_char+0x30>
80000038:	00140413          	addi	s0,s0,1
8000003c:	08d40c63          	beq	s0,a3,800000d4 <new_char+0xc4>
80000040:	0007c703          	lbu	a4,0(a5)
80000044:	01478793          	addi	a5,a5,20
80000048:	fe0718e3          	bnez	a4,80000038 <new_char+0x28>
8000004c:	05d010ef          	jal	ra,800018a8 <rand>
80000050:	00241793          	slli	a5,s0,0x2
80000054:	800004b7          	lui	s1,0x80000
80000058:	fff4c493          	not	s1,s1
8000005c:	008787b3          	add	a5,a5,s0
80000060:	00279793          	slli	a5,a5,0x2
80000064:	00002617          	auipc	a2,0x2
80000068:	11060613          	addi	a2,a2,272 # 80002174 <chars>
8000006c:	01a00593          	li	a1,26
80000070:	00957533          	and	a0,a0,s1
80000074:	00f60433          	add	s0,a2,a5
80000078:	251000ef          	jal	ra,80000ac8 <__modsi3>
8000007c:	04150513          	addi	a0,a0,65
80000080:	0000d597          	auipc	a1,0xd
80000084:	b045a583          	lw	a1,-1276(a1) # 8000cb84 <screen_w>
80000088:	00a40023          	sb	a0,0(s0)
8000008c:	00b12023          	sw	a1,0(sp)
80000090:	019010ef          	jal	ra,800018a8 <rand>
80000094:	00012583          	lw	a1,0(sp)
80000098:	00957533          	and	a0,a0,s1
8000009c:	ff958593          	addi	a1,a1,-7
800000a0:	229000ef          	jal	ra,80000ac8 <__modsi3>
800000a4:	00a42223          	sw	a0,4(s0)
800000a8:	00042423          	sw	zero,8(s0)
800000ac:	0000d497          	auipc	s1,0xd
800000b0:	ad44a483          	lw	s1,-1324(s1) # 8000cb80 <screen_h>
800000b4:	7f4010ef          	jal	ra,800018a8 <rand>
800000b8:	00f57593          	andi	a1,a0,15
800000bc:	ff148493          	addi	s1,s1,-15
800000c0:	02d58593          	addi	a1,a1,45
800000c4:	00048513          	mv	a0,s1
800000c8:	17d000ef          	jal	ra,80000a44 <__divsi3>
800000cc:	00a42623          	sw	a0,12(s0)
800000d0:	00042823          	sw	zero,16(s0)
800000d4:	00c12083          	lw	ra,12(sp)
800000d8:	00812403          	lw	s0,8(sp)
800000dc:	00412483          	lw	s1,4(sp)
800000e0:	01010113          	addi	sp,sp,16
800000e4:	00008067          	ret

800000e8 <game_logic_update>:
800000e8:	ff410113          	addi	sp,sp,-12
800000ec:	00600593          	li	a1,6
800000f0:	00112423          	sw	ra,8(sp)
800000f4:	00812223          	sw	s0,4(sp)
800000f8:	1d1000ef          	jal	ra,80000ac8 <__modsi3>
800000fc:	0a050c63          	beqz	a0,800001b4 <game_logic_update+0xcc>
80000100:	0000d397          	auipc	t2,0xd
80000104:	a7838393          	addi	t2,t2,-1416 # 8000cb78 <miss>
80000108:	0000d617          	auipc	a2,0xd
8000010c:	a7862603          	lw	a2,-1416(a2) # 8000cb80 <screen_h>
80000110:	0003a583          	lw	a1,0(t2)
80000114:	ff060293          	addi	t0,a2,-16
80000118:	00002797          	auipc	a5,0x2
8000011c:	05c78793          	addi	a5,a5,92 # 80002174 <chars>
80000120:	00003697          	auipc	a3,0x3
80000124:	a5468693          	addi	a3,a3,-1452 # 80002b74 <texture>
80000128:	00000513          	li	a0,0
8000012c:	01e00313          	li	t1,30
80000130:	0180006f          	j	80000148 <game_logic_update+0x60>
80000134:	0087a823          	sw	s0,16(a5)
80000138:	00041463          	bnez	s0,80000140 <game_logic_update+0x58>
8000013c:	00078023          	sb	zero,0(a5)
80000140:	01478793          	addi	a5,a5,20
80000144:	04d78863          	beq	a5,a3,80000194 <game_logic_update+0xac>
80000148:	0007c703          	lbu	a4,0(a5)
8000014c:	fe070ae3          	beqz	a4,80000140 <game_logic_update+0x58>
80000150:	0107a703          	lw	a4,16(a5)
80000154:	fff70413          	addi	s0,a4,-1
80000158:	fce04ee3          	bgtz	a4,80000134 <game_logic_update+0x4c>
8000015c:	0087a703          	lw	a4,8(a5)
80000160:	00c7a403          	lw	s0,12(a5)
80000164:	00870733          	add	a4,a4,s0
80000168:	00e7a423          	sw	a4,8(a5)
8000016c:	01070413          	addi	s0,a4,16
80000170:	02074e63          	bltz	a4,800001ac <game_logic_update+0xc4>
80000174:	fcc446e3          	blt	s0,a2,80000140 <game_logic_update+0x58>
80000178:	0007a623          	sw	zero,12(a5)
8000017c:	0057a423          	sw	t0,8(a5)
80000180:	0067a823          	sw	t1,16(a5)
80000184:	01478793          	addi	a5,a5,20
80000188:	00158593          	addi	a1,a1,1
8000018c:	00100513          	li	a0,1
80000190:	fad79ce3          	bne	a5,a3,80000148 <game_logic_update+0x60>
80000194:	00050463          	beqz	a0,8000019c <game_logic_update+0xb4>
80000198:	00b3a023          	sw	a1,0(t2)
8000019c:	00812083          	lw	ra,8(sp)
800001a0:	00412403          	lw	s0,4(sp)
800001a4:	00c10113          	addi	sp,sp,12
800001a8:	00008067          	ret
800001ac:	00078023          	sb	zero,0(a5)
800001b0:	fc5ff06f          	j	80000174 <game_logic_update+0x8c>
800001b4:	e5dff0ef          	jal	ra,80000010 <new_char>
800001b8:	f49ff06f          	j	80000100 <game_logic_update+0x18>

800001bc <render>:
800001bc:	0000d397          	auipc	t2,0xd
800001c0:	9c038393          	addi	t2,t2,-1600 # 8000cb7c <n.0>
800001c4:	0003a783          	lw	a5,0(t2)
800001c8:	fd410113          	addi	sp,sp,-44
800001cc:	02112423          	sw	ra,40(sp)
800001d0:	02812223          	sw	s0,36(sp)
800001d4:	02912023          	sw	s1,32(sp)
800001d8:	1cf05663          	blez	a5,800003a4 <render+0x1e8>
800001dc:	00810493          	addi	s1,sp,8
800001e0:	0000c697          	auipc	a3,0xc
800001e4:	59468693          	addi	a3,a3,1428 # 8000c774 <x.2>
800001e8:	00048593          	mv	a1,s1
800001ec:	0000c717          	auipc	a4,0xc
800001f0:	78870713          	addi	a4,a4,1928 # 8000c974 <y.1>
800001f4:	00000413          	li	s0,0
800001f8:	00068493          	mv	s1,a3
800001fc:	00072783          	lw	a5,0(a4)
80000200:	0004a683          	lw	a3,0(s1)
80000204:	00b00513          	li	a0,11
80000208:	00f12623          	sw	a5,12(sp)
8000020c:	00002797          	auipc	a5,0x2
80000210:	d6878793          	addi	a5,a5,-664 # 80001f74 <blank>
80000214:	00f12823          	sw	a5,16(sp)
80000218:	00800793          	li	a5,8
8000021c:	00f12a23          	sw	a5,20(sp)
80000220:	01000793          	li	a5,16
80000224:	00e12223          	sw	a4,4(sp)
80000228:	00b12023          	sw	a1,0(sp)
8000022c:	00f12c23          	sw	a5,24(sp)
80000230:	00d12423          	sw	a3,8(sp)
80000234:	00010e23          	sb	zero,28(sp)
80000238:	7a8000ef          	jal	ra,800009e0 <ioe_write>
8000023c:	0000d397          	auipc	t2,0xd
80000240:	94038393          	addi	t2,t2,-1728 # 8000cb7c <n.0>
80000244:	00412703          	lw	a4,4(sp)
80000248:	0003a783          	lw	a5,0(t2)
8000024c:	00140413          	addi	s0,s0,1
80000250:	00012583          	lw	a1,0(sp)
80000254:	00448493          	addi	s1,s1,4
80000258:	00470713          	addi	a4,a4,4
8000025c:	faf440e3          	blt	s0,a5,800001fc <render+0x40>
80000260:	00058493          	mv	s1,a1
80000264:	0000d797          	auipc	a5,0xd
80000268:	9007ac23          	sw	zero,-1768(a5) # 8000cb7c <n.0>
8000026c:	00002417          	auipc	s0,0x2
80000270:	f0840413          	addi	s0,s0,-248 # 80002174 <chars>
80000274:	00044703          	lbu	a4,0(s0)
80000278:	00048593          	mv	a1,s1
8000027c:	00b00513          	li	a0,11
80000280:	fbf70793          	addi	a5,a4,-65
80000284:	0a070063          	beqz	a4,80000324 <render+0x168>
80000288:	0003a703          	lw	a4,0(t2)
8000028c:	0000c697          	auipc	a3,0xc
80000290:	4e868693          	addi	a3,a3,1256 # 8000c774 <x.2>
80000294:	0000c097          	auipc	ra,0xc
80000298:	6e008093          	addi	ra,ra,1760 # 8000c974 <y.1>
8000029c:	00271713          	slli	a4,a4,0x2
800002a0:	00442303          	lw	t1,4(s0)
800002a4:	00e682b3          	add	t0,a3,a4
800002a8:	00e08733          	add	a4,ra,a4
800002ac:	0003a083          	lw	ra,0(t2)
800002b0:	00842603          	lw	a2,8(s0)
800002b4:	00c42683          	lw	a3,12(s0)
800002b8:	0062a023          	sw	t1,0(t0)
800002bc:	00c42283          	lw	t0,12(s0)
800002c0:	00108093          	addi	ra,ra,1
800002c4:	00d036b3          	snez	a3,a3
800002c8:	00c72023          	sw	a2,0(a4)
800002cc:	0013a023          	sw	ra,0(t2)
800002d0:	40d006b3          	neg	a3,a3
800002d4:	00000713          	li	a4,0
800002d8:	00504663          	bgtz	t0,800002e4 <render+0x128>
800002dc:	01a6f713          	andi	a4,a3,26
800002e0:	01a70713          	addi	a4,a4,26
800002e4:	00e787b3          	add	a5,a5,a4
800002e8:	00979793          	slli	a5,a5,0x9
800002ec:	00003717          	auipc	a4,0x3
800002f0:	88870713          	addi	a4,a4,-1912 # 80002b74 <texture>
800002f4:	00e787b3          	add	a5,a5,a4
800002f8:	00f12823          	sw	a5,16(sp)
800002fc:	00800793          	li	a5,8
80000300:	00f12a23          	sw	a5,20(sp)
80000304:	01000793          	li	a5,16
80000308:	00612423          	sw	t1,8(sp)
8000030c:	00c12623          	sw	a2,12(sp)
80000310:	00f12c23          	sw	a5,24(sp)
80000314:	00010e23          	sb	zero,28(sp)
80000318:	6c8000ef          	jal	ra,800009e0 <ioe_write>
8000031c:	0000d397          	auipc	t2,0xd
80000320:	86038393          	addi	t2,t2,-1952 # 8000cb7c <n.0>
80000324:	01440413          	addi	s0,s0,20
80000328:	00003797          	auipc	a5,0x3
8000032c:	84c78793          	addi	a5,a5,-1972 # 80002b74 <texture>
80000330:	f4f412e3          	bne	s0,a5,80000274 <render+0xb8>
80000334:	00100793          	li	a5,1
80000338:	00048593          	mv	a1,s1
8000033c:	00b00513          	li	a0,11
80000340:	00012423          	sw	zero,8(sp)
80000344:	00012623          	sw	zero,12(sp)
80000348:	00012823          	sw	zero,16(sp)
8000034c:	00012a23          	sw	zero,20(sp)
80000350:	00012c23          	sw	zero,24(sp)
80000354:	00f10e23          	sb	a5,28(sp)
80000358:	02800413          	li	s0,40
8000035c:	684000ef          	jal	ra,800009e0 <ioe_write>
80000360:	fff40413          	addi	s0,s0,-1
80000364:	00800513          	li	a0,8
80000368:	544000ef          	jal	ra,800008ac <putch>
8000036c:	fe041ae3          	bnez	s0,80000360 <render+0x1a4>
80000370:	02412403          	lw	s0,36(sp)
80000374:	02812083          	lw	ra,40(sp)
80000378:	02012483          	lw	s1,32(sp)
8000037c:	0000d697          	auipc	a3,0xd
80000380:	80c6a683          	lw	a3,-2036(a3) # 8000cb88 <wrong>
80000384:	0000c617          	auipc	a2,0xc
80000388:	7f462603          	lw	a2,2036(a2) # 8000cb78 <miss>
8000038c:	0000c597          	auipc	a1,0xc
80000390:	7e85a583          	lw	a1,2024(a1) # 8000cb74 <hit>
80000394:	00001517          	auipc	a0,0x1
80000398:	57450513          	addi	a0,a0,1396 # 80001908 <_etext>
8000039c:	02c10113          	addi	sp,sp,44
800003a0:	7580006f          	j	80000af8 <printf>
800003a4:	00810493          	addi	s1,sp,8
800003a8:	ebdff06f          	j	80000264 <render+0xa8>

800003ac <check_hit>:
800003ac:	00002317          	auipc	t1,0x2
800003b0:	dc830313          	addi	t1,t1,-568 # 80002174 <chars>
800003b4:	00030793          	mv	a5,t1
800003b8:	00000713          	li	a4,0
800003bc:	fff00593          	li	a1,-1
800003c0:	fff00293          	li	t0,-1
800003c4:	08000613          	li	a2,128
800003c8:	0100006f          	j	800003d8 <check_hit+0x2c>
800003cc:	00170713          	addi	a4,a4,1
800003d0:	01478793          	addi	a5,a5,20
800003d4:	04c70263          	beq	a4,a2,80000418 <check_hit+0x6c>
800003d8:	0007c683          	lbu	a3,0(a5)
800003dc:	fea698e3          	bne	a3,a0,800003cc <check_hit+0x20>
800003e0:	00c7a683          	lw	a3,12(a5)
800003e4:	fed054e3          	blez	a3,800003cc <check_hit+0x20>
800003e8:	00259693          	slli	a3,a1,0x2
800003ec:	00b686b3          	add	a3,a3,a1
800003f0:	00269693          	slli	a3,a3,0x2
800003f4:	00d306b3          	add	a3,t1,a3
800003f8:	00558863          	beq	a1,t0,80000408 <check_hit+0x5c>
800003fc:	0087a383          	lw	t2,8(a5)
80000400:	0086a683          	lw	a3,8(a3)
80000404:	fc76d4e3          	bge	a3,t2,800003cc <check_hit+0x20>
80000408:	00070593          	mv	a1,a4
8000040c:	00170713          	addi	a4,a4,1
80000410:	01478793          	addi	a5,a5,20
80000414:	fcc712e3          	bne	a4,a2,800003d8 <check_hit+0x2c>
80000418:	fff00793          	li	a5,-1
8000041c:	06f58063          	beq	a1,a5,8000047c <check_hit+0xd0>
80000420:	0000c697          	auipc	a3,0xc
80000424:	75468693          	addi	a3,a3,1876 # 8000cb74 <hit>
80000428:	0006a703          	lw	a4,0(a3)
8000042c:	ff410113          	addi	sp,sp,-12
80000430:	00259793          	slli	a5,a1,0x2
80000434:	00812223          	sw	s0,4(sp)
80000438:	00112423          	sw	ra,8(sp)
8000043c:	0000c617          	auipc	a2,0xc
80000440:	74462603          	lw	a2,1860(a2) # 8000cb80 <screen_h>
80000444:	00b787b3          	add	a5,a5,a1
80000448:	00170713          	addi	a4,a4,1
8000044c:	00f00513          	li	a0,15
80000450:	00279793          	slli	a5,a5,0x2
80000454:	01e00593          	li	a1,30
80000458:	40c50533          	sub	a0,a0,a2
8000045c:	00e6a023          	sw	a4,0(a3)
80000460:	00f30433          	add	s0,t1,a5
80000464:	5e0000ef          	jal	ra,80000a44 <__divsi3>
80000468:	00812083          	lw	ra,8(sp)
8000046c:	00a42623          	sw	a0,12(s0)
80000470:	00412403          	lw	s0,4(sp)
80000474:	00c10113          	addi	sp,sp,12
80000478:	00008067          	ret
8000047c:	0000c717          	auipc	a4,0xc
80000480:	70c70713          	addi	a4,a4,1804 # 8000cb88 <wrong>
80000484:	00072783          	lw	a5,0(a4)
80000488:	00178793          	addi	a5,a5,1
8000048c:	00f72023          	sw	a5,0(a4)
80000490:	00008067          	ret

80000494 <video_init>:
80000494:	fc010113          	addi	sp,sp,-64
80000498:	02112e23          	sw	ra,60(sp)
8000049c:	02812c23          	sw	s0,56(sp)
800004a0:	02912a23          	sw	s1,52(sp)
800004a4:	04010413          	addi	s0,sp,64
800004a8:	fdc40593          	addi	a1,s0,-36
800004ac:	00900513          	li	a0,9
800004b0:	514000ef          	jal	ra,800009c4 <ioe_read>
800004b4:	fe042783          	lw	a5,-32(s0)
800004b8:	fdc40593          	addi	a1,s0,-36
800004bc:	0000c497          	auipc	s1,0xc
800004c0:	6c848493          	addi	s1,s1,1736 # 8000cb84 <screen_w>
800004c4:	00900513          	li	a0,9
800004c8:	00f4a023          	sw	a5,0(s1)
800004cc:	4f8000ef          	jal	ra,800009c4 <ioe_read>
800004d0:	fe442583          	lw	a1,-28(s0)
800004d4:	0000c617          	auipc	a2,0xc
800004d8:	6ac60613          	addi	a2,a2,1708 # 8000cb80 <screen_h>
800004dc:	002a1737          	lui	a4,0x2a1
800004e0:	00b62023          	sw	a1,0(a2)
800004e4:	00002797          	auipc	a5,0x2
800004e8:	a9078793          	addi	a5,a5,-1392 # 80001f74 <blank>
800004ec:	00002697          	auipc	a3,0x2
800004f0:	c8868693          	addi	a3,a3,-888 # 80002174 <chars>
800004f4:	a2970713          	addi	a4,a4,-1495 # 2a0a29 <_entry_offset+0x2a0a29>
800004f8:	00e7a023          	sw	a4,0(a5)
800004fc:	00478793          	addi	a5,a5,4
80000500:	fed79ce3          	bne	a5,a3,800004f8 <video_init+0x64>
80000504:	0004a703          	lw	a4,0(s1)
80000508:	002a1537          	lui	a0,0x2a1
8000050c:	00000693          	li	a3,0
80000510:	00271793          	slli	a5,a4,0x2
80000514:	40f10133          	sub	sp,sp,a5
80000518:	00010313          	mv	t1,sp
8000051c:	00030793          	mv	a5,t1
80000520:	a2950513          	addi	a0,a0,-1495 # 2a0a29 <_entry_offset+0x2a0a29>
80000524:	00e05a63          	blez	a4,80000538 <video_init+0xa4>
80000528:	00a7a023          	sw	a0,0(a5)
8000052c:	00168693          	addi	a3,a3,1
80000530:	00478793          	addi	a5,a5,4
80000534:	fed71ae3          	bne	a4,a3,80000528 <video_init+0x94>
80000538:	00000793          	li	a5,0
8000053c:	00b04863          	bgtz	a1,8000054c <video_init+0xb8>
80000540:	0540006f          	j	80000594 <video_init+0x100>
80000544:	0004a703          	lw	a4,0(s1)
80000548:	fd442303          	lw	t1,-44(s0)
8000054c:	fef42023          	sw	a5,-32(s0)
80000550:	fcf42c23          	sw	a5,-40(s0)
80000554:	fdc40593          	addi	a1,s0,-36
80000558:	00100793          	li	a5,1
8000055c:	00b00513          	li	a0,11
80000560:	fee42423          	sw	a4,-24(s0)
80000564:	fef42623          	sw	a5,-20(s0)
80000568:	fc042e23          	sw	zero,-36(s0)
8000056c:	fe642223          	sw	t1,-28(s0)
80000570:	fc642a23          	sw	t1,-44(s0)
80000574:	fe040823          	sb	zero,-16(s0)
80000578:	468000ef          	jal	ra,800009e0 <ioe_write>
8000057c:	fd842783          	lw	a5,-40(s0)
80000580:	0000c617          	auipc	a2,0xc
80000584:	60060613          	addi	a2,a2,1536 # 8000cb80 <screen_h>
80000588:	00062703          	lw	a4,0(a2)
8000058c:	00178793          	addi	a5,a5,1
80000590:	fae7cae3          	blt	a5,a4,80000544 <video_init+0xb0>
80000594:	00002797          	auipc	a5,0x2
80000598:	83c78793          	addi	a5,a5,-1988 # 80001dd0 <font>
8000059c:	fcf42423          	sw	a5,-56(s0)
800005a0:	00002797          	auipc	a5,0x2
800005a4:	5d478793          	addi	a5,a5,1492 # 80002b74 <texture>
800005a8:	fcf42223          	sw	a5,-60(s0)
800005ac:	002a17b7          	lui	a5,0x2a1
800005b0:	a2978493          	addi	s1,a5,-1495 # 2a0a29 <_entry_offset+0x2a0a29>
800005b4:	00eef7b7          	lui	a5,0xeef
800005b8:	eee78793          	addi	a5,a5,-274 # eeeeee <_entry_offset+0xeeeeee>
800005bc:	fcf42c23          	sw	a5,-40(s0)
800005c0:	000077b7          	lui	a5,0x7
800005c4:	fc042023          	sw	zero,-64(s0)
800005c8:	80078393          	addi	t2,a5,-2048 # 6800 <_entry_offset+0x6800>
800005cc:	fc442783          	lw	a5,-60(s0)
800005d0:	fc042623          	sw	zero,-52(s0)
800005d4:	fcf42a23          	sw	a5,-44(s0)
800005d8:	fc842783          	lw	a5,-56(s0)
800005dc:	fcf42823          	sw	a5,-48(s0)
800005e0:	fd042783          	lw	a5,-48(s0)
800005e4:	0000d2b7          	lui	t0,0xd
800005e8:	00700713          	li	a4,7
800005ec:	0007c303          	lbu	t1,0(a5)
800005f0:	c3328293          	addi	t0,t0,-973 # cc33 <_entry_offset+0xcc33>
800005f4:	fd442783          	lw	a5,-44(s0)
800005f8:	03c0006f          	j	80000634 <video_init+0x1a0>
800005fc:	fd842683          	lw	a3,-40(s0)
80000600:	00ff0637          	lui	a2,0xff0
80000604:	00028513          	mv	a0,t0
80000608:	03360613          	addi	a2,a2,51 # ff0033 <_entry_offset+0xff0033>
8000060c:	00d7a023          	sw	a3,0(a5)
80000610:	007785b3          	add	a1,a5,t2
80000614:	000036b7          	lui	a3,0x3
80000618:	00d786b3          	add	a3,a5,a3
8000061c:	00a5a023          	sw	a0,0(a1)
80000620:	40c6a023          	sw	a2,1024(a3) # 3400 <_entry_offset+0x3400>
80000624:	fff70713          	addi	a4,a4,-1
80000628:	fff00693          	li	a3,-1
8000062c:	00478793          	addi	a5,a5,4
80000630:	02d70063          	beq	a4,a3,80000650 <video_init+0x1bc>
80000634:	40e356b3          	sra	a3,t1,a4
80000638:	0016f693          	andi	a3,a3,1
8000063c:	fc0690e3          	bnez	a3,800005fc <video_init+0x168>
80000640:	00048693          	mv	a3,s1
80000644:	00048513          	mv	a0,s1
80000648:	00048613          	mv	a2,s1
8000064c:	fc1ff06f          	j	8000060c <video_init+0x178>
80000650:	fd042683          	lw	a3,-48(s0)
80000654:	fcc42783          	lw	a5,-52(s0)
80000658:	00168693          	addi	a3,a3,1
8000065c:	fcd42823          	sw	a3,-48(s0)
80000660:	fd442683          	lw	a3,-44(s0)
80000664:	00878713          	addi	a4,a5,8
80000668:	fce42623          	sw	a4,-52(s0)
8000066c:	02068693          	addi	a3,a3,32
80000670:	08000793          	li	a5,128
80000674:	fcd42a23          	sw	a3,-44(s0)
80000678:	f6f714e3          	bne	a4,a5,800005e0 <video_init+0x14c>
8000067c:	fc842683          	lw	a3,-56(s0)
80000680:	fc042783          	lw	a5,-64(s0)
80000684:	01068693          	addi	a3,a3,16
80000688:	fcd42423          	sw	a3,-56(s0)
8000068c:	fc442683          	lw	a3,-60(s0)
80000690:	08078713          	addi	a4,a5,128
80000694:	000017b7          	lui	a5,0x1
80000698:	20068693          	addi	a3,a3,512
8000069c:	fce42023          	sw	a4,-64(s0)
800006a0:	d0078793          	addi	a5,a5,-768 # d00 <_entry_offset+0xd00>
800006a4:	fcd42223          	sw	a3,-60(s0)
800006a8:	f2f712e3          	bne	a4,a5,800005cc <video_init+0x138>
800006ac:	fc040113          	addi	sp,s0,-64
800006b0:	03c12083          	lw	ra,60(sp)
800006b4:	03812403          	lw	s0,56(sp)
800006b8:	03412483          	lw	s1,52(sp)
800006bc:	04010113          	addi	sp,sp,64
800006c0:	00008067          	ret

800006c4 <main>:
800006c4:	fd010113          	addi	sp,sp,-48
800006c8:	01f10793          	addi	a5,sp,31
800006cc:	ff87f793          	andi	a5,a5,-8
800006d0:	00f12023          	sw	a5,0(sp)
800006d4:	02112623          	sw	ra,44(sp)
800006d8:	02812423          	sw	s0,40(sp)
800006dc:	02912223          	sw	s1,36(sp)
800006e0:	290000ef          	jal	ra,80000970 <ioe_init>
800006e4:	db1ff0ef          	jal	ra,80000494 <video_init>
800006e8:	01010593          	addi	a1,sp,16
800006ec:	00400513          	li	a0,4
800006f0:	2d4000ef          	jal	ra,800009c4 <ioe_read>
800006f4:	01014783          	lbu	a5,16(sp)
800006f8:	06079063          	bnez	a5,80000758 <main+0x94>
800006fc:	00001417          	auipc	s0,0x1
80000700:	22c40413          	addi	s0,s0,556 # 80001928 <_etext+0x20>
80000704:	04100513          	li	a0,65
80000708:	00140413          	addi	s0,s0,1
8000070c:	1a0000ef          	jal	ra,800008ac <putch>
80000710:	00044503          	lbu	a0,0(s0)
80000714:	fe051ae3          	bnez	a0,80000708 <main+0x44>
80000718:	00001417          	auipc	s0,0x1
8000071c:	21c40413          	addi	s0,s0,540 # 80001934 <_etext+0x2c>
80000720:	07200513          	li	a0,114
80000724:	00140413          	addi	s0,s0,1
80000728:	184000ef          	jal	ra,800008ac <putch>
8000072c:	00044503          	lbu	a0,0(s0)
80000730:	fe051ae3          	bnez	a0,80000724 <main+0x60>
80000734:	00001417          	auipc	s0,0x1
80000738:	21040413          	addi	s0,s0,528 # 80001944 <_etext+0x3c>
8000073c:	02000513          	li	a0,32
80000740:	00140413          	addi	s0,s0,1
80000744:	168000ef          	jal	ra,800008ac <putch>
80000748:	00044503          	lbu	a0,0(s0)
8000074c:	fe051ae3          	bnez	a0,80000740 <main+0x7c>
80000750:	00100513          	li	a0,1
80000754:	164000ef          	jal	ra,800008b8 <halt>
80000758:	01010593          	addi	a1,sp,16
8000075c:	00700513          	li	a0,7
80000760:	264000ef          	jal	ra,800009c4 <ioe_read>
80000764:	01014783          	lbu	a5,16(sp)
80000768:	04079e63          	bnez	a5,800007c4 <main+0x100>
8000076c:	00001417          	auipc	s0,0x1
80000770:	1bc40413          	addi	s0,s0,444 # 80001928 <_etext+0x20>
80000774:	04100513          	li	a0,65
80000778:	00140413          	addi	s0,s0,1
8000077c:	130000ef          	jal	ra,800008ac <putch>
80000780:	00044503          	lbu	a0,0(s0)
80000784:	fe051ae3          	bnez	a0,80000778 <main+0xb4>
80000788:	00001417          	auipc	s0,0x1
8000078c:	20c40413          	addi	s0,s0,524 # 80001994 <_etext+0x8c>
80000790:	07200513          	li	a0,114
80000794:	00140413          	addi	s0,s0,1
80000798:	114000ef          	jal	ra,800008ac <putch>
8000079c:	00044503          	lbu	a0,0(s0)
800007a0:	fe051ae3          	bnez	a0,80000794 <main+0xd0>
800007a4:	00001417          	auipc	s0,0x1
800007a8:	20440413          	addi	s0,s0,516 # 800019a8 <_etext+0xa0>
800007ac:	02000513          	li	a0,32
800007b0:	00140413          	addi	s0,s0,1
800007b4:	0f8000ef          	jal	ra,800008ac <putch>
800007b8:	00044503          	lbu	a0,0(s0)
800007bc:	fe051ae3          	bnez	a0,800007b0 <main+0xec>
800007c0:	f91ff06f          	j	80000750 <main+0x8c>
800007c4:	00001517          	auipc	a0,0x1
800007c8:	23450513          	addi	a0,a0,564 # 800019f8 <_etext+0xf0>
800007cc:	32c000ef          	jal	ra,80000af8 <printf>
800007d0:	00012403          	lw	s0,0(sp)
800007d4:	00600513          	li	a0,6
800007d8:	00040593          	mv	a1,s0
800007dc:	1e8000ef          	jal	ra,800009c4 <ioe_read>
800007e0:	00042703          	lw	a4,0(s0)
800007e4:	00442783          	lw	a5,4(s0)
800007e8:	00012623          	sw	zero,12(sp)
800007ec:	00e12223          	sw	a4,4(sp)
800007f0:	00f12423          	sw	a5,8(sp)
800007f4:	00000413          	li	s0,0
800007f8:	00012483          	lw	s1,0(sp)
800007fc:	00600513          	li	a0,6
80000800:	00048593          	mv	a1,s1
80000804:	1c0000ef          	jal	ra,800009c4 <ioe_read>
80000808:	0004a783          	lw	a5,0(s1)
8000080c:	00412703          	lw	a4,4(sp)
80000810:	0044a583          	lw	a1,4(s1)
80000814:	00008637          	lui	a2,0x8
80000818:	40e78533          	sub	a0,a5,a4
8000081c:	00812703          	lw	a4,8(sp)
80000820:	00a7b7b3          	sltu	a5,a5,a0
80000824:	23560613          	addi	a2,a2,565 # 8235 <_entry_offset+0x8235>
80000828:	40e585b3          	sub	a1,a1,a4
8000082c:	00000693          	li	a3,0
80000830:	40f585b3          	sub	a1,a1,a5
80000834:	761000ef          	jal	ra,80001794 <__udivdi3>
80000838:	00050493          	mv	s1,a0
8000083c:	00a45a63          	bge	s0,a0,80000850 <main+0x18c>
80000840:	00040513          	mv	a0,s0
80000844:	00140413          	addi	s0,s0,1
80000848:	8a1ff0ef          	jal	ra,800000e8 <game_logic_update>
8000084c:	fe849ae3          	bne	s1,s0,80000840 <main+0x17c>
80000850:	01010593          	addi	a1,sp,16
80000854:	00800513          	li	a0,8
80000858:	16c000ef          	jal	ra,800009c4 <ioe_read>
8000085c:	01412783          	lw	a5,20(sp)
80000860:	01014703          	lbu	a4,16(sp)
80000864:	02078663          	beqz	a5,80000890 <main+0x1cc>
80000868:	fe0704e3          	beqz	a4,80000850 <main+0x18c>
8000086c:	00100713          	li	a4,1
80000870:	02e78a63          	beq	a5,a4,800008a4 <main+0x1e0>
80000874:	00001717          	auipc	a4,0x1
80000878:	25c70713          	addi	a4,a4,604 # 80001ad0 <lut>
8000087c:	00f707b3          	add	a5,a4,a5
80000880:	0007c503          	lbu	a0,0(a5)
80000884:	fc0506e3          	beqz	a0,80000850 <main+0x18c>
80000888:	b25ff0ef          	jal	ra,800003ac <check_hit>
8000088c:	fc5ff06f          	j	80000850 <main+0x18c>
80000890:	00c12783          	lw	a5,12(sp)
80000894:	f687d2e3          	bge	a5,s0,800007f8 <main+0x134>
80000898:	925ff0ef          	jal	ra,800001bc <render>
8000089c:	00812623          	sw	s0,12(sp)
800008a0:	f59ff06f          	j	800007f8 <main+0x134>
800008a4:	00000513          	li	a0,0
800008a8:	010000ef          	jal	ra,800008b8 <halt>

800008ac <putch>:
800008ac:	a00007b7          	lui	a5,0xa0000
800008b0:	3ea78c23          	sb	a0,1016(a5) # a00003f8 <_end+0x1ffeb3f8>
800008b4:	00008067          	ret

800008b8 <halt>:
800008b8:	00050513          	mv	a0,a0
800008bc:	00100073          	ebreak
800008c0:	0000006f          	j	800008c0 <halt+0x8>

800008c4 <_trm_init>:
800008c4:	ff410113          	addi	sp,sp,-12
800008c8:	00001517          	auipc	a0,0x1
800008cc:	20450513          	addi	a0,a0,516 # 80001acc <mainargs>
800008d0:	00112423          	sw	ra,8(sp)
800008d4:	df1ff0ef          	jal	ra,800006c4 <main>
800008d8:	00050513          	mv	a0,a0
800008dc:	00100073          	ebreak
800008e0:	0000006f          	j	800008e0 <_trm_init+0x1c>

800008e4 <__am_timer_config>:
800008e4:	00100793          	li	a5,1
800008e8:	00f50023          	sb	a5,0(a0)
800008ec:	00f500a3          	sb	a5,1(a0)
800008f0:	00008067          	ret

800008f4 <__am_input_config>:
800008f4:	00100793          	li	a5,1
800008f8:	00f50023          	sb	a5,0(a0)
800008fc:	00008067          	ret

80000900 <__am_uart_config>:
80000900:	00050023          	sb	zero,0(a0)
80000904:	00008067          	ret

80000908 <fail>:
80000908:	ff410113          	addi	sp,sp,-12
8000090c:	00812223          	sw	s0,4(sp)
80000910:	00112423          	sw	ra,8(sp)
80000914:	00001417          	auipc	s0,0x1
80000918:	01440413          	addi	s0,s0,20 # 80001928 <_etext+0x20>
8000091c:	04100513          	li	a0,65
80000920:	00140413          	addi	s0,s0,1
80000924:	f89ff0ef          	jal	ra,800008ac <putch>
80000928:	00044503          	lbu	a0,0(s0)
8000092c:	fe051ae3          	bnez	a0,80000920 <fail+0x18>
80000930:	00001417          	auipc	s0,0x1
80000934:	0dc40413          	addi	s0,s0,220 # 80001a0c <_etext+0x104>
80000938:	06100513          	li	a0,97
8000093c:	00140413          	addi	s0,s0,1
80000940:	f6dff0ef          	jal	ra,800008ac <putch>
80000944:	00044503          	lbu	a0,0(s0)
80000948:	fe051ae3          	bnez	a0,8000093c <fail+0x34>
8000094c:	00001417          	auipc	s0,0x1
80000950:	0dc40413          	addi	s0,s0,220 # 80001a28 <_etext+0x120>
80000954:	02000513          	li	a0,32
80000958:	00140413          	addi	s0,s0,1
8000095c:	f51ff0ef          	jal	ra,800008ac <putch>
80000960:	00044503          	lbu	a0,0(s0)
80000964:	fe051ae3          	bnez	a0,80000958 <fail+0x50>
80000968:	00100513          	li	a0,1
8000096c:	f4dff0ef          	jal	ra,800008b8 <halt>

80000970 <ioe_init>:
80000970:	ff410113          	addi	sp,sp,-12
80000974:	00112423          	sw	ra,8(sp)
80000978:	00001797          	auipc	a5,0x1
8000097c:	25878793          	addi	a5,a5,600 # 80001bd0 <lut>
80000980:	00001697          	auipc	a3,0x1
80000984:	45068693          	addi	a3,a3,1104 # 80001dd0 <font>
80000988:	00000617          	auipc	a2,0x0
8000098c:	f8060613          	addi	a2,a2,-128 # 80000908 <fail>
80000990:	00c0006f          	j	8000099c <ioe_init+0x2c>
80000994:	00478793          	addi	a5,a5,4
80000998:	00d78c63          	beq	a5,a3,800009b0 <ioe_init+0x40>
8000099c:	0007a703          	lw	a4,0(a5)
800009a0:	fe071ae3          	bnez	a4,80000994 <ioe_init+0x24>
800009a4:	00c7a023          	sw	a2,0(a5)
800009a8:	00478793          	addi	a5,a5,4
800009ac:	fed798e3          	bne	a5,a3,8000099c <ioe_init+0x2c>
800009b0:	04c000ef          	jal	ra,800009fc <__am_timer_init>
800009b4:	00812083          	lw	ra,8(sp)
800009b8:	00100513          	li	a0,1
800009bc:	00c10113          	addi	sp,sp,12
800009c0:	00008067          	ret

800009c4 <ioe_read>:
800009c4:	00251513          	slli	a0,a0,0x2
800009c8:	00001797          	auipc	a5,0x1
800009cc:	20878793          	addi	a5,a5,520 # 80001bd0 <lut>
800009d0:	00a787b3          	add	a5,a5,a0
800009d4:	0007a783          	lw	a5,0(a5)
800009d8:	00058513          	mv	a0,a1
800009dc:	00078067          	jr	a5

800009e0 <ioe_write>:
800009e0:	00251513          	slli	a0,a0,0x2
800009e4:	00001797          	auipc	a5,0x1
800009e8:	1ec78793          	addi	a5,a5,492 # 80001bd0 <lut>
800009ec:	00a787b3          	add	a5,a5,a0
800009f0:	0007a783          	lw	a5,0(a5)
800009f4:	00058513          	mv	a0,a1
800009f8:	00078067          	jr	a5

800009fc <__am_timer_init>:
800009fc:	00008067          	ret

80000a00 <__am_timer_uptime>:
80000a00:	a00007b7          	lui	a5,0xa0000
80000a04:	0487a703          	lw	a4,72(a5) # a0000048 <_end+0x1ffeb048>
80000a08:	04c7a783          	lw	a5,76(a5)
80000a0c:	00e52023          	sw	a4,0(a0)
80000a10:	00f52223          	sw	a5,4(a0)
80000a14:	00008067          	ret

80000a18 <__am_timer_rtc>:
80000a18:	76c00793          	li	a5,1900
80000a1c:	00052a23          	sw	zero,20(a0)
80000a20:	00052823          	sw	zero,16(a0)
80000a24:	00052623          	sw	zero,12(a0)
80000a28:	00052423          	sw	zero,8(a0)
80000a2c:	00052223          	sw	zero,4(a0)
80000a30:	00f52023          	sw	a5,0(a0)
80000a34:	00008067          	ret

80000a38 <__am_input_keybrd>:
80000a38:	00050023          	sb	zero,0(a0)
80000a3c:	00052223          	sw	zero,4(a0)
80000a40:	00008067          	ret

80000a44 <__divsi3>:
80000a44:	06054063          	bltz	a0,80000aa4 <__umodsi3+0x10>
80000a48:	0605c663          	bltz	a1,80000ab4 <__umodsi3+0x20>

80000a4c <__hidden___udivsi3>:
80000a4c:	00058613          	mv	a2,a1
80000a50:	00050593          	mv	a1,a0
80000a54:	fff00513          	li	a0,-1
80000a58:	02060c63          	beqz	a2,80000a90 <__hidden___udivsi3+0x44>
80000a5c:	00100693          	li	a3,1
80000a60:	00b67a63          	bgeu	a2,a1,80000a74 <__hidden___udivsi3+0x28>
80000a64:	00c05863          	blez	a2,80000a74 <__hidden___udivsi3+0x28>
80000a68:	00161613          	slli	a2,a2,0x1
80000a6c:	00169693          	slli	a3,a3,0x1
80000a70:	feb66ae3          	bltu	a2,a1,80000a64 <__hidden___udivsi3+0x18>
80000a74:	00000513          	li	a0,0
80000a78:	00c5e663          	bltu	a1,a2,80000a84 <__hidden___udivsi3+0x38>
80000a7c:	40c585b3          	sub	a1,a1,a2
80000a80:	00d56533          	or	a0,a0,a3
80000a84:	0016d693          	srli	a3,a3,0x1
80000a88:	00165613          	srli	a2,a2,0x1
80000a8c:	fe0696e3          	bnez	a3,80000a78 <__hidden___udivsi3+0x2c>
80000a90:	00008067          	ret

80000a94 <__umodsi3>:
80000a94:	00008293          	mv	t0,ra
80000a98:	fb5ff0ef          	jal	ra,80000a4c <__hidden___udivsi3>
80000a9c:	00058513          	mv	a0,a1
80000aa0:	00028067          	jr	t0
80000aa4:	40a00533          	neg	a0,a0
80000aa8:	00b04863          	bgtz	a1,80000ab8 <__umodsi3+0x24>
80000aac:	40b005b3          	neg	a1,a1
80000ab0:	f9dff06f          	j	80000a4c <__hidden___udivsi3>
80000ab4:	40b005b3          	neg	a1,a1
80000ab8:	00008293          	mv	t0,ra
80000abc:	f91ff0ef          	jal	ra,80000a4c <__hidden___udivsi3>
80000ac0:	40a00533          	neg	a0,a0
80000ac4:	00028067          	jr	t0

80000ac8 <__modsi3>:
80000ac8:	00008293          	mv	t0,ra
80000acc:	0005ca63          	bltz	a1,80000ae0 <__modsi3+0x18>
80000ad0:	00054c63          	bltz	a0,80000ae8 <__modsi3+0x20>
80000ad4:	f79ff0ef          	jal	ra,80000a4c <__hidden___udivsi3>
80000ad8:	00058513          	mv	a0,a1
80000adc:	00028067          	jr	t0
80000ae0:	40b005b3          	neg	a1,a1
80000ae4:	fe0558e3          	bgez	a0,80000ad4 <__modsi3+0xc>
80000ae8:	40a00533          	neg	a0,a0
80000aec:	f61ff0ef          	jal	ra,80000a4c <__hidden___udivsi3>
80000af0:	40b00533          	neg	a0,a1
80000af4:	00028067          	jr	t0

80000af8 <printf>:
80000af8:	bd010113          	addi	sp,sp,-1072
80000afc:	40812a23          	sw	s0,1044(sp)
80000b00:	42f12623          	sw	a5,1068(sp)
80000b04:	40112c23          	sw	ra,1048(sp)
80000b08:	40912823          	sw	s1,1040(sp)
80000b0c:	40b12e23          	sw	a1,1052(sp)
80000b10:	42c12023          	sw	a2,1056(sp)
80000b14:	42d12223          	sw	a3,1060(sp)
80000b18:	42e12423          	sw	a4,1064(sp)
80000b1c:	00050413          	mv	s0,a0
80000b20:	00054503          	lbu	a0,0(a0)
80000b24:	41c10793          	addi	a5,sp,1052
80000b28:	02f12223          	sw	a5,36(sp)
80000b2c:	00012023          	sw	zero,0(sp)
80000b30:	0c050c63          	beqz	a0,80000c08 <printf+0x110>
80000b34:	00040713          	mv	a4,s0
80000b38:	02c0006f          	j	80000b64 <printf+0x6c>
80000b3c:	00070413          	mv	s0,a4
80000b40:	d6dff0ef          	jal	ra,800008ac <putch>
80000b44:	00012783          	lw	a5,0(sp)
80000b48:	00178793          	addi	a5,a5,1
80000b4c:	00f12023          	sw	a5,0(sp)
80000b50:	00140793          	addi	a5,s0,1
80000b54:	00f12223          	sw	a5,4(sp)
80000b58:	00144503          	lbu	a0,1(s0)
80000b5c:	00412703          	lw	a4,4(sp)
80000b60:	0a050463          	beqz	a0,80000c08 <printf+0x110>
80000b64:	02500793          	li	a5,37
80000b68:	fcf51ae3          	bne	a0,a5,80000b3c <printf+0x44>
80000b6c:	00174683          	lbu	a3,1(a4)
80000b70:	02000613          	li	a2,32
80000b74:	03000793          	li	a5,48
80000b78:	00c12623          	sw	a2,12(sp)
80000b7c:	00170413          	addi	s0,a4,1
80000b80:	00f69863          	bne	a3,a5,80000b90 <printf+0x98>
80000b84:	00274683          	lbu	a3,2(a4)
80000b88:	00270413          	addi	s0,a4,2
80000b8c:	00f12623          	sw	a5,12(sp)
80000b90:	fd068613          	addi	a2,a3,-48
80000b94:	00000793          	li	a5,0
80000b98:	0ff67313          	zext.b	t1,a2
80000b9c:	00900593          	li	a1,9
80000ba0:	00900513          	li	a0,9
80000ba4:	00078713          	mv	a4,a5
80000ba8:	0265e663          	bltu	a1,t1,80000bd4 <printf+0xdc>
80000bac:	00144683          	lbu	a3,1(s0)
80000bb0:	00271793          	slli	a5,a4,0x2
80000bb4:	00e787b3          	add	a5,a5,a4
80000bb8:	00179793          	slli	a5,a5,0x1
80000bbc:	00f60733          	add	a4,a2,a5
80000bc0:	fd068613          	addi	a2,a3,-48
80000bc4:	0ff67793          	zext.b	a5,a2
80000bc8:	00140413          	addi	s0,s0,1
80000bcc:	fef570e3          	bgeu	a0,a5,80000bac <printf+0xb4>
80000bd0:	00070793          	mv	a5,a4
80000bd4:	f9c68693          	addi	a3,a3,-100
80000bd8:	00140713          	addi	a4,s0,1
80000bdc:	0ff6f693          	zext.b	a3,a3
80000be0:	01400613          	li	a2,20
80000be4:	00e12223          	sw	a4,4(sp)
80000be8:	02d66c63          	bltu	a2,a3,80000c20 <printf+0x128>
80000bec:	00001717          	auipc	a4,0x1
80000bf0:	e8c70713          	addi	a4,a4,-372 # 80001a78 <_etext+0x170>
80000bf4:	00269693          	slli	a3,a3,0x2
80000bf8:	00e686b3          	add	a3,a3,a4
80000bfc:	0006a683          	lw	a3,0(a3)
80000c00:	00e686b3          	add	a3,a3,a4
80000c04:	00068067          	jr	a3
80000c08:	41812083          	lw	ra,1048(sp)
80000c0c:	41412403          	lw	s0,1044(sp)
80000c10:	00012503          	lw	a0,0(sp)
80000c14:	41012483          	lw	s1,1040(sp)
80000c18:	43010113          	addi	sp,sp,1072
80000c1c:	00008067          	ret
80000c20:	02500513          	li	a0,37
80000c24:	c89ff0ef          	jal	ra,800008ac <putch>
80000c28:	00012783          	lw	a5,0(sp)
80000c2c:	00044503          	lbu	a0,0(s0)
80000c30:	00278793          	addi	a5,a5,2
80000c34:	00f12023          	sw	a5,0(sp)
80000c38:	c75ff0ef          	jal	ra,800008ac <putch>
80000c3c:	f1dff06f          	j	80000b58 <printf+0x60>
80000c40:	02412603          	lw	a2,36(sp)
80000c44:	00062683          	lw	a3,0(a2)
80000c48:	00460613          	addi	a2,a2,4
80000c4c:	02c12223          	sw	a2,36(sp)
80000c50:	32069663          	bnez	a3,80000f7c <printf+0x484>
80000c54:	03000693          	li	a3,48
80000c58:	02d10423          	sb	a3,40(sp)
80000c5c:	00100693          	li	a3,1
80000c60:	28f6d263          	bge	a3,a5,80000ee4 <printf+0x3ec>
80000c64:	00100713          	li	a4,1
80000c68:	00e12a23          	sw	a4,20(sp)
80000c6c:	01412703          	lw	a4,20(sp)
80000c70:	40e787b3          	sub	a5,a5,a4
80000c74:	6af05c63          	blez	a5,8000132c <printf+0x834>
80000c78:	00000493          	li	s1,0
80000c7c:	00812823          	sw	s0,16(sp)
80000c80:	00048413          	mv	s0,s1
80000c84:	00c12483          	lw	s1,12(sp)
80000c88:	00f12423          	sw	a5,8(sp)
80000c8c:	00048513          	mv	a0,s1
80000c90:	c1dff0ef          	jal	ra,800008ac <putch>
80000c94:	00812783          	lw	a5,8(sp)
80000c98:	00140413          	addi	s0,s0,1
80000c9c:	fef448e3          	blt	s0,a5,80000c8c <printf+0x194>
80000ca0:	00012703          	lw	a4,0(sp)
80000ca4:	00812783          	lw	a5,8(sp)
80000ca8:	01012403          	lw	s0,16(sp)
80000cac:	00170613          	addi	a2,a4,1
80000cb0:	00000693          	li	a3,0
80000cb4:	00f05463          	blez	a5,80000cbc <printf+0x1c4>
80000cb8:	fff78693          	addi	a3,a5,-1
80000cbc:	00c687b3          	add	a5,a3,a2
80000cc0:	00f12023          	sw	a5,0(sp)
80000cc4:	01412783          	lw	a5,20(sp)
80000cc8:	e80788e3          	beqz	a5,80000b58 <printf+0x60>
80000ccc:	3ec78793          	addi	a5,a5,1004
80000cd0:	02410713          	addi	a4,sp,36
80000cd4:	00e787b3          	add	a5,a5,a4
80000cd8:	c177c503          	lbu	a0,-1001(a5)
80000cdc:	02810793          	addi	a5,sp,40
80000ce0:	00f12823          	sw	a5,16(sp)
80000ce4:	01012783          	lw	a5,16(sp)
80000ce8:	01412703          	lw	a4,20(sp)
80000cec:	00e784b3          	add	s1,a5,a4
80000cf0:	00c0006f          	j	80000cfc <printf+0x204>
80000cf4:	ffe4c503          	lbu	a0,-2(s1)
80000cf8:	fff48493          	addi	s1,s1,-1
80000cfc:	bb1ff0ef          	jal	ra,800008ac <putch>
80000d00:	02910793          	addi	a5,sp,41
80000d04:	fe9798e3          	bne	a5,s1,80000cf4 <printf+0x1fc>
80000d08:	00012703          	lw	a4,0(sp)
80000d0c:	01412783          	lw	a5,20(sp)
80000d10:	00e787b3          	add	a5,a5,a4
80000d14:	00f12023          	sw	a5,0(sp)
80000d18:	e41ff06f          	j	80000b58 <printf+0x60>
80000d1c:	02412783          	lw	a5,36(sp)
80000d20:	0007a703          	lw	a4,0(a5)
80000d24:	00478793          	addi	a5,a5,4
80000d28:	02f12223          	sw	a5,36(sp)
80000d2c:	00074503          	lbu	a0,0(a4)
80000d30:	00e12423          	sw	a4,8(sp)
80000d34:	e20502e3          	beqz	a0,80000b58 <printf+0x60>
80000d38:	00012783          	lw	a5,0(sp)
80000d3c:	00812023          	sw	s0,0(sp)
80000d40:	00078493          	mv	s1,a5
80000d44:	00078413          	mv	s0,a5
80000d48:	b65ff0ef          	jal	ra,800008ac <putch>
80000d4c:	00812703          	lw	a4,8(sp)
80000d50:	00140413          	addi	s0,s0,1
80000d54:	409407b3          	sub	a5,s0,s1
80000d58:	00f707b3          	add	a5,a4,a5
80000d5c:	0007c503          	lbu	a0,0(a5)
80000d60:	fe0514e3          	bnez	a0,80000d48 <printf+0x250>
80000d64:	00040493          	mv	s1,s0
80000d68:	00012403          	lw	s0,0(sp)
80000d6c:	00912023          	sw	s1,0(sp)
80000d70:	de9ff06f          	j	80000b58 <printf+0x60>
80000d74:	02412783          	lw	a5,36(sp)
80000d78:	03000513          	li	a0,48
80000d7c:	0007a483          	lw	s1,0(a5)
80000d80:	00478793          	addi	a5,a5,4
80000d84:	02f12223          	sw	a5,36(sp)
80000d88:	b25ff0ef          	jal	ra,800008ac <putch>
80000d8c:	07800513          	li	a0,120
80000d90:	b1dff0ef          	jal	ra,800008ac <putch>
80000d94:	16049463          	bnez	s1,80000efc <printf+0x404>
80000d98:	03000793          	li	a5,48
80000d9c:	02f10423          	sb	a5,40(sp)
80000da0:	00012783          	lw	a5,0(sp)
80000da4:	03000513          	li	a0,48
80000da8:	00378793          	addi	a5,a5,3
80000dac:	00f12023          	sw	a5,0(sp)
80000db0:	afdff0ef          	jal	ra,800008ac <putch>
80000db4:	da5ff06f          	j	80000b58 <printf+0x60>
80000db8:	00144703          	lbu	a4,1(s0)
80000dbc:	06400693          	li	a3,100
80000dc0:	28d70c63          	beq	a4,a3,80001058 <printf+0x560>
80000dc4:	07800693          	li	a3,120
80000dc8:	2ed70463          	beq	a4,a3,800010b0 <printf+0x5b8>
80000dcc:	00412783          	lw	a5,4(sp)
80000dd0:	00078413          	mv	s0,a5
80000dd4:	00178793          	addi	a5,a5,1
80000dd8:	00f12223          	sw	a5,4(sp)
80000ddc:	d7dff06f          	j	80000b58 <printf+0x60>
80000de0:	02412683          	lw	a3,36(sp)
80000de4:	00012703          	lw	a4,0(sp)
80000de8:	00468693          	addi	a3,a3,4
80000dec:	00170613          	addi	a2,a4,1
80000df0:	ffc6a703          	lw	a4,-4(a3)
80000df4:	02d12223          	sw	a3,36(sp)
80000df8:	00e12a23          	sw	a4,20(sp)
80000dfc:	1c074663          	bltz	a4,80000fc8 <printf+0x4d0>
80000e00:	01412703          	lw	a4,20(sp)
80000e04:	54071463          	bnez	a4,8000134c <printf+0x854>
80000e08:	03000693          	li	a3,48
80000e0c:	02d10423          	sb	a3,40(sp)
80000e10:	00c12423          	sw	a2,8(sp)
80000e14:	00100693          	li	a3,1
80000e18:	0af6dc63          	bge	a3,a5,80000ed0 <printf+0x3d8>
80000e1c:	00100713          	li	a4,1
80000e20:	00e12c23          	sw	a4,24(sp)
80000e24:	02810713          	addi	a4,sp,40
80000e28:	00e12823          	sw	a4,16(sp)
80000e2c:	01812703          	lw	a4,24(sp)
80000e30:	00000493          	li	s1,0
80000e34:	40e787b3          	sub	a5,a5,a4
80000e38:	00f12423          	sw	a5,8(sp)
80000e3c:	4ef05c63          	blez	a5,80001334 <printf+0x83c>
80000e40:	00812e23          	sw	s0,28(sp)
80000e44:	00048413          	mv	s0,s1
80000e48:	00c12483          	lw	s1,12(sp)
80000e4c:	00048513          	mv	a0,s1
80000e50:	a5dff0ef          	jal	ra,800008ac <putch>
80000e54:	00812783          	lw	a5,8(sp)
80000e58:	00140413          	addi	s0,s0,1
80000e5c:	fe8798e3          	bne	a5,s0,80000e4c <printf+0x354>
80000e60:	01412783          	lw	a5,20(sp)
80000e64:	02410713          	addi	a4,sp,36
80000e68:	01c12403          	lw	s0,28(sp)
80000e6c:	3ec78793          	addi	a5,a5,1004
80000e70:	00e787b3          	add	a5,a5,a4
80000e74:	c187c683          	lbu	a3,-1000(a5)
80000e78:	00012703          	lw	a4,0(sp)
80000e7c:	00812783          	lw	a5,8(sp)
80000e80:	00e787b3          	add	a5,a5,a4
80000e84:	00f12023          	sw	a5,0(sp)
80000e88:	01012783          	lw	a5,16(sp)
80000e8c:	01812703          	lw	a4,24(sp)
80000e90:	00812423          	sw	s0,8(sp)
80000e94:	00068513          	mv	a0,a3
80000e98:	00e784b3          	add	s1,a5,a4
80000e9c:	00048413          	mv	s0,s1
80000ea0:	00078493          	mv	s1,a5
80000ea4:	0080006f          	j	80000eac <printf+0x3b4>
80000ea8:	fff44503          	lbu	a0,-1(s0)
80000eac:	fff40413          	addi	s0,s0,-1
80000eb0:	9fdff0ef          	jal	ra,800008ac <putch>
80000eb4:	fe849ae3          	bne	s1,s0,80000ea8 <printf+0x3b0>
80000eb8:	00012703          	lw	a4,0(sp)
80000ebc:	01812783          	lw	a5,24(sp)
80000ec0:	00812403          	lw	s0,8(sp)
80000ec4:	00e787b3          	add	a5,a5,a4
80000ec8:	00f12023          	sw	a5,0(sp)
80000ecc:	c8dff06f          	j	80000b58 <printf+0x60>
80000ed0:	03000513          	li	a0,48
80000ed4:	9d9ff0ef          	jal	ra,800008ac <putch>
80000ed8:	00812603          	lw	a2,8(sp)
80000edc:	00c12023          	sw	a2,0(sp)
80000ee0:	c79ff06f          	j	80000b58 <printf+0x60>
80000ee4:	00012783          	lw	a5,0(sp)
80000ee8:	03000513          	li	a0,48
80000eec:	00178793          	addi	a5,a5,1
80000ef0:	00f12023          	sw	a5,0(sp)
80000ef4:	9b9ff0ef          	jal	ra,800008ac <putch>
80000ef8:	c61ff06f          	j	80000b58 <printf+0x60>
80000efc:	02810313          	addi	t1,sp,40
80000f00:	00048693          	mv	a3,s1
80000f04:	00000613          	li	a2,0
80000f08:	00612823          	sw	t1,16(sp)
80000f0c:	00900593          	li	a1,9
80000f10:	0080006f          	j	80000f18 <printf+0x420>
80000f14:	00070613          	mv	a2,a4
80000f18:	00f6f713          	andi	a4,a3,15
80000f1c:	05770513          	addi	a0,a4,87
80000f20:	00e5c463          	blt	a1,a4,80000f28 <printf+0x430>
80000f24:	03070513          	addi	a0,a4,48
80000f28:	00160713          	addi	a4,a2,1
80000f2c:	00e307b3          	add	a5,t1,a4
80000f30:	fea78fa3          	sb	a0,-1(a5)
80000f34:	0046d693          	srli	a3,a3,0x4
80000f38:	fc069ee3          	bnez	a3,80000f14 <printf+0x41c>
80000f3c:	00812623          	sw	s0,12(sp)
80000f40:	01012483          	lw	s1,16(sp)
80000f44:	00c12423          	sw	a2,8(sp)
80000f48:	00078413          	mv	s0,a5
80000f4c:	0080006f          	j	80000f54 <printf+0x45c>
80000f50:	fff44503          	lbu	a0,-1(s0)
80000f54:	fff40413          	addi	s0,s0,-1
80000f58:	955ff0ef          	jal	ra,800008ac <putch>
80000f5c:	fe849ae3          	bne	s1,s0,80000f50 <printf+0x458>
80000f60:	00012783          	lw	a5,0(sp)
80000f64:	00812703          	lw	a4,8(sp)
80000f68:	00c12403          	lw	s0,12(sp)
80000f6c:	00378793          	addi	a5,a5,3
80000f70:	00e787b3          	add	a5,a5,a4
80000f74:	00f12023          	sw	a5,0(sp)
80000f78:	be1ff06f          	j	80000b58 <printf+0x60>
80000f7c:	02810713          	addi	a4,sp,40
80000f80:	00012a23          	sw	zero,20(sp)
80000f84:	00e12823          	sw	a4,16(sp)
80000f88:	00900313          	li	t1,9
80000f8c:	38d05c63          	blez	a3,80001324 <printf+0x82c>
80000f90:	01012283          	lw	t0,16(sp)
80000f94:	00000613          	li	a2,0
80000f98:	00f6f593          	andi	a1,a3,15
80000f9c:	05758513          	addi	a0,a1,87
80000fa0:	00b34463          	blt	t1,a1,80000fa8 <printf+0x4b0>
80000fa4:	03058513          	addi	a0,a1,48
80000fa8:	00160613          	addi	a2,a2,1
80000fac:	00c28733          	add	a4,t0,a2
80000fb0:	fea70fa3          	sb	a0,-1(a4)
80000fb4:	4046d693          	srai	a3,a3,0x4
80000fb8:	fe0690e3          	bnez	a3,80000f98 <printf+0x4a0>
80000fbc:	00c12a23          	sw	a2,20(sp)
80000fc0:	caf646e3          	blt	a2,a5,80000c6c <printf+0x174>
80000fc4:	d21ff06f          	j	80000ce4 <printf+0x1ec>
80000fc8:	02d00513          	li	a0,45
80000fcc:	00f12423          	sw	a5,8(sp)
80000fd0:	00c12023          	sw	a2,0(sp)
80000fd4:	8d9ff0ef          	jal	ra,800008ac <putch>
80000fd8:	01412783          	lw	a5,20(sp)
80000fdc:	40f004b3          	neg	s1,a5
80000fe0:	00812783          	lw	a5,8(sp)
80000fe4:	00000693          	li	a3,0
80000fe8:	02810713          	addi	a4,sp,40
80000fec:	02812023          	sw	s0,32(sp)
80000ff0:	00e12823          	sw	a4,16(sp)
80000ff4:	00f12e23          	sw	a5,28(sp)
80000ff8:	00068413          	mv	s0,a3
80000ffc:	00a00593          	li	a1,10
80001000:	00048513          	mv	a0,s1
80001004:	ac5ff0ef          	jal	ra,80000ac8 <__modsi3>
80001008:	01012783          	lw	a5,16(sp)
8000100c:	03050693          	addi	a3,a0,48
80001010:	00812a23          	sw	s0,20(sp)
80001014:	00140413          	addi	s0,s0,1
80001018:	0ff6f693          	zext.b	a3,a3
8000101c:	008787b3          	add	a5,a5,s0
80001020:	00048513          	mv	a0,s1
80001024:	fed78fa3          	sb	a3,-1(a5)
80001028:	00a00593          	li	a1,10
8000102c:	00d12423          	sw	a3,8(sp)
80001030:	a15ff0ef          	jal	ra,80000a44 <__divsi3>
80001034:	00812683          	lw	a3,8(sp)
80001038:	00050493          	mv	s1,a0
8000103c:	fc0510e3          	bnez	a0,80000ffc <printf+0x504>
80001040:	01c12783          	lw	a5,28(sp)
80001044:	00040713          	mv	a4,s0
80001048:	00812c23          	sw	s0,24(sp)
8000104c:	02012403          	lw	s0,32(sp)
80001050:	dcf74ee3          	blt	a4,a5,80000e2c <printf+0x334>
80001054:	e35ff06f          	j	80000e88 <printf+0x390>
80001058:	02412703          	lw	a4,36(sp)
8000105c:	00012683          	lw	a3,0(sp)
80001060:	00470713          	addi	a4,a4,4
80001064:	00168493          	addi	s1,a3,1
80001068:	ffc72683          	lw	a3,-4(a4)
8000106c:	02e12223          	sw	a4,36(sp)
80001070:	00d12a23          	sw	a3,20(sp)
80001074:	1006c663          	bltz	a3,80001180 <printf+0x688>
80001078:	01412703          	lw	a4,20(sp)
8000107c:	30071463          	bnez	a4,80001384 <printf+0x88c>
80001080:	03000713          	li	a4,48
80001084:	02e10423          	sb	a4,40(sp)
80001088:	00100713          	li	a4,1
8000108c:	26f74063          	blt	a4,a5,800012ec <printf+0x7f4>
80001090:	03000513          	li	a0,48
80001094:	00412403          	lw	s0,4(sp)
80001098:	815ff0ef          	jal	ra,800008ac <putch>
8000109c:	00412783          	lw	a5,4(sp)
800010a0:	00912023          	sw	s1,0(sp)
800010a4:	00178793          	addi	a5,a5,1
800010a8:	00f12223          	sw	a5,4(sp)
800010ac:	aadff06f          	j	80000b58 <printf+0x60>
800010b0:	02412683          	lw	a3,36(sp)
800010b4:	0006a703          	lw	a4,0(a3)
800010b8:	00468693          	addi	a3,a3,4
800010bc:	02d12223          	sw	a3,36(sp)
800010c0:	1e071063          	bnez	a4,800012a0 <printf+0x7a8>
800010c4:	03000713          	li	a4,48
800010c8:	02e10423          	sb	a4,40(sp)
800010cc:	00100713          	li	a4,1
800010d0:	22f75663          	bge	a4,a5,800012fc <printf+0x804>
800010d4:	00100713          	li	a4,1
800010d8:	00e12a23          	sw	a4,20(sp)
800010dc:	02810713          	addi	a4,sp,40
800010e0:	00012c23          	sw	zero,24(sp)
800010e4:	00e12823          	sw	a4,16(sp)
800010e8:	01412703          	lw	a4,20(sp)
800010ec:	00000413          	li	s0,0
800010f0:	40e784b3          	sub	s1,a5,a4
800010f4:	26905063          	blez	s1,80001354 <printf+0x85c>
800010f8:	00912423          	sw	s1,8(sp)
800010fc:	00040493          	mv	s1,s0
80001100:	00c12403          	lw	s0,12(sp)
80001104:	00040513          	mv	a0,s0
80001108:	fa4ff0ef          	jal	ra,800008ac <putch>
8000110c:	00812783          	lw	a5,8(sp)
80001110:	00148493          	addi	s1,s1,1
80001114:	fe9798e3          	bne	a5,s1,80001104 <printf+0x60c>
80001118:	00078493          	mv	s1,a5
8000111c:	01812783          	lw	a5,24(sp)
80001120:	02410713          	addi	a4,sp,36
80001124:	3ec78793          	addi	a5,a5,1004
80001128:	00e787b3          	add	a5,a5,a4
8000112c:	c187c503          	lbu	a0,-1000(a5)
80001130:	00012783          	lw	a5,0(sp)
80001134:	009787b3          	add	a5,a5,s1
80001138:	00f12023          	sw	a5,0(sp)
8000113c:	01012403          	lw	s0,16(sp)
80001140:	01412783          	lw	a5,20(sp)
80001144:	00f404b3          	add	s1,s0,a5
80001148:	0080006f          	j	80001150 <printf+0x658>
8000114c:	fff4c503          	lbu	a0,-1(s1)
80001150:	fff48493          	addi	s1,s1,-1
80001154:	f58ff0ef          	jal	ra,800008ac <putch>
80001158:	fe941ae3          	bne	s0,s1,8000114c <printf+0x654>
8000115c:	00412783          	lw	a5,4(sp)
80001160:	00012683          	lw	a3,0(sp)
80001164:	01412703          	lw	a4,20(sp)
80001168:	00078413          	mv	s0,a5
8000116c:	00178793          	addi	a5,a5,1
80001170:	00d70733          	add	a4,a4,a3
80001174:	00e12023          	sw	a4,0(sp)
80001178:	00f12223          	sw	a5,4(sp)
8000117c:	9ddff06f          	j	80000b58 <printf+0x60>
80001180:	02d00513          	li	a0,45
80001184:	00f12423          	sw	a5,8(sp)
80001188:	f24ff0ef          	jal	ra,800008ac <putch>
8000118c:	01412783          	lw	a5,20(sp)
80001190:	00912023          	sw	s1,0(sp)
80001194:	40f00433          	neg	s0,a5
80001198:	00812783          	lw	a5,8(sp)
8000119c:	02810713          	addi	a4,sp,40
800011a0:	00000493          	li	s1,0
800011a4:	00e12823          	sw	a4,16(sp)
800011a8:	00f12c23          	sw	a5,24(sp)
800011ac:	00a00593          	li	a1,10
800011b0:	00040513          	mv	a0,s0
800011b4:	915ff0ef          	jal	ra,80000ac8 <__modsi3>
800011b8:	01012783          	lw	a5,16(sp)
800011bc:	03050713          	addi	a4,a0,48
800011c0:	00912a23          	sw	s1,20(sp)
800011c4:	00148493          	addi	s1,s1,1
800011c8:	0ff77713          	zext.b	a4,a4
800011cc:	009787b3          	add	a5,a5,s1
800011d0:	00040513          	mv	a0,s0
800011d4:	fee78fa3          	sb	a4,-1(a5)
800011d8:	00a00593          	li	a1,10
800011dc:	00e12423          	sw	a4,8(sp)
800011e0:	865ff0ef          	jal	ra,80000a44 <__divsi3>
800011e4:	00812703          	lw	a4,8(sp)
800011e8:	00050413          	mv	s0,a0
800011ec:	fc0510e3          	bnez	a0,800011ac <printf+0x6b4>
800011f0:	01812783          	lw	a5,24(sp)
800011f4:	04f4de63          	bge	s1,a5,80001250 <printf+0x758>
800011f8:	409787b3          	sub	a5,a5,s1
800011fc:	00f12423          	sw	a5,8(sp)
80001200:	00000413          	li	s0,0
80001204:	16f05463          	blez	a5,8000136c <printf+0x874>
80001208:	00912c23          	sw	s1,24(sp)
8000120c:	00040493          	mv	s1,s0
80001210:	00c12403          	lw	s0,12(sp)
80001214:	00040513          	mv	a0,s0
80001218:	e94ff0ef          	jal	ra,800008ac <putch>
8000121c:	00812783          	lw	a5,8(sp)
80001220:	00148493          	addi	s1,s1,1
80001224:	fe9798e3          	bne	a5,s1,80001214 <printf+0x71c>
80001228:	01412783          	lw	a5,20(sp)
8000122c:	02410713          	addi	a4,sp,36
80001230:	00012683          	lw	a3,0(sp)
80001234:	3ec78793          	addi	a5,a5,1004
80001238:	00e787b3          	add	a5,a5,a4
8000123c:	c187c703          	lbu	a4,-1000(a5)
80001240:	00812783          	lw	a5,8(sp)
80001244:	01812483          	lw	s1,24(sp)
80001248:	00d787b3          	add	a5,a5,a3
8000124c:	00f12023          	sw	a5,0(sp)
80001250:	01012783          	lw	a5,16(sp)
80001254:	00912423          	sw	s1,8(sp)
80001258:	00070513          	mv	a0,a4
8000125c:	00978433          	add	s0,a5,s1
80001260:	00040493          	mv	s1,s0
80001264:	00078413          	mv	s0,a5
80001268:	0080006f          	j	80001270 <printf+0x778>
8000126c:	fff4c503          	lbu	a0,-1(s1)
80001270:	fff48493          	addi	s1,s1,-1
80001274:	e38ff0ef          	jal	ra,800008ac <putch>
80001278:	fe941ae3          	bne	s0,s1,8000126c <printf+0x774>
8000127c:	00412783          	lw	a5,4(sp)
80001280:	00012703          	lw	a4,0(sp)
80001284:	00812483          	lw	s1,8(sp)
80001288:	00078413          	mv	s0,a5
8000128c:	00178793          	addi	a5,a5,1
80001290:	00e48733          	add	a4,s1,a4
80001294:	00e12023          	sw	a4,0(sp)
80001298:	00f12223          	sw	a5,4(sp)
8000129c:	8bdff06f          	j	80000b58 <printf+0x60>
800012a0:	02810293          	addi	t0,sp,40
800012a4:	00000313          	li	t1,0
800012a8:	00512823          	sw	t0,16(sp)
800012ac:	00900593          	li	a1,9
800012b0:	0080006f          	j	800012b8 <printf+0x7c0>
800012b4:	00068313          	mv	t1,a3
800012b8:	00f77613          	andi	a2,a4,15
800012bc:	05760513          	addi	a0,a2,87
800012c0:	00c5c463          	blt	a1,a2,800012c8 <printf+0x7d0>
800012c4:	03060513          	addi	a0,a2,48
800012c8:	00130693          	addi	a3,t1,1
800012cc:	00d28633          	add	a2,t0,a3
800012d0:	fea60fa3          	sb	a0,-1(a2)
800012d4:	00475713          	srli	a4,a4,0x4
800012d8:	fc071ee3          	bnez	a4,800012b4 <printf+0x7bc>
800012dc:	00d12a23          	sw	a3,20(sp)
800012e0:	00612c23          	sw	t1,24(sp)
800012e4:	e0f6c2e3          	blt	a3,a5,800010e8 <printf+0x5f0>
800012e8:	e55ff06f          	j	8000113c <printf+0x644>
800012ec:	02810713          	addi	a4,sp,40
800012f0:	00100493          	li	s1,1
800012f4:	00e12823          	sw	a4,16(sp)
800012f8:	f01ff06f          	j	800011f8 <printf+0x700>
800012fc:	00012703          	lw	a4,0(sp)
80001300:	00412483          	lw	s1,4(sp)
80001304:	03000513          	li	a0,48
80001308:	00170713          	addi	a4,a4,1
8000130c:	00e12023          	sw	a4,0(sp)
80001310:	d9cff0ef          	jal	ra,800008ac <putch>
80001314:	00148793          	addi	a5,s1,1
80001318:	00048413          	mv	s0,s1
8000131c:	00f12223          	sw	a5,4(sp)
80001320:	839ff06f          	j	80000b58 <printf+0x60>
80001324:	94079ae3          	bnez	a5,80000c78 <printf+0x180>
80001328:	831ff06f          	j	80000b58 <printf+0x60>
8000132c:	00070793          	mv	a5,a4
80001330:	99dff06f          	j	80000ccc <printf+0x1d4>
80001334:	01412783          	lw	a5,20(sp)
80001338:	02410713          	addi	a4,sp,36
8000133c:	3ec78793          	addi	a5,a5,1004
80001340:	00e787b3          	add	a5,a5,a4
80001344:	c187c683          	lbu	a3,-1000(a5)
80001348:	b41ff06f          	j	80000e88 <printf+0x390>
8000134c:	00070493          	mv	s1,a4
80001350:	c95ff06f          	j	80000fe4 <printf+0x4ec>
80001354:	01812783          	lw	a5,24(sp)
80001358:	02410713          	addi	a4,sp,36
8000135c:	3ec78793          	addi	a5,a5,1004
80001360:	00e787b3          	add	a5,a5,a4
80001364:	c187c503          	lbu	a0,-1000(a5)
80001368:	dd5ff06f          	j	8000113c <printf+0x644>
8000136c:	01412783          	lw	a5,20(sp)
80001370:	02410713          	addi	a4,sp,36
80001374:	3ec78793          	addi	a5,a5,1004
80001378:	00e787b3          	add	a5,a5,a4
8000137c:	c187c703          	lbu	a4,-1000(a5)
80001380:	ed1ff06f          	j	80001250 <printf+0x758>
80001384:	00070413          	mv	s0,a4
80001388:	e15ff06f          	j	8000119c <printf+0x6a4>

8000138c <__udivmoddi4>:
8000138c:	fe010113          	addi	sp,sp,-32
80001390:	00912a23          	sw	s1,20(sp)
80001394:	00112e23          	sw	ra,28(sp)
80001398:	00812c23          	sw	s0,24(sp)
8000139c:	00e12223          	sw	a4,4(sp)
800013a0:	00050313          	mv	t1,a0
800013a4:	00060493          	mv	s1,a2
800013a8:	04059663          	bnez	a1,800013f4 <__udivmoddi4+0x68>
800013ac:	20069463          	bnez	a3,800015b4 <__udivmoddi4+0x228>
800013b0:	00070413          	mv	s0,a4
800013b4:	00070e63          	beqz	a4,800013d0 <__udivmoddi4+0x44>
800013b8:	00048593          	mv	a1,s1
800013bc:	00a12023          	sw	a0,0(sp)
800013c0:	ed4ff0ef          	jal	ra,80000a94 <__umodsi3>
800013c4:	00012303          	lw	t1,0(sp)
800013c8:	00a42023          	sw	a0,0(s0)
800013cc:	00042223          	sw	zero,4(s0)
800013d0:	00048593          	mv	a1,s1
800013d4:	00030513          	mv	a0,t1
800013d8:	e74ff0ef          	jal	ra,80000a4c <__hidden___udivsi3>
800013dc:	00000593          	li	a1,0
800013e0:	01c12083          	lw	ra,28(sp)
800013e4:	01812403          	lw	s0,24(sp)
800013e8:	01412483          	lw	s1,20(sp)
800013ec:	02010113          	addi	sp,sp,32
800013f0:	00008067          	ret
800013f4:	00058793          	mv	a5,a1
800013f8:	08061263          	bnez	a2,8000147c <__udivmoddi4+0xf0>
800013fc:	24068263          	beqz	a3,80001640 <__udivmoddi4+0x2b4>
80001400:	2c050a63          	beqz	a0,800016d4 <__udivmoddi4+0x348>
80001404:	fff68613          	addi	a2,a3,-1
80001408:	00d675b3          	and	a1,a2,a3
8000140c:	32058463          	beqz	a1,80001734 <__udivmoddi4+0x3a8>
80001410:	00a12623          	sw	a0,12(sp)
80001414:	00068513          	mv	a0,a3
80001418:	00f12823          	sw	a5,16(sp)
8000141c:	00f12023          	sw	a5,0(sp)
80001420:	00d12423          	sw	a3,8(sp)
80001424:	378000ef          	jal	ra,8000179c <__clzsi2>
80001428:	00012703          	lw	a4,0(sp)
8000142c:	00050413          	mv	s0,a0
80001430:	00070513          	mv	a0,a4
80001434:	368000ef          	jal	ra,8000179c <__clzsi2>
80001438:	40a40533          	sub	a0,s0,a0
8000143c:	01e00613          	li	a2,30
80001440:	00012703          	lw	a4,0(sp)
80001444:	00812683          	lw	a3,8(sp)
80001448:	00c12303          	lw	t1,12(sp)
8000144c:	01012783          	lw	a5,16(sp)
80001450:	1ea66a63          	bltu	a2,a0,80001644 <__udivmoddi4+0x2b8>
80001454:	00150393          	addi	t2,a0,1
80001458:	02000613          	li	a2,32
8000145c:	40760633          	sub	a2,a2,t2
80001460:	00c712b3          	sll	t0,a4,a2
80001464:	007355b3          	srl	a1,t1,t2
80001468:	007757b3          	srl	a5,a4,t2
8000146c:	00c31533          	sll	a0,t1,a2
80001470:	00b2e733          	or	a4,t0,a1
80001474:	00000413          	li	s0,0
80001478:	0780006f          	j	800014f0 <__udivmoddi4+0x164>
8000147c:	16068263          	beqz	a3,800015e0 <__udivmoddi4+0x254>
80001480:	00a12423          	sw	a0,8(sp)
80001484:	00068513          	mv	a0,a3
80001488:	00b12623          	sw	a1,12(sp)
8000148c:	00b12023          	sw	a1,0(sp)
80001490:	00d12823          	sw	a3,16(sp)
80001494:	308000ef          	jal	ra,8000179c <__clzsi2>
80001498:	00012703          	lw	a4,0(sp)
8000149c:	00050413          	mv	s0,a0
800014a0:	00070513          	mv	a0,a4
800014a4:	2f8000ef          	jal	ra,8000179c <__clzsi2>
800014a8:	40a40533          	sub	a0,s0,a0
800014ac:	01f00613          	li	a2,31
800014b0:	00812303          	lw	t1,8(sp)
800014b4:	00c12783          	lw	a5,12(sp)
800014b8:	18a66663          	bltu	a2,a0,80001644 <__udivmoddi4+0x2b8>
800014bc:	00150393          	addi	t2,a0,1
800014c0:	02000793          	li	a5,32
800014c4:	00012703          	lw	a4,0(sp)
800014c8:	01012683          	lw	a3,16(sp)
800014cc:	00030513          	mv	a0,t1
800014d0:	28f38a63          	beq	t2,a5,80001764 <__udivmoddi4+0x3d8>
800014d4:	40778633          	sub	a2,a5,t2
800014d8:	007355b3          	srl	a1,t1,t2
800014dc:	00c71333          	sll	t1,a4,a2
800014e0:	007757b3          	srl	a5,a4,t2
800014e4:	00c51533          	sll	a0,a0,a2
800014e8:	00b36733          	or	a4,t1,a1
800014ec:	00000413          	li	s0,0
800014f0:	00068613          	mv	a2,a3
800014f4:	00012023          	sw	zero,0(sp)
800014f8:	00078693          	mv	a3,a5
800014fc:	00060793          	mv	a5,a2
80001500:	01f55593          	srli	a1,a0,0x1f
80001504:	00171613          	slli	a2,a4,0x1
80001508:	00b66633          	or	a2,a2,a1
8000150c:	01f75713          	srli	a4,a4,0x1f
80001510:	00169693          	slli	a3,a3,0x1
80001514:	00e6e6b3          	or	a3,a3,a4
80001518:	40c48733          	sub	a4,s1,a2
8000151c:	00e4b333          	sltu	t1,s1,a4
80001520:	40d785b3          	sub	a1,a5,a3
80001524:	406585b3          	sub	a1,a1,t1
80001528:	00173713          	seqz	a4,a4
8000152c:	40e585b3          	sub	a1,a1,a4
80001530:	41f5d313          	srai	t1,a1,0x1f
80001534:	00937733          	and	a4,t1,s1
80001538:	00f37333          	and	t1,t1,a5
8000153c:	406686b3          	sub	a3,a3,t1
80001540:	00012303          	lw	t1,0(sp)
80001544:	40e60733          	sub	a4,a2,a4
80001548:	01f5d593          	srli	a1,a1,0x1f
8000154c:	01f45293          	srli	t0,s0,0x1f
80001550:	00151513          	slli	a0,a0,0x1
80001554:	00141413          	slli	s0,s0,0x1
80001558:	00e63633          	sltu	a2,a2,a4
8000155c:	fff38393          	addi	t2,t2,-1
80001560:	00b12023          	sw	a1,0(sp)
80001564:	00646433          	or	s0,s0,t1
80001568:	00556533          	or	a0,a0,t0
8000156c:	40c686b3          	sub	a3,a3,a2
80001570:	f80398e3          	bnez	t2,80001500 <__udivmoddi4+0x174>
80001574:	01f45593          	srli	a1,s0,0x1f
80001578:	00068793          	mv	a5,a3
8000157c:	00151693          	slli	a3,a0,0x1
80001580:	00012603          	lw	a2,0(sp)
80001584:	00d5e5b3          	or	a1,a1,a3
80001588:	00412683          	lw	a3,4(sp)
8000158c:	00141413          	slli	s0,s0,0x1
80001590:	00c46533          	or	a0,s0,a2
80001594:	e40686e3          	beqz	a3,800013e0 <__udivmoddi4+0x54>
80001598:	01c12083          	lw	ra,28(sp)
8000159c:	01812403          	lw	s0,24(sp)
800015a0:	00e6a023          	sw	a4,0(a3)
800015a4:	00f6a223          	sw	a5,4(a3)
800015a8:	01412483          	lw	s1,20(sp)
800015ac:	02010113          	addi	sp,sp,32
800015b0:	00008067          	ret
800015b4:	00412783          	lw	a5,4(sp)
800015b8:	08078a63          	beqz	a5,8000164c <__udivmoddi4+0x2c0>
800015bc:	01c12083          	lw	ra,28(sp)
800015c0:	01812403          	lw	s0,24(sp)
800015c4:	00a7a023          	sw	a0,0(a5)
800015c8:	0007a223          	sw	zero,4(a5)
800015cc:	01412483          	lw	s1,20(sp)
800015d0:	00000513          	li	a0,0
800015d4:	00000593          	li	a1,0
800015d8:	02010113          	addi	sp,sp,32
800015dc:	00008067          	ret
800015e0:	fff60613          	addi	a2,a2,-1
800015e4:	009675b3          	and	a1,a2,s1
800015e8:	06059863          	bnez	a1,80001658 <__udivmoddi4+0x2cc>
800015ec:	00412703          	lw	a4,4(sp)
800015f0:	00070863          	beqz	a4,80001600 <__udivmoddi4+0x274>
800015f4:	00a67633          	and	a2,a2,a0
800015f8:	00c72023          	sw	a2,0(a4)
800015fc:	00072223          	sw	zero,4(a4)
80001600:	00100713          	li	a4,1
80001604:	12e48263          	beq	s1,a4,80001728 <__udivmoddi4+0x39c>
80001608:	00048513          	mv	a0,s1
8000160c:	00f12223          	sw	a5,4(sp)
80001610:	00612023          	sw	t1,0(sp)
80001614:	220000ef          	jal	ra,80001834 <__ctzsi2>
80001618:	00412783          	lw	a5,4(sp)
8000161c:	00012303          	lw	t1,0(sp)
80001620:	02000413          	li	s0,32
80001624:	40a40433          	sub	s0,s0,a0
80001628:	00050713          	mv	a4,a0
8000162c:	00879433          	sll	s0,a5,s0
80001630:	00a35533          	srl	a0,t1,a0
80001634:	00a46533          	or	a0,s0,a0
80001638:	00e7d5b3          	srl	a1,a5,a4
8000163c:	da5ff06f          	j	800013e0 <__udivmoddi4+0x54>
80001640:	00100073          	ebreak
80001644:	00412703          	lw	a4,4(sp)
80001648:	0c071663          	bnez	a4,80001714 <__udivmoddi4+0x388>
8000164c:	00000513          	li	a0,0
80001650:	00000593          	li	a1,0
80001654:	d8dff06f          	j	800013e0 <__udivmoddi4+0x54>
80001658:	00a12623          	sw	a0,12(sp)
8000165c:	00048513          	mv	a0,s1
80001660:	00068413          	mv	s0,a3
80001664:	00d12823          	sw	a3,16(sp)
80001668:	00f12023          	sw	a5,0(sp)
8000166c:	130000ef          	jal	ra,8000179c <__clzsi2>
80001670:	00012703          	lw	a4,0(sp)
80001674:	00050613          	mv	a2,a0
80001678:	00c12023          	sw	a2,0(sp)
8000167c:	00070513          	mv	a0,a4
80001680:	00e12423          	sw	a4,8(sp)
80001684:	118000ef          	jal	ra,8000179c <__clzsi2>
80001688:	00012603          	lw	a2,0(sp)
8000168c:	00c12303          	lw	t1,12(sp)
80001690:	02000593          	li	a1,32
80001694:	40a60633          	sub	a2,a2,a0
80001698:	02160393          	addi	t2,a2,33
8000169c:	00812703          	lw	a4,8(sp)
800016a0:	01012683          	lw	a3,16(sp)
800016a4:	00030513          	mv	a0,t1
800016a8:	00000793          	li	a5,0
800016ac:	e4b382e3          	beq	t2,a1,800014f0 <__udivmoddi4+0x164>
800016b0:	01f00313          	li	t1,31
800016b4:	0a736e63          	bltu	t1,t2,80001770 <__udivmoddi4+0x3e4>
800016b8:	407585b3          	sub	a1,a1,t2
800016bc:	00755633          	srl	a2,a0,t2
800016c0:	00b71333          	sll	t1,a4,a1
800016c4:	007757b3          	srl	a5,a4,t2
800016c8:	00b51533          	sll	a0,a0,a1
800016cc:	00c36733          	or	a4,t1,a2
800016d0:	e21ff06f          	j	800014f0 <__udivmoddi4+0x164>
800016d4:	00412403          	lw	s0,4(sp)
800016d8:	02040463          	beqz	s0,80001700 <__udivmoddi4+0x374>
800016dc:	00068593          	mv	a1,a3
800016e0:	00078513          	mv	a0,a5
800016e4:	00d12223          	sw	a3,4(sp)
800016e8:	00f12023          	sw	a5,0(sp)
800016ec:	ba8ff0ef          	jal	ra,80000a94 <__umodsi3>
800016f0:	00412683          	lw	a3,4(sp)
800016f4:	00012783          	lw	a5,0(sp)
800016f8:	00042023          	sw	zero,0(s0)
800016fc:	00a42223          	sw	a0,4(s0)
80001700:	00068593          	mv	a1,a3
80001704:	00078513          	mv	a0,a5
80001708:	b44ff0ef          	jal	ra,80000a4c <__hidden___udivsi3>
8000170c:	00000593          	li	a1,0
80001710:	cd1ff06f          	j	800013e0 <__udivmoddi4+0x54>
80001714:	00672023          	sw	t1,0(a4)
80001718:	00f72223          	sw	a5,4(a4)
8000171c:	00000513          	li	a0,0
80001720:	00000593          	li	a1,0
80001724:	cbdff06f          	j	800013e0 <__udivmoddi4+0x54>
80001728:	00030513          	mv	a0,t1
8000172c:	00078593          	mv	a1,a5
80001730:	cb1ff06f          	j	800013e0 <__udivmoddi4+0x54>
80001734:	00412703          	lw	a4,4(sp)
80001738:	00070863          	beqz	a4,80001748 <__udivmoddi4+0x3bc>
8000173c:	00f67633          	and	a2,a2,a5
80001740:	00a72023          	sw	a0,0(a4)
80001744:	00c72223          	sw	a2,4(a4)
80001748:	00068513          	mv	a0,a3
8000174c:	00f12023          	sw	a5,0(sp)
80001750:	0e4000ef          	jal	ra,80001834 <__ctzsi2>
80001754:	00012783          	lw	a5,0(sp)
80001758:	00000593          	li	a1,0
8000175c:	00a7d533          	srl	a0,a5,a0
80001760:	c81ff06f          	j	800013e0 <__udivmoddi4+0x54>
80001764:	00000793          	li	a5,0
80001768:	00000413          	li	s0,0
8000176c:	d85ff06f          	j	800014f0 <__udivmoddi4+0x164>
80001770:	04000593          	li	a1,64
80001774:	407585b3          	sub	a1,a1,t2
80001778:	00160613          	addi	a2,a2,1
8000177c:	00b51433          	sll	s0,a0,a1
80001780:	00b715b3          	sll	a1,a4,a1
80001784:	00c55533          	srl	a0,a0,a2
80001788:	00a5e533          	or	a0,a1,a0
8000178c:	00c75733          	srl	a4,a4,a2
80001790:	d61ff06f          	j	800014f0 <__udivmoddi4+0x164>

80001794 <__udivdi3>:
80001794:	00000713          	li	a4,0
80001798:	bf5ff06f          	j	8000138c <__udivmoddi4>

8000179c <__clzsi2>:
8000179c:	ffff0637          	lui	a2,0xffff0
800017a0:	00c57633          	and	a2,a0,a2
800017a4:	00163613          	seqz	a2,a2
800017a8:	00461613          	slli	a2,a2,0x4
800017ac:	01000793          	li	a5,16
800017b0:	40c787b3          	sub	a5,a5,a2
800017b4:	00010737          	lui	a4,0x10
800017b8:	00f557b3          	srl	a5,a0,a5
800017bc:	f0070713          	addi	a4,a4,-256 # ff00 <_entry_offset+0xff00>
800017c0:	00e7f733          	and	a4,a5,a4
800017c4:	00173713          	seqz	a4,a4
800017c8:	00371713          	slli	a4,a4,0x3
800017cc:	00800693          	li	a3,8
800017d0:	40e686b3          	sub	a3,a3,a4
800017d4:	00d7d7b3          	srl	a5,a5,a3
800017d8:	0f07f593          	andi	a1,a5,240
800017dc:	0015b593          	seqz	a1,a1
800017e0:	00259593          	slli	a1,a1,0x2
800017e4:	00400693          	li	a3,4
800017e8:	40b686b3          	sub	a3,a3,a1
800017ec:	00d7d7b3          	srl	a5,a5,a3
800017f0:	00c7f513          	andi	a0,a5,12
800017f4:	00153513          	seqz	a0,a0
800017f8:	00151513          	slli	a0,a0,0x1
800017fc:	00200313          	li	t1,2
80001800:	40a306b3          	sub	a3,t1,a0
80001804:	00d7d7b3          	srl	a5,a5,a3
80001808:	0017d693          	srli	a3,a5,0x1
8000180c:	0016c693          	xori	a3,a3,1
80001810:	00c70733          	add	a4,a4,a2
80001814:	0016f693          	andi	a3,a3,1
80001818:	00e585b3          	add	a1,a1,a4
8000181c:	40f30333          	sub	t1,t1,a5
80001820:	40d006b3          	neg	a3,a3
80001824:	0066f6b3          	and	a3,a3,t1
80001828:	00b50533          	add	a0,a0,a1
8000182c:	00a68533          	add	a0,a3,a0
80001830:	00008067          	ret

80001834 <__ctzsi2>:
80001834:	01051593          	slli	a1,a0,0x10
80001838:	0105d593          	srli	a1,a1,0x10
8000183c:	0015b593          	seqz	a1,a1
80001840:	00459593          	slli	a1,a1,0x4
80001844:	00b557b3          	srl	a5,a0,a1
80001848:	0ff7f613          	zext.b	a2,a5
8000184c:	00163613          	seqz	a2,a2
80001850:	00361613          	slli	a2,a2,0x3
80001854:	00c7d7b3          	srl	a5,a5,a2
80001858:	00f7f693          	andi	a3,a5,15
8000185c:	0016b693          	seqz	a3,a3
80001860:	00269693          	slli	a3,a3,0x2
80001864:	00d7d7b3          	srl	a5,a5,a3
80001868:	0037f713          	andi	a4,a5,3
8000186c:	00173713          	seqz	a4,a4
80001870:	00171713          	slli	a4,a4,0x1
80001874:	00e7d7b3          	srl	a5,a5,a4
80001878:	0017d513          	srli	a0,a5,0x1
8000187c:	00b60633          	add	a2,a2,a1
80001880:	0017f793          	andi	a5,a5,1
80001884:	00157593          	andi	a1,a0,1
80001888:	00200513          	li	a0,2
8000188c:	40b50533          	sub	a0,a0,a1
80001890:	00c686b3          	add	a3,a3,a2
80001894:	fff78793          	addi	a5,a5,-1
80001898:	00f577b3          	and	a5,a0,a5
8000189c:	00d70533          	add	a0,a4,a3
800018a0:	00a78533          	add	a0,a5,a0
800018a4:	00008067          	ret

800018a8 <rand>:
800018a8:	00000697          	auipc	a3,0x0
800018ac:	6c868693          	addi	a3,a3,1736 # 80001f70 <next>
800018b0:	0006a603          	lw	a2,0(a3)
800018b4:	00861713          	slli	a4,a2,0x8
800018b8:	40c70733          	sub	a4,a4,a2
800018bc:	00371713          	slli	a4,a4,0x3
800018c0:	00c70733          	add	a4,a4,a2
800018c4:	00771713          	slli	a4,a4,0x7
800018c8:	00c70733          	add	a4,a4,a2
800018cc:	00371713          	slli	a4,a4,0x3
800018d0:	40c70733          	sub	a4,a4,a2
800018d4:	00571793          	slli	a5,a4,0x5
800018d8:	00f707b3          	add	a5,a4,a5
800018dc:	00279793          	slli	a5,a5,0x2
800018e0:	40c787b3          	sub	a5,a5,a2
800018e4:	00279793          	slli	a5,a5,0x2
800018e8:	00003737          	lui	a4,0x3
800018ec:	00c787b3          	add	a5,a5,a2
800018f0:	03970713          	addi	a4,a4,57 # 3039 <_entry_offset+0x3039>
800018f4:	00e787b3          	add	a5,a5,a4
800018f8:	00179513          	slli	a0,a5,0x1
800018fc:	00f6a023          	sw	a5,0(a3)
80001900:	01155513          	srli	a0,a0,0x11
80001904:	00008067          	ret
