
/home/xietianle/ysyx-workbench/am-kernels/kernels/typing-game/build/typing-game-riscv32-nemu.elf:     file format elf32-littleriscv


Disassembly of section .text:

80000000 <_start>:
80000000:	00000413          	li	s0,0
80000004:	00015117          	auipc	sp,0x15
80000008:	ffc10113          	addi	sp,sp,-4 # 80015000 <_end>
8000000c:	08d000ef          	jal	ra,80000898 <_trm_init>

80000010 <new_char>:
80000010:	ff010113          	addi	sp,sp,-16
80000014:	00912223          	sw	s1,4(sp)
80000018:	00002497          	auipc	s1,0x2
8000001c:	ec448493          	addi	s1,s1,-316 # 80001edc <chars>
80000020:	00812423          	sw	s0,8(sp)
80000024:	00112623          	sw	ra,12(sp)
80000028:	01212023          	sw	s2,0(sp)
8000002c:	00048793          	mv	a5,s1
80000030:	00000413          	li	s0,0
80000034:	08000693          	li	a3,128
80000038:	00c0006f          	j	80000044 <new_char+0x34>
8000003c:	00140413          	addi	s0,s0,1
80000040:	08d40263          	beq	s0,a3,800000c4 <new_char+0xb4>
80000044:	0007c703          	lbu	a4,0(a5)
80000048:	01478793          	addi	a5,a5,20
8000004c:	fe0718e3          	bnez	a4,8000003c <new_char+0x2c>
80000050:	80000937          	lui	s2,0x80000
80000054:	5e0010ef          	jal	ra,80001634 <rand>
80000058:	fff94913          	not	s2,s2
8000005c:	012577b3          	and	a5,a0,s2
80000060:	01a00713          	li	a4,26
80000064:	02e7e7b3          	rem	a5,a5,a4
80000068:	00241713          	slli	a4,s0,0x2
8000006c:	00870733          	add	a4,a4,s0
80000070:	00271713          	slli	a4,a4,0x2
80000074:	00e48433          	add	s0,s1,a4
80000078:	0000d497          	auipc	s1,0xd
8000007c:	8744a483          	lw	s1,-1932(s1) # 8000c8ec <screen_w>
80000080:	ff948493          	addi	s1,s1,-7
80000084:	04178793          	addi	a5,a5,65
80000088:	00f40023          	sb	a5,0(s0)
8000008c:	5a8010ef          	jal	ra,80001634 <rand>
80000090:	012577b3          	and	a5,a0,s2
80000094:	0297e7b3          	rem	a5,a5,s1
80000098:	00042423          	sw	zero,8(s0)
8000009c:	0000d497          	auipc	s1,0xd
800000a0:	84c4a483          	lw	s1,-1972(s1) # 8000c8e8 <screen_h>
800000a4:	ff148493          	addi	s1,s1,-15
800000a8:	00f42223          	sw	a5,4(s0)
800000ac:	588010ef          	jal	ra,80001634 <rand>
800000b0:	00f57793          	andi	a5,a0,15
800000b4:	02d78793          	addi	a5,a5,45
800000b8:	02f4c4b3          	div	s1,s1,a5
800000bc:	00042823          	sw	zero,16(s0)
800000c0:	00942623          	sw	s1,12(s0)
800000c4:	00c12083          	lw	ra,12(sp)
800000c8:	00812403          	lw	s0,8(sp)
800000cc:	00412483          	lw	s1,4(sp)
800000d0:	00012903          	lw	s2,0(sp)
800000d4:	01010113          	addi	sp,sp,16
800000d8:	00008067          	ret

800000dc <game_logic_update>:
800000dc:	00600793          	li	a5,6
800000e0:	02f567b3          	rem	a5,a0,a5
800000e4:	ff010113          	addi	sp,sp,-16
800000e8:	00112623          	sw	ra,12(sp)
800000ec:	0a078a63          	beqz	a5,800001a0 <game_logic_update+0xc4>
800000f0:	0000ce17          	auipc	t3,0xc
800000f4:	7f0e0e13          	addi	t3,t3,2032 # 8000c8e0 <miss>
800000f8:	0000c597          	auipc	a1,0xc
800000fc:	7f05a583          	lw	a1,2032(a1) # 8000c8e8 <screen_h>
80000100:	000e2503          	lw	a0,0(t3)
80000104:	ff058313          	addi	t1,a1,-16
80000108:	00002797          	auipc	a5,0x2
8000010c:	dd478793          	addi	a5,a5,-556 # 80001edc <chars>
80000110:	00002617          	auipc	a2,0x2
80000114:	7cc60613          	addi	a2,a2,1996 # 800028dc <texture>
80000118:	00000813          	li	a6,0
8000011c:	01e00893          	li	a7,30
80000120:	0180006f          	j	80000138 <game_logic_update+0x5c>
80000124:	00d7a823          	sw	a3,16(a5)
80000128:	00069463          	bnez	a3,80000130 <game_logic_update+0x54>
8000012c:	00078023          	sb	zero,0(a5)
80000130:	01478793          	addi	a5,a5,20
80000134:	04c78863          	beq	a5,a2,80000184 <game_logic_update+0xa8>
80000138:	0007c703          	lbu	a4,0(a5)
8000013c:	fe070ae3          	beqz	a4,80000130 <game_logic_update+0x54>
80000140:	0107a703          	lw	a4,16(a5)
80000144:	fff70693          	addi	a3,a4,-1
80000148:	fce04ee3          	bgtz	a4,80000124 <game_logic_update+0x48>
8000014c:	0087a703          	lw	a4,8(a5)
80000150:	00c7a683          	lw	a3,12(a5)
80000154:	00d70733          	add	a4,a4,a3
80000158:	00e7a423          	sw	a4,8(a5)
8000015c:	01070693          	addi	a3,a4,16
80000160:	02074c63          	bltz	a4,80000198 <game_logic_update+0xbc>
80000164:	fcb6c6e3          	blt	a3,a1,80000130 <game_logic_update+0x54>
80000168:	0007a623          	sw	zero,12(a5)
8000016c:	0067a423          	sw	t1,8(a5)
80000170:	0117a823          	sw	a7,16(a5)
80000174:	01478793          	addi	a5,a5,20
80000178:	00150513          	addi	a0,a0,1
8000017c:	00100813          	li	a6,1
80000180:	fac79ce3          	bne	a5,a2,80000138 <game_logic_update+0x5c>
80000184:	00080463          	beqz	a6,8000018c <game_logic_update+0xb0>
80000188:	00ae2023          	sw	a0,0(t3)
8000018c:	00c12083          	lw	ra,12(sp)
80000190:	01010113          	addi	sp,sp,16
80000194:	00008067          	ret
80000198:	00078023          	sb	zero,0(a5)
8000019c:	fc9ff06f          	j	80000164 <game_logic_update+0x88>
800001a0:	e71ff0ef          	jal	ra,80000010 <new_char>
800001a4:	f4dff06f          	j	800000f0 <game_logic_update+0x14>

800001a8 <render>:
800001a8:	fb010113          	addi	sp,sp,-80
800001ac:	03612823          	sw	s6,48(sp)
800001b0:	0000cb17          	auipc	s6,0xc
800001b4:	734b0b13          	addi	s6,s6,1844 # 8000c8e4 <n.0>
800001b8:	000b2783          	lw	a5,0(s6)
800001bc:	04112623          	sw	ra,76(sp)
800001c0:	04812423          	sw	s0,72(sp)
800001c4:	04912223          	sw	s1,68(sp)
800001c8:	05212023          	sw	s2,64(sp)
800001cc:	03312e23          	sw	s3,60(sp)
800001d0:	03412c23          	sw	s4,56(sp)
800001d4:	03512a23          	sw	s5,52(sp)
800001d8:	03712623          	sw	s7,44(sp)
800001dc:	03812423          	sw	s8,40(sp)
800001e0:	1af05c63          	blez	a5,80000398 <render+0x1f0>
800001e4:	0000c917          	auipc	s2,0xc
800001e8:	2f890913          	addi	s2,s2,760 # 8000c4dc <x.2>
800001ec:	0000c497          	auipc	s1,0xc
800001f0:	4f048493          	addi	s1,s1,1264 # 8000c6dc <y.1>
800001f4:	00000413          	li	s0,0
800001f8:	00002a97          	auipc	s5,0x2
800001fc:	ae4a8a93          	addi	s5,s5,-1308 # 80001cdc <blank>
80000200:	00810b93          	addi	s7,sp,8
80000204:	00800a13          	li	s4,8
80000208:	01000993          	li	s3,16
8000020c:	0004a783          	lw	a5,0(s1)
80000210:	00092703          	lw	a4,0(s2)
80000214:	000b8593          	mv	a1,s7
80000218:	00b00513          	li	a0,11
8000021c:	00f12623          	sw	a5,12(sp)
80000220:	00e12423          	sw	a4,8(sp)
80000224:	01512823          	sw	s5,16(sp)
80000228:	01412a23          	sw	s4,20(sp)
8000022c:	01312c23          	sw	s3,24(sp)
80000230:	00010e23          	sb	zero,28(sp)
80000234:	790000ef          	jal	ra,800009c4 <ioe_write>
80000238:	000b2783          	lw	a5,0(s6)
8000023c:	00140413          	addi	s0,s0,1
80000240:	00490913          	addi	s2,s2,4
80000244:	00448493          	addi	s1,s1,4
80000248:	fcf442e3          	blt	s0,a5,8000020c <render+0x64>
8000024c:	0000c797          	auipc	a5,0xc
80000250:	6807ac23          	sw	zero,1688(a5) # 8000c8e4 <n.0>
80000254:	00002417          	auipc	s0,0x2
80000258:	c8840413          	addi	s0,s0,-888 # 80001edc <chars>
8000025c:	00002c17          	auipc	s8,0x2
80000260:	680c0c13          	addi	s8,s8,1664 # 800028dc <texture>
80000264:	0000ca97          	auipc	s5,0xc
80000268:	278a8a93          	addi	s5,s5,632 # 8000c4dc <x.2>
8000026c:	0000ca17          	auipc	s4,0xc
80000270:	470a0a13          	addi	s4,s4,1136 # 8000c6dc <y.1>
80000274:	00002997          	auipc	s3,0x2
80000278:	66898993          	addi	s3,s3,1640 # 800028dc <texture>
8000027c:	00800913          	li	s2,8
80000280:	01000493          	li	s1,16
80000284:	00044703          	lbu	a4,0(s0)
80000288:	000b8593          	mv	a1,s7
8000028c:	00b00513          	li	a0,11
80000290:	fbf70793          	addi	a5,a4,-65
80000294:	06070863          	beqz	a4,80000304 <render+0x15c>
80000298:	000b2703          	lw	a4,0(s6)
8000029c:	00442883          	lw	a7,4(s0)
800002a0:	00842803          	lw	a6,8(s0)
800002a4:	00c42303          	lw	t1,12(s0)
800002a8:	00271693          	slli	a3,a4,0x2
800002ac:	00da8e33          	add	t3,s5,a3
800002b0:	00170713          	addi	a4,a4,1
800002b4:	00da06b3          	add	a3,s4,a3
800002b8:	00603633          	snez	a2,t1
800002bc:	00eb2023          	sw	a4,0(s6)
800002c0:	011e2023          	sw	a7,0(t3)
800002c4:	0106a023          	sw	a6,0(a3)
800002c8:	40c00633          	neg	a2,a2
800002cc:	00000713          	li	a4,0
800002d0:	00604663          	bgtz	t1,800002dc <render+0x134>
800002d4:	01a67713          	andi	a4,a2,26
800002d8:	01a70713          	addi	a4,a4,26
800002dc:	00e787b3          	add	a5,a5,a4
800002e0:	00979793          	slli	a5,a5,0x9
800002e4:	013787b3          	add	a5,a5,s3
800002e8:	01112423          	sw	a7,8(sp)
800002ec:	01012623          	sw	a6,12(sp)
800002f0:	00f12823          	sw	a5,16(sp)
800002f4:	01212a23          	sw	s2,20(sp)
800002f8:	00912c23          	sw	s1,24(sp)
800002fc:	00010e23          	sb	zero,28(sp)
80000300:	6c4000ef          	jal	ra,800009c4 <ioe_write>
80000304:	01440413          	addi	s0,s0,20
80000308:	f7841ee3          	bne	s0,s8,80000284 <render+0xdc>
8000030c:	00100793          	li	a5,1
80000310:	000b8593          	mv	a1,s7
80000314:	00b00513          	li	a0,11
80000318:	00012423          	sw	zero,8(sp)
8000031c:	00012623          	sw	zero,12(sp)
80000320:	00012823          	sw	zero,16(sp)
80000324:	00012a23          	sw	zero,20(sp)
80000328:	00012c23          	sw	zero,24(sp)
8000032c:	00f10e23          	sb	a5,28(sp)
80000330:	02800413          	li	s0,40
80000334:	690000ef          	jal	ra,800009c4 <ioe_write>
80000338:	fff40413          	addi	s0,s0,-1
8000033c:	00800513          	li	a0,8
80000340:	540000ef          	jal	ra,80000880 <putch>
80000344:	fe041ae3          	bnez	s0,80000338 <render+0x190>
80000348:	04812403          	lw	s0,72(sp)
8000034c:	04c12083          	lw	ra,76(sp)
80000350:	04412483          	lw	s1,68(sp)
80000354:	04012903          	lw	s2,64(sp)
80000358:	03c12983          	lw	s3,60(sp)
8000035c:	03812a03          	lw	s4,56(sp)
80000360:	03412a83          	lw	s5,52(sp)
80000364:	03012b03          	lw	s6,48(sp)
80000368:	02c12b83          	lw	s7,44(sp)
8000036c:	02812c03          	lw	s8,40(sp)
80000370:	0000c697          	auipc	a3,0xc
80000374:	5806a683          	lw	a3,1408(a3) # 8000c8f0 <wrong>
80000378:	0000c617          	auipc	a2,0xc
8000037c:	56862603          	lw	a2,1384(a2) # 8000c8e0 <miss>
80000380:	0000c597          	auipc	a1,0xc
80000384:	55c5a583          	lw	a1,1372(a1) # 8000c8dc <hit>
80000388:	00001517          	auipc	a0,0x1
8000038c:	2e050513          	addi	a0,a0,736 # 80001668 <_etext>
80000390:	05010113          	addi	sp,sp,80
80000394:	0650006f          	j	80000bf8 <printf>
80000398:	00810b93          	addi	s7,sp,8
8000039c:	eb1ff06f          	j	8000024c <render+0xa4>

800003a0 <check_hit>:
800003a0:	00002817          	auipc	a6,0x2
800003a4:	b3c80813          	addi	a6,a6,-1220 # 80001edc <chars>
800003a8:	00080793          	mv	a5,a6
800003ac:	00000713          	li	a4,0
800003b0:	fff00593          	li	a1,-1
800003b4:	fff00313          	li	t1,-1
800003b8:	08000613          	li	a2,128
800003bc:	0100006f          	j	800003cc <check_hit+0x2c>
800003c0:	00170713          	addi	a4,a4,1
800003c4:	01478793          	addi	a5,a5,20
800003c8:	04c70263          	beq	a4,a2,8000040c <check_hit+0x6c>
800003cc:	0007c683          	lbu	a3,0(a5)
800003d0:	fea698e3          	bne	a3,a0,800003c0 <check_hit+0x20>
800003d4:	00c7a683          	lw	a3,12(a5)
800003d8:	fed054e3          	blez	a3,800003c0 <check_hit+0x20>
800003dc:	00259693          	slli	a3,a1,0x2
800003e0:	00b686b3          	add	a3,a3,a1
800003e4:	00269693          	slli	a3,a3,0x2
800003e8:	00d806b3          	add	a3,a6,a3
800003ec:	00658863          	beq	a1,t1,800003fc <check_hit+0x5c>
800003f0:	0087a883          	lw	a7,8(a5)
800003f4:	0086a683          	lw	a3,8(a3)
800003f8:	fd16d4e3          	bge	a3,a7,800003c0 <check_hit+0x20>
800003fc:	00070593          	mv	a1,a4
80000400:	00170713          	addi	a4,a4,1
80000404:	01478793          	addi	a5,a5,20
80000408:	fcc712e3          	bne	a4,a2,800003cc <check_hit+0x2c>
8000040c:	fff00793          	li	a5,-1
80000410:	04f58463          	beq	a1,a5,80000458 <check_hit+0xb8>
80000414:	0000c717          	auipc	a4,0xc
80000418:	4d472703          	lw	a4,1236(a4) # 8000c8e8 <screen_h>
8000041c:	00f00793          	li	a5,15
80000420:	40e787b3          	sub	a5,a5,a4
80000424:	01e00713          	li	a4,30
80000428:	02e7c7b3          	div	a5,a5,a4
8000042c:	0000c617          	auipc	a2,0xc
80000430:	4b060613          	addi	a2,a2,1200 # 8000c8dc <hit>
80000434:	00062683          	lw	a3,0(a2)
80000438:	00259713          	slli	a4,a1,0x2
8000043c:	00b70733          	add	a4,a4,a1
80000440:	00271713          	slli	a4,a4,0x2
80000444:	00168693          	addi	a3,a3,1
80000448:	00e80833          	add	a6,a6,a4
8000044c:	00d62023          	sw	a3,0(a2)
80000450:	00f82623          	sw	a5,12(a6)
80000454:	00008067          	ret
80000458:	0000c717          	auipc	a4,0xc
8000045c:	49870713          	addi	a4,a4,1176 # 8000c8f0 <wrong>
80000460:	00072783          	lw	a5,0(a4)
80000464:	00178793          	addi	a5,a5,1
80000468:	00f72023          	sw	a5,0(a4)
8000046c:	00008067          	ret

80000470 <video_init>:
80000470:	fb010113          	addi	sp,sp,-80
80000474:	04112623          	sw	ra,76(sp)
80000478:	04812423          	sw	s0,72(sp)
8000047c:	05212023          	sw	s2,64(sp)
80000480:	05010413          	addi	s0,sp,80
80000484:	03412c23          	sw	s4,56(sp)
80000488:	04912223          	sw	s1,68(sp)
8000048c:	03312e23          	sw	s3,60(sp)
80000490:	03512a23          	sw	s5,52(sp)
80000494:	03612823          	sw	s6,48(sp)
80000498:	03712623          	sw	s7,44(sp)
8000049c:	fb840593          	addi	a1,s0,-72
800004a0:	00900513          	li	a0,9
800004a4:	504000ef          	jal	ra,800009a8 <ioe_read>
800004a8:	fbc42783          	lw	a5,-68(s0)
800004ac:	fb840593          	addi	a1,s0,-72
800004b0:	0000c917          	auipc	s2,0xc
800004b4:	43c90913          	addi	s2,s2,1084 # 8000c8ec <screen_w>
800004b8:	00900513          	li	a0,9
800004bc:	00f92023          	sw	a5,0(s2)
800004c0:	4e8000ef          	jal	ra,800009a8 <ioe_read>
800004c4:	fc042583          	lw	a1,-64(s0)
800004c8:	0000ca17          	auipc	s4,0xc
800004cc:	420a0a13          	addi	s4,s4,1056 # 8000c8e8 <screen_h>
800004d0:	002a1737          	lui	a4,0x2a1
800004d4:	00ba2023          	sw	a1,0(s4)
800004d8:	00002797          	auipc	a5,0x2
800004dc:	80478793          	addi	a5,a5,-2044 # 80001cdc <blank>
800004e0:	00002697          	auipc	a3,0x2
800004e4:	9fc68693          	addi	a3,a3,-1540 # 80001edc <chars>
800004e8:	a2970713          	addi	a4,a4,-1495 # 2a0a29 <_entry_offset+0x2a0a29>
800004ec:	00e7a023          	sw	a4,0(a5)
800004f0:	00478793          	addi	a5,a5,4
800004f4:	fed79ce3          	bne	a5,a3,800004ec <video_init+0x7c>
800004f8:	00092783          	lw	a5,0(s2)
800004fc:	002a1637          	lui	a2,0x2a1
80000500:	00000693          	li	a3,0
80000504:	00279713          	slli	a4,a5,0x2
80000508:	00f70713          	addi	a4,a4,15
8000050c:	ff077713          	andi	a4,a4,-16
80000510:	40e10133          	sub	sp,sp,a4
80000514:	00010993          	mv	s3,sp
80000518:	00098713          	mv	a4,s3
8000051c:	a2960613          	addi	a2,a2,-1495 # 2a0a29 <_entry_offset+0x2a0a29>
80000520:	00f05a63          	blez	a5,80000534 <video_init+0xc4>
80000524:	00c72023          	sw	a2,0(a4)
80000528:	00168693          	addi	a3,a3,1
8000052c:	00470713          	addi	a4,a4,4
80000530:	fed79ae3          	bne	a5,a3,80000524 <video_init+0xb4>
80000534:	00000493          	li	s1,0
80000538:	00100a93          	li	s5,1
8000053c:	00b04663          	bgtz	a1,80000548 <video_init+0xd8>
80000540:	0380006f          	j	80000578 <video_init+0x108>
80000544:	00092783          	lw	a5,0(s2)
80000548:	fb840593          	addi	a1,s0,-72
8000054c:	00b00513          	li	a0,11
80000550:	fa942e23          	sw	s1,-68(s0)
80000554:	fcf42223          	sw	a5,-60(s0)
80000558:	fa042c23          	sw	zero,-72(s0)
8000055c:	fd342023          	sw	s3,-64(s0)
80000560:	fd542423          	sw	s5,-56(s0)
80000564:	fc040623          	sb	zero,-52(s0)
80000568:	45c000ef          	jal	ra,800009c4 <ioe_write>
8000056c:	000a2783          	lw	a5,0(s4)
80000570:	00148493          	addi	s1,s1,1
80000574:	fcf4c8e3          	blt	s1,a5,80000544 <video_init+0xd4>
80000578:	002a1837          	lui	a6,0x2a1
8000057c:	00eef2b7          	lui	t0,0xeef
80000580:	0000dfb7          	lui	t6,0xd
80000584:	00ff0f37          	lui	t5,0xff0
80000588:	00007e37          	lui	t3,0x7
8000058c:	00003337          	lui	t1,0x3
80000590:	00001bb7          	lui	s7,0x1
80000594:	00001b17          	auipc	s6,0x1
80000598:	5a4b0b13          	addi	s6,s6,1444 # 80001b38 <font>
8000059c:	00002a97          	auipc	s5,0x2
800005a0:	340a8a93          	addi	s5,s5,832 # 800028dc <texture>
800005a4:	00000a13          	li	s4,0
800005a8:	a2980813          	addi	a6,a6,-1495 # 2a0a29 <_entry_offset+0x2a0a29>
800005ac:	eee28293          	addi	t0,t0,-274 # eeeeee <_entry_offset+0xeeeeee>
800005b0:	c33f8f93          	addi	t6,t6,-973 # cc33 <_entry_offset+0xcc33>
800005b4:	033f0f13          	addi	t5,t5,51 # ff0033 <_entry_offset+0xff0033>
800005b8:	800e0e13          	addi	t3,t3,-2048 # 6800 <_entry_offset+0x6800>
800005bc:	40030313          	addi	t1,t1,1024 # 3400 <_entry_offset+0x3400>
800005c0:	fff00e93          	li	t4,-1
800005c4:	08000993          	li	s3,128
800005c8:	d00b8b93          	addi	s7,s7,-768 # d00 <_entry_offset+0xd00>
800005cc:	000a8913          	mv	s2,s5
800005d0:	000b0493          	mv	s1,s6
800005d4:	00000393          	li	t2,0
800005d8:	0004c883          	lbu	a7,0(s1)
800005dc:	00090793          	mv	a5,s2
800005e0:	00700713          	li	a4,7
800005e4:	0300006f          	j	80000614 <video_init+0x1a4>
800005e8:	00028693          	mv	a3,t0
800005ec:	00d7a023          	sw	a3,0(a5)
800005f0:	01c785b3          	add	a1,a5,t3
800005f4:	000f8513          	mv	a0,t6
800005f8:	006786b3          	add	a3,a5,t1
800005fc:	000f0613          	mv	a2,t5
80000600:	00a5a023          	sw	a0,0(a1)
80000604:	00c6a023          	sw	a2,0(a3)
80000608:	fff70713          	addi	a4,a4,-1
8000060c:	00478793          	addi	a5,a5,4
80000610:	03d70e63          	beq	a4,t4,8000064c <video_init+0x1dc>
80000614:	40e8d6b3          	sra	a3,a7,a4
80000618:	0016f693          	andi	a3,a3,1
8000061c:	fc0696e3          	bnez	a3,800005e8 <video_init+0x178>
80000620:	00080693          	mv	a3,a6
80000624:	00d7a023          	sw	a3,0(a5)
80000628:	01c785b3          	add	a1,a5,t3
8000062c:	00080513          	mv	a0,a6
80000630:	006786b3          	add	a3,a5,t1
80000634:	00080613          	mv	a2,a6
80000638:	00a5a023          	sw	a0,0(a1)
8000063c:	00c6a023          	sw	a2,0(a3)
80000640:	fff70713          	addi	a4,a4,-1
80000644:	00478793          	addi	a5,a5,4
80000648:	fdd716e3          	bne	a4,t4,80000614 <video_init+0x1a4>
8000064c:	00838393          	addi	t2,t2,8
80000650:	00148493          	addi	s1,s1,1
80000654:	02090913          	addi	s2,s2,32
80000658:	f93390e3          	bne	t2,s3,800005d8 <video_init+0x168>
8000065c:	080a0a13          	addi	s4,s4,128
80000660:	010b0b13          	addi	s6,s6,16
80000664:	200a8a93          	addi	s5,s5,512
80000668:	f77a12e3          	bne	s4,s7,800005cc <video_init+0x15c>
8000066c:	fb040113          	addi	sp,s0,-80
80000670:	04c12083          	lw	ra,76(sp)
80000674:	04812403          	lw	s0,72(sp)
80000678:	04412483          	lw	s1,68(sp)
8000067c:	04012903          	lw	s2,64(sp)
80000680:	03c12983          	lw	s3,60(sp)
80000684:	03812a03          	lw	s4,56(sp)
80000688:	03412a83          	lw	s5,52(sp)
8000068c:	03012b03          	lw	s6,48(sp)
80000690:	02c12b83          	lw	s7,44(sp)
80000694:	05010113          	addi	sp,sp,80
80000698:	00008067          	ret

8000069c <main>:
8000069c:	fc010113          	addi	sp,sp,-64
800006a0:	02112e23          	sw	ra,60(sp)
800006a4:	02812c23          	sw	s0,56(sp)
800006a8:	02912a23          	sw	s1,52(sp)
800006ac:	03212823          	sw	s2,48(sp)
800006b0:	03312623          	sw	s3,44(sp)
800006b4:	03412423          	sw	s4,40(sp)
800006b8:	03512223          	sw	s5,36(sp)
800006bc:	03612023          	sw	s6,32(sp)
800006c0:	01712e23          	sw	s7,28(sp)
800006c4:	01812c23          	sw	s8,24(sp)
800006c8:	284000ef          	jal	ra,8000094c <ioe_init>
800006cc:	da5ff0ef          	jal	ra,80000470 <video_init>
800006d0:	00810593          	addi	a1,sp,8
800006d4:	00400513          	li	a0,4
800006d8:	2d0000ef          	jal	ra,800009a8 <ioe_read>
800006dc:	00814783          	lbu	a5,8(sp)
800006e0:	06079063          	bnez	a5,80000740 <main+0xa4>
800006e4:	00001417          	auipc	s0,0x1
800006e8:	fa440413          	addi	s0,s0,-92 # 80001688 <_etext+0x20>
800006ec:	04100513          	li	a0,65
800006f0:	00140413          	addi	s0,s0,1
800006f4:	18c000ef          	jal	ra,80000880 <putch>
800006f8:	00044503          	lbu	a0,0(s0)
800006fc:	fe051ae3          	bnez	a0,800006f0 <main+0x54>
80000700:	00001417          	auipc	s0,0x1
80000704:	f9440413          	addi	s0,s0,-108 # 80001694 <_etext+0x2c>
80000708:	07200513          	li	a0,114
8000070c:	00140413          	addi	s0,s0,1
80000710:	170000ef          	jal	ra,80000880 <putch>
80000714:	00044503          	lbu	a0,0(s0)
80000718:	fe051ae3          	bnez	a0,8000070c <main+0x70>
8000071c:	00001417          	auipc	s0,0x1
80000720:	f8840413          	addi	s0,s0,-120 # 800016a4 <_etext+0x3c>
80000724:	02000513          	li	a0,32
80000728:	00140413          	addi	s0,s0,1
8000072c:	154000ef          	jal	ra,80000880 <putch>
80000730:	00044503          	lbu	a0,0(s0)
80000734:	fe051ae3          	bnez	a0,80000728 <main+0x8c>
80000738:	00100513          	li	a0,1
8000073c:	150000ef          	jal	ra,8000088c <halt>
80000740:	00810593          	addi	a1,sp,8
80000744:	00700513          	li	a0,7
80000748:	260000ef          	jal	ra,800009a8 <ioe_read>
8000074c:	00814783          	lbu	a5,8(sp)
80000750:	04079e63          	bnez	a5,800007ac <main+0x110>
80000754:	00001417          	auipc	s0,0x1
80000758:	f3440413          	addi	s0,s0,-204 # 80001688 <_etext+0x20>
8000075c:	04100513          	li	a0,65
80000760:	00140413          	addi	s0,s0,1
80000764:	11c000ef          	jal	ra,80000880 <putch>
80000768:	00044503          	lbu	a0,0(s0)
8000076c:	fe051ae3          	bnez	a0,80000760 <main+0xc4>
80000770:	00001417          	auipc	s0,0x1
80000774:	f8440413          	addi	s0,s0,-124 # 800016f4 <_etext+0x8c>
80000778:	07200513          	li	a0,114
8000077c:	00140413          	addi	s0,s0,1
80000780:	100000ef          	jal	ra,80000880 <putch>
80000784:	00044503          	lbu	a0,0(s0)
80000788:	fe051ae3          	bnez	a0,8000077c <main+0xe0>
8000078c:	00001417          	auipc	s0,0x1
80000790:	f7c40413          	addi	s0,s0,-132 # 80001708 <_etext+0xa0>
80000794:	02000513          	li	a0,32
80000798:	00140413          	addi	s0,s0,1
8000079c:	0e4000ef          	jal	ra,80000880 <putch>
800007a0:	00044503          	lbu	a0,0(s0)
800007a4:	fe051ae3          	bnez	a0,80000798 <main+0xfc>
800007a8:	f91ff06f          	j	80000738 <main+0x9c>
800007ac:	00001517          	auipc	a0,0x1
800007b0:	fac50513          	addi	a0,a0,-84 # 80001758 <_etext+0xf0>
800007b4:	444000ef          	jal	ra,80000bf8 <printf>
800007b8:	00810593          	addi	a1,sp,8
800007bc:	00600513          	li	a0,6
800007c0:	1e8000ef          	jal	ra,800009a8 <ioe_read>
800007c4:	00812b03          	lw	s6,8(sp)
800007c8:	00c12a83          	lw	s5,12(sp)
800007cc:	00008937          	lui	s2,0x8
800007d0:	00000b93          	li	s7,0
800007d4:	00000413          	li	s0,0
800007d8:	23590913          	addi	s2,s2,565 # 8235 <_entry_offset+0x8235>
800007dc:	00000993          	li	s3,0
800007e0:	00100493          	li	s1,1
800007e4:	00001a17          	auipc	s4,0x1
800007e8:	054a0a13          	addi	s4,s4,84 # 80001838 <lut>
800007ec:	00810593          	addi	a1,sp,8
800007f0:	00600513          	li	a0,6
800007f4:	1b4000ef          	jal	ra,800009a8 <ioe_read>
800007f8:	00812583          	lw	a1,8(sp)
800007fc:	00c12783          	lw	a5,12(sp)
80000800:	00090613          	mv	a2,s2
80000804:	41658533          	sub	a0,a1,s6
80000808:	00a5b5b3          	sltu	a1,a1,a0
8000080c:	415787b3          	sub	a5,a5,s5
80000810:	00098693          	mv	a3,s3
80000814:	40b785b3          	sub	a1,a5,a1
80000818:	509000ef          	jal	ra,80001520 <__udivdi3>
8000081c:	00050c13          	mv	s8,a0
80000820:	00a45a63          	bge	s0,a0,80000834 <main+0x198>
80000824:	00040513          	mv	a0,s0
80000828:	00140413          	addi	s0,s0,1
8000082c:	8b1ff0ef          	jal	ra,800000dc <game_logic_update>
80000830:	fe8c1ae3          	bne	s8,s0,80000824 <main+0x188>
80000834:	00810593          	addi	a1,sp,8
80000838:	00800513          	li	a0,8
8000083c:	16c000ef          	jal	ra,800009a8 <ioe_read>
80000840:	00c12783          	lw	a5,12(sp)
80000844:	00814703          	lbu	a4,8(sp)
80000848:	02078063          	beqz	a5,80000868 <main+0x1cc>
8000084c:	fe0704e3          	beqz	a4,80000834 <main+0x198>
80000850:	02978463          	beq	a5,s1,80000878 <main+0x1dc>
80000854:	00fa07b3          	add	a5,s4,a5
80000858:	0007c503          	lbu	a0,0(a5)
8000085c:	fc050ce3          	beqz	a0,80000834 <main+0x198>
80000860:	b41ff0ef          	jal	ra,800003a0 <check_hit>
80000864:	fd1ff06f          	j	80000834 <main+0x198>
80000868:	f88bd2e3          	bge	s7,s0,800007ec <main+0x150>
8000086c:	93dff0ef          	jal	ra,800001a8 <render>
80000870:	00040b93          	mv	s7,s0
80000874:	f79ff06f          	j	800007ec <main+0x150>
80000878:	00000513          	li	a0,0
8000087c:	010000ef          	jal	ra,8000088c <halt>

80000880 <putch>:
80000880:	a00007b7          	lui	a5,0xa0000
80000884:	3ea78c23          	sb	a0,1016(a5) # a00003f8 <_end+0x1ffeb3f8>
80000888:	00008067          	ret

8000088c <halt>:
8000088c:	00050513          	mv	a0,a0
80000890:	00100073          	ebreak
80000894:	0000006f          	j	80000894 <halt+0x8>

80000898 <_trm_init>:
80000898:	ff010113          	addi	sp,sp,-16
8000089c:	00001517          	auipc	a0,0x1
800008a0:	f9850513          	addi	a0,a0,-104 # 80001834 <mainargs>
800008a4:	00112623          	sw	ra,12(sp)
800008a8:	df5ff0ef          	jal	ra,8000069c <main>
800008ac:	00050513          	mv	a0,a0
800008b0:	00100073          	ebreak
800008b4:	0000006f          	j	800008b4 <_trm_init+0x1c>

800008b8 <__am_timer_config>:
800008b8:	00100793          	li	a5,1
800008bc:	00f50023          	sb	a5,0(a0)
800008c0:	00f500a3          	sb	a5,1(a0)
800008c4:	00008067          	ret

800008c8 <__am_input_config>:
800008c8:	00100793          	li	a5,1
800008cc:	00f50023          	sb	a5,0(a0)
800008d0:	00008067          	ret

800008d4 <__am_uart_config>:
800008d4:	00050023          	sb	zero,0(a0)
800008d8:	00008067          	ret

800008dc <__am_net_config>:
800008dc:	00050023          	sb	zero,0(a0)
800008e0:	00008067          	ret

800008e4 <fail>:
800008e4:	ff010113          	addi	sp,sp,-16
800008e8:	00812423          	sw	s0,8(sp)
800008ec:	00112623          	sw	ra,12(sp)
800008f0:	00001417          	auipc	s0,0x1
800008f4:	d9840413          	addi	s0,s0,-616 # 80001688 <_etext+0x20>
800008f8:	04100513          	li	a0,65
800008fc:	00140413          	addi	s0,s0,1
80000900:	f81ff0ef          	jal	ra,80000880 <putch>
80000904:	00044503          	lbu	a0,0(s0)
80000908:	fe051ae3          	bnez	a0,800008fc <fail+0x18>
8000090c:	00001417          	auipc	s0,0x1
80000910:	e6040413          	addi	s0,s0,-416 # 8000176c <_etext+0x104>
80000914:	06100513          	li	a0,97
80000918:	00140413          	addi	s0,s0,1
8000091c:	f65ff0ef          	jal	ra,80000880 <putch>
80000920:	00044503          	lbu	a0,0(s0)
80000924:	fe051ae3          	bnez	a0,80000918 <fail+0x34>
80000928:	00001417          	auipc	s0,0x1
8000092c:	e6040413          	addi	s0,s0,-416 # 80001788 <_etext+0x120>
80000930:	02000513          	li	a0,32
80000934:	00140413          	addi	s0,s0,1
80000938:	f49ff0ef          	jal	ra,80000880 <putch>
8000093c:	00044503          	lbu	a0,0(s0)
80000940:	fe051ae3          	bnez	a0,80000934 <fail+0x50>
80000944:	00100513          	li	a0,1
80000948:	f45ff0ef          	jal	ra,8000088c <halt>

8000094c <ioe_init>:
8000094c:	ff010113          	addi	sp,sp,-16
80000950:	00112623          	sw	ra,12(sp)
80000954:	00001797          	auipc	a5,0x1
80000958:	fe478793          	addi	a5,a5,-28 # 80001938 <lut>
8000095c:	00001697          	auipc	a3,0x1
80000960:	1dc68693          	addi	a3,a3,476 # 80001b38 <font>
80000964:	00000617          	auipc	a2,0x0
80000968:	f8060613          	addi	a2,a2,-128 # 800008e4 <fail>
8000096c:	00c0006f          	j	80000978 <ioe_init+0x2c>
80000970:	00478793          	addi	a5,a5,4
80000974:	00d78c63          	beq	a5,a3,8000098c <ioe_init+0x40>
80000978:	0007a703          	lw	a4,0(a5)
8000097c:	fe071ae3          	bnez	a4,80000970 <ioe_init+0x24>
80000980:	00c7a023          	sw	a2,0(a5)
80000984:	00478793          	addi	a5,a5,4
80000988:	fed798e3          	bne	a5,a3,80000978 <ioe_init+0x2c>
8000098c:	0d0000ef          	jal	ra,80000a5c <__am_gpu_init>
80000990:	050000ef          	jal	ra,800009e0 <__am_timer_init>
80000994:	238000ef          	jal	ra,80000bcc <__am_audio_init>
80000998:	00c12083          	lw	ra,12(sp)
8000099c:	00100513          	li	a0,1
800009a0:	01010113          	addi	sp,sp,16
800009a4:	00008067          	ret

800009a8 <ioe_read>:
800009a8:	00251513          	slli	a0,a0,0x2
800009ac:	00001797          	auipc	a5,0x1
800009b0:	f8c78793          	addi	a5,a5,-116 # 80001938 <lut>
800009b4:	00a787b3          	add	a5,a5,a0
800009b8:	0007a783          	lw	a5,0(a5)
800009bc:	00058513          	mv	a0,a1
800009c0:	00078067          	jr	a5

800009c4 <ioe_write>:
800009c4:	00251513          	slli	a0,a0,0x2
800009c8:	00001797          	auipc	a5,0x1
800009cc:	f7078793          	addi	a5,a5,-144 # 80001938 <lut>
800009d0:	00a787b3          	add	a5,a5,a0
800009d4:	0007a783          	lw	a5,0(a5)
800009d8:	00058513          	mv	a0,a1
800009dc:	00078067          	jr	a5

800009e0 <__am_timer_init>:
800009e0:	00008067          	ret

800009e4 <__am_timer_uptime>:
800009e4:	a00007b7          	lui	a5,0xa0000
800009e8:	0487a703          	lw	a4,72(a5) # a0000048 <_end+0x1ffeb048>
800009ec:	04c7a783          	lw	a5,76(a5)
800009f0:	00e52023          	sw	a4,0(a0)
800009f4:	00f52223          	sw	a5,4(a0)
800009f8:	00008067          	ret

800009fc <__am_timer_rtc>:
800009fc:	76c00793          	li	a5,1900
80000a00:	00052a23          	sw	zero,20(a0)
80000a04:	00052823          	sw	zero,16(a0)
80000a08:	00052623          	sw	zero,12(a0)
80000a0c:	00052423          	sw	zero,8(a0)
80000a10:	00052223          	sw	zero,4(a0)
80000a14:	00f52023          	sw	a5,0(a0)
80000a18:	00008067          	ret

80000a1c <__am_input_keybrd>:
80000a1c:	a00007b7          	lui	a5,0xa0000
80000a20:	0607a783          	lw	a5,96(a5) # a0000060 <_end+0x1ffeb060>
80000a24:	02078263          	beqz	a5,80000a48 <__am_input_keybrd+0x2c>
80000a28:	ffff86b7          	lui	a3,0xffff8
80000a2c:	00f7d713          	srli	a4,a5,0xf
80000a30:	fff68693          	addi	a3,a3,-1 # ffff7fff <_end+0x7ffe2fff>
80000a34:	00177713          	andi	a4,a4,1
80000a38:	00d7f7b3          	and	a5,a5,a3
80000a3c:	00e50023          	sb	a4,0(a0)
80000a40:	00f52223          	sw	a5,4(a0)
80000a44:	00008067          	ret
80000a48:	00000713          	li	a4,0
80000a4c:	00000793          	li	a5,0
80000a50:	00e50023          	sb	a4,0(a0)
80000a54:	00f52223          	sw	a5,4(a0)
80000a58:	00008067          	ret

80000a5c <__am_gpu_init>:
80000a5c:	a00007b7          	lui	a5,0xa0000
80000a60:	1007a783          	lw	a5,256(a5) # a0000100 <_end+0x1ffeb100>
80000a64:	0107d713          	srli	a4,a5,0x10
80000a68:	01079793          	slli	a5,a5,0x10
80000a6c:	0107d793          	srli	a5,a5,0x10
80000a70:	02f70733          	mul	a4,a4,a5
80000a74:	02070063          	beqz	a4,80000a94 <__am_gpu_init+0x38>
80000a78:	284007b7          	lui	a5,0x28400
80000a7c:	00f70733          	add	a4,a4,a5
80000a80:	00271713          	slli	a4,a4,0x2
80000a84:	a10007b7          	lui	a5,0xa1000
80000a88:	0007a023          	sw	zero,0(a5) # a1000000 <_end+0x20feb000>
80000a8c:	00478793          	addi	a5,a5,4
80000a90:	fee79ce3          	bne	a5,a4,80000a88 <__am_gpu_init+0x2c>
80000a94:	a00007b7          	lui	a5,0xa0000
80000a98:	00100713          	li	a4,1
80000a9c:	10e7a223          	sw	a4,260(a5) # a0000104 <_end+0x1ffeb104>
80000aa0:	00008067          	ret

80000aa4 <__am_gpu_config>:
80000aa4:	a00007b7          	lui	a5,0xa0000
80000aa8:	1007a783          	lw	a5,256(a5) # a0000100 <_end+0x1ffeb100>
80000aac:	00100613          	li	a2,1
80000ab0:	00c51023          	sh	a2,0(a0)
80000ab4:	0107d693          	srli	a3,a5,0x10
80000ab8:	01079793          	slli	a5,a5,0x10
80000abc:	0107d793          	srli	a5,a5,0x10
80000ac0:	02f68733          	mul	a4,a3,a5
80000ac4:	00f52423          	sw	a5,8(a0)
80000ac8:	00d52223          	sw	a3,4(a0)
80000acc:	00271793          	slli	a5,a4,0x2
80000ad0:	00f52623          	sw	a5,12(a0)
80000ad4:	00008067          	ret

80000ad8 <__am_gpu_fbdraw>:
80000ad8:	00852f83          	lw	t6,8(a0)
80000adc:	0c0f8463          	beqz	t6,80000ba4 <__am_gpu_fbdraw+0xcc>
80000ae0:	00c52283          	lw	t0,12(a0)
80000ae4:	0c505063          	blez	t0,80000ba4 <__am_gpu_fbdraw+0xcc>
80000ae8:	01052383          	lw	t2,16(a0)
80000aec:	0a705c63          	blez	t2,80000ba4 <__am_gpu_fbdraw+0xcc>
80000af0:	a00007b7          	lui	a5,0xa0000
80000af4:	1007a303          	lw	t1,256(a5) # a0000100 <_end+0x1ffeb100>
80000af8:	00452803          	lw	a6,4(a0)
80000afc:	ff010113          	addi	sp,sp,-16
80000b00:	01035613          	srli	a2,t1,0x10
80000b04:	030608b3          	mul	a7,a2,a6
80000b08:	00812623          	sw	s0,12(sp)
80000b0c:	00052403          	lw	s0,0(a0)
80000b10:	00912423          	sw	s1,8(sp)
80000b14:	01031313          	slli	t1,t1,0x10
80000b18:	405604b3          	sub	s1,a2,t0
80000b1c:	01035313          	srli	t1,t1,0x10
80000b20:	00249493          	slli	s1,s1,0x2
80000b24:	010383b3          	add	t2,t2,a6
80000b28:	00000f13          	li	t5,0
80000b2c:	008888b3          	add	a7,a7,s0
80000b30:	00289893          	slli	a7,a7,0x2
80000b34:	005405b3          	add	a1,s0,t0
80000b38:	a1000e37          	lui	t3,0xa1000
80000b3c:	41f888b3          	sub	a7,a7,t6
80000b40:	002f1713          	slli	a4,t5,0x2
80000b44:	00ef8733          	add	a4,t6,a4
80000b48:	00040793          	mv	a5,s0
80000b4c:	00c7dc63          	bge	a5,a2,80000b64 <__am_gpu_fbdraw+0x8c>
80000b50:	011706b3          	add	a3,a4,a7
80000b54:	00de06b3          	add	a3,t3,a3
80000b58:	00685663          	bge	a6,t1,80000b64 <__am_gpu_fbdraw+0x8c>
80000b5c:	00072e83          	lw	t4,0(a4)
80000b60:	01d6a023          	sw	t4,0(a3)
80000b64:	00178793          	addi	a5,a5,1
80000b68:	00470713          	addi	a4,a4,4
80000b6c:	feb790e3          	bne	a5,a1,80000b4c <__am_gpu_fbdraw+0x74>
80000b70:	00180813          	addi	a6,a6,1
80000b74:	005f0f33          	add	t5,t5,t0
80000b78:	009888b3          	add	a7,a7,s1
80000b7c:	fc7812e3          	bne	a6,t2,80000b40 <__am_gpu_fbdraw+0x68>
80000b80:	01454783          	lbu	a5,20(a0)
80000b84:	00078863          	beqz	a5,80000b94 <__am_gpu_fbdraw+0xbc>
80000b88:	a00007b7          	lui	a5,0xa0000
80000b8c:	00100713          	li	a4,1
80000b90:	10e7a223          	sw	a4,260(a5) # a0000104 <_end+0x1ffeb104>
80000b94:	00c12403          	lw	s0,12(sp)
80000b98:	00812483          	lw	s1,8(sp)
80000b9c:	01010113          	addi	sp,sp,16
80000ba0:	00008067          	ret
80000ba4:	01454783          	lbu	a5,20(a0)
80000ba8:	00078a63          	beqz	a5,80000bbc <__am_gpu_fbdraw+0xe4>
80000bac:	a00007b7          	lui	a5,0xa0000
80000bb0:	00100713          	li	a4,1
80000bb4:	10e7a223          	sw	a4,260(a5) # a0000104 <_end+0x1ffeb104>
80000bb8:	00008067          	ret
80000bbc:	00008067          	ret

80000bc0 <__am_gpu_status>:
80000bc0:	00100793          	li	a5,1
80000bc4:	00f50023          	sb	a5,0(a0)
80000bc8:	00008067          	ret

80000bcc <__am_audio_init>:
80000bcc:	00008067          	ret

80000bd0 <__am_audio_config>:
80000bd0:	00050023          	sb	zero,0(a0)
80000bd4:	00008067          	ret

80000bd8 <__am_audio_ctrl>:
80000bd8:	00008067          	ret

80000bdc <__am_audio_status>:
80000bdc:	00052023          	sw	zero,0(a0)
80000be0:	00008067          	ret

80000be4 <__am_audio_play>:
80000be4:	00008067          	ret

80000be8 <__am_disk_config>:
80000be8:	00050023          	sb	zero,0(a0)
80000bec:	00008067          	ret

80000bf0 <__am_disk_status>:
80000bf0:	00008067          	ret

80000bf4 <__am_disk_blkio>:
80000bf4:	00008067          	ret

80000bf8 <printf>:
80000bf8:	ba010113          	addi	sp,sp,-1120
80000bfc:	43212823          	sw	s2,1072(sp)
80000c00:	41912a23          	sw	s9,1044(sp)
80000c04:	44f12a23          	sw	a5,1108(sp)
80000c08:	42112e23          	sw	ra,1084(sp)
80000c0c:	42812c23          	sw	s0,1080(sp)
80000c10:	42912a23          	sw	s1,1076(sp)
80000c14:	43312623          	sw	s3,1068(sp)
80000c18:	43412423          	sw	s4,1064(sp)
80000c1c:	43512223          	sw	s5,1060(sp)
80000c20:	43612023          	sw	s6,1056(sp)
80000c24:	41712e23          	sw	s7,1052(sp)
80000c28:	41812c23          	sw	s8,1048(sp)
80000c2c:	41a12823          	sw	s10,1040(sp)
80000c30:	41b12623          	sw	s11,1036(sp)
80000c34:	44b12223          	sw	a1,1092(sp)
80000c38:	44c12423          	sw	a2,1096(sp)
80000c3c:	44d12623          	sw	a3,1100(sp)
80000c40:	44e12823          	sw	a4,1104(sp)
80000c44:	45012c23          	sw	a6,1112(sp)
80000c48:	45112e23          	sw	a7,1116(sp)
80000c4c:	00050c93          	mv	s9,a0
80000c50:	00054503          	lbu	a0,0(a0)
80000c54:	44410793          	addi	a5,sp,1092
80000c58:	00f12a23          	sw	a5,20(sp)
80000c5c:	00000913          	li	s2,0
80000c60:	02050a63          	beqz	a0,80000c94 <printf+0x9c>
80000c64:	02500a13          	li	s4,37
80000c68:	03000a93          	li	s5,48
80000c6c:	00900493          	li	s1,9
80000c70:	01810993          	addi	s3,sp,24
80000c74:	01910b13          	addi	s6,sp,25
80000c78:	05450e63          	beq	a0,s4,80000cd4 <printf+0xdc>
80000c7c:	000c8c13          	mv	s8,s9
80000c80:	c01ff0ef          	jal	ra,80000880 <putch>
80000c84:	00190913          	addi	s2,s2,1
80000c88:	001c8c93          	addi	s9,s9,1
80000c8c:	001c4503          	lbu	a0,1(s8)
80000c90:	fe0514e3          	bnez	a0,80000c78 <printf+0x80>
80000c94:	43c12083          	lw	ra,1084(sp)
80000c98:	43812403          	lw	s0,1080(sp)
80000c9c:	43412483          	lw	s1,1076(sp)
80000ca0:	42c12983          	lw	s3,1068(sp)
80000ca4:	42812a03          	lw	s4,1064(sp)
80000ca8:	42412a83          	lw	s5,1060(sp)
80000cac:	42012b03          	lw	s6,1056(sp)
80000cb0:	41c12b83          	lw	s7,1052(sp)
80000cb4:	41812c03          	lw	s8,1048(sp)
80000cb8:	41412c83          	lw	s9,1044(sp)
80000cbc:	41012d03          	lw	s10,1040(sp)
80000cc0:	40c12d83          	lw	s11,1036(sp)
80000cc4:	00090513          	mv	a0,s2
80000cc8:	43012903          	lw	s2,1072(sp)
80000ccc:	46010113          	addi	sp,sp,1120
80000cd0:	00008067          	ret
80000cd4:	001cc683          	lbu	a3,1(s9)
80000cd8:	001c8c13          	addi	s8,s9,1
80000cdc:	02000b93          	li	s7,32
80000ce0:	01569863          	bne	a3,s5,80000cf0 <printf+0xf8>
80000ce4:	002cc683          	lbu	a3,2(s9)
80000ce8:	002c8c13          	addi	s8,s9,2
80000cec:	03000b93          	li	s7,48
80000cf0:	fd068613          	addi	a2,a3,-48
80000cf4:	0ff67793          	zext.b	a5,a2
80000cf8:	00000413          	li	s0,0
80000cfc:	02f4e463          	bltu	s1,a5,80000d24 <printf+0x12c>
80000d00:	001c4683          	lbu	a3,1(s8)
80000d04:	00241793          	slli	a5,s0,0x2
80000d08:	008787b3          	add	a5,a5,s0
80000d0c:	00179793          	slli	a5,a5,0x1
80000d10:	00f60433          	add	s0,a2,a5
80000d14:	fd068613          	addi	a2,a3,-48
80000d18:	0ff67793          	zext.b	a5,a2
80000d1c:	001c0c13          	addi	s8,s8,1
80000d20:	fef4f0e3          	bgeu	s1,a5,80000d00 <printf+0x108>
80000d24:	f9c68693          	addi	a3,a3,-100
80000d28:	0ff6f693          	zext.b	a3,a3
80000d2c:	01400793          	li	a5,20
80000d30:	001c0c93          	addi	s9,s8,1
80000d34:	02d7e063          	bltu	a5,a3,80000d54 <printf+0x15c>
80000d38:	00001717          	auipc	a4,0x1
80000d3c:	aa870713          	addi	a4,a4,-1368 # 800017e0 <_etext+0x178>
80000d40:	00269693          	slli	a3,a3,0x2
80000d44:	00e686b3          	add	a3,a3,a4
80000d48:	0006a783          	lw	a5,0(a3)
80000d4c:	00e787b3          	add	a5,a5,a4
80000d50:	00078067          	jr	a5
80000d54:	02500513          	li	a0,37
80000d58:	b29ff0ef          	jal	ra,80000880 <putch>
80000d5c:	000c4503          	lbu	a0,0(s8)
80000d60:	00290913          	addi	s2,s2,2
80000d64:	b1dff0ef          	jal	ra,80000880 <putch>
80000d68:	f25ff06f          	j	80000c8c <printf+0x94>
80000d6c:	01412683          	lw	a3,20(sp)
80000d70:	0006a783          	lw	a5,0(a3)
80000d74:	00468693          	addi	a3,a3,4
80000d78:	00d12a23          	sw	a3,20(sp)
80000d7c:	20079863          	bnez	a5,80000f8c <printf+0x394>
80000d80:	01510c23          	sb	s5,24(sp)
80000d84:	00100793          	li	a5,1
80000d88:	1887dc63          	bge	a5,s0,80000f20 <printf+0x328>
80000d8c:	00100d13          	li	s10,1
80000d90:	41a40433          	sub	s0,s0,s10
80000d94:	02805863          	blez	s0,80000dc4 <printf+0x1cc>
80000d98:	00000d93          	li	s11,0
80000d9c:	001d8d93          	addi	s11,s11,1
80000da0:	000b8513          	mv	a0,s7
80000da4:	addff0ef          	jal	ra,80000880 <putch>
80000da8:	fe8dcae3          	blt	s11,s0,80000d9c <printf+0x1a4>
80000dac:	00190913          	addi	s2,s2,1
80000db0:	00000793          	li	a5,0
80000db4:	00805463          	blez	s0,80000dbc <printf+0x1c4>
80000db8:	fff40793          	addi	a5,s0,-1
80000dbc:	01278933          	add	s2,a5,s2
80000dc0:	ec0d06e3          	beqz	s10,80000c8c <printf+0x94>
80000dc4:	3f0d0793          	addi	a5,s10,1008
80000dc8:	01010713          	addi	a4,sp,16
80000dcc:	00e787b3          	add	a5,a5,a4
80000dd0:	c177c503          	lbu	a0,-1001(a5)
80000dd4:	01a98433          	add	s0,s3,s10
80000dd8:	00c0006f          	j	80000de4 <printf+0x1ec>
80000ddc:	ffe44503          	lbu	a0,-2(s0)
80000de0:	fff40413          	addi	s0,s0,-1
80000de4:	a9dff0ef          	jal	ra,80000880 <putch>
80000de8:	fe8b1ae3          	bne	s6,s0,80000ddc <printf+0x1e4>
80000dec:	012d0933          	add	s2,s10,s2
80000df0:	e9dff06f          	j	80000c8c <printf+0x94>
80000df4:	01412783          	lw	a5,20(sp)
80000df8:	0007a403          	lw	s0,0(a5)
80000dfc:	00478793          	addi	a5,a5,4
80000e00:	00f12a23          	sw	a5,20(sp)
80000e04:	00044503          	lbu	a0,0(s0)
80000e08:	e80502e3          	beqz	a0,80000c8c <printf+0x94>
80000e0c:	00090d13          	mv	s10,s2
80000e10:	a71ff0ef          	jal	ra,80000880 <putch>
80000e14:	001d0d13          	addi	s10,s10,1
80000e18:	412d07b3          	sub	a5,s10,s2
80000e1c:	00f407b3          	add	a5,s0,a5
80000e20:	0007c503          	lbu	a0,0(a5)
80000e24:	fe0516e3          	bnez	a0,80000e10 <printf+0x218>
80000e28:	000d0913          	mv	s2,s10
80000e2c:	e61ff06f          	j	80000c8c <printf+0x94>
80000e30:	01412783          	lw	a5,20(sp)
80000e34:	03000513          	li	a0,48
80000e38:	0007a403          	lw	s0,0(a5)
80000e3c:	00478793          	addi	a5,a5,4
80000e40:	00f12a23          	sw	a5,20(sp)
80000e44:	a3dff0ef          	jal	ra,80000880 <putch>
80000e48:	07800513          	li	a0,120
80000e4c:	a35ff0ef          	jal	ra,80000880 <putch>
80000e50:	0e041063          	bnez	s0,80000f30 <printf+0x338>
80000e54:	03000513          	li	a0,48
80000e58:	01510c23          	sb	s5,24(sp)
80000e5c:	00390913          	addi	s2,s2,3
80000e60:	a21ff0ef          	jal	ra,80000880 <putch>
80000e64:	e29ff06f          	j	80000c8c <printf+0x94>
80000e68:	001c4783          	lbu	a5,1(s8)
80000e6c:	06400713          	li	a4,100
80000e70:	18e78c63          	beq	a5,a4,80001008 <printf+0x410>
80000e74:	07800713          	li	a4,120
80000e78:	1ce78863          	beq	a5,a4,80001048 <printf+0x450>
80000e7c:	000c8c13          	mv	s8,s9
80000e80:	001c8c93          	addi	s9,s9,1
80000e84:	e09ff06f          	j	80000c8c <printf+0x94>
80000e88:	01412783          	lw	a5,20(sp)
80000e8c:	00190d13          	addi	s10,s2,1
80000e90:	0007a703          	lw	a4,0(a5)
80000e94:	00478793          	addi	a5,a5,4
80000e98:	00f12a23          	sw	a5,20(sp)
80000e9c:	00e12623          	sw	a4,12(sp)
80000ea0:	12074063          	bltz	a4,80000fc0 <printf+0x3c8>
80000ea4:	00c12783          	lw	a5,12(sp)
80000ea8:	12079663          	bnez	a5,80000fd4 <printf+0x3dc>
80000eac:	01510c23          	sb	s5,24(sp)
80000eb0:	00100793          	li	a5,1
80000eb4:	0487de63          	bge	a5,s0,80000f10 <printf+0x318>
80000eb8:	00100d13          	li	s10,1
80000ebc:	41a40433          	sub	s0,s0,s10
80000ec0:	00000d93          	li	s11,0
80000ec4:	2e805863          	blez	s0,800011b4 <printf+0x5bc>
80000ec8:	001d8d93          	addi	s11,s11,1
80000ecc:	000b8513          	mv	a0,s7
80000ed0:	9b1ff0ef          	jal	ra,80000880 <putch>
80000ed4:	ffb41ae3          	bne	s0,s11,80000ec8 <printf+0x2d0>
80000ed8:	00c12783          	lw	a5,12(sp)
80000edc:	01010713          	addi	a4,sp,16
80000ee0:	01240933          	add	s2,s0,s2
80000ee4:	3f078793          	addi	a5,a5,1008
80000ee8:	00e78db3          	add	s11,a5,a4
80000eec:	c18dc503          	lbu	a0,-1000(s11)
80000ef0:	01a98433          	add	s0,s3,s10
80000ef4:	0080006f          	j	80000efc <printf+0x304>
80000ef8:	fff44503          	lbu	a0,-1(s0)
80000efc:	fff40413          	addi	s0,s0,-1
80000f00:	981ff0ef          	jal	ra,80000880 <putch>
80000f04:	fe899ae3          	bne	s3,s0,80000ef8 <printf+0x300>
80000f08:	012d0933          	add	s2,s10,s2
80000f0c:	d81ff06f          	j	80000c8c <printf+0x94>
80000f10:	03000513          	li	a0,48
80000f14:	96dff0ef          	jal	ra,80000880 <putch>
80000f18:	000d0913          	mv	s2,s10
80000f1c:	d71ff06f          	j	80000c8c <printf+0x94>
80000f20:	03000513          	li	a0,48
80000f24:	00190913          	addi	s2,s2,1
80000f28:	959ff0ef          	jal	ra,80000880 <putch>
80000f2c:	d61ff06f          	j	80000c8c <printf+0x94>
80000f30:	00040793          	mv	a5,s0
80000f34:	00000d13          	li	s10,0
80000f38:	0080006f          	j	80000f40 <printf+0x348>
80000f3c:	00068d13          	mv	s10,a3
80000f40:	00f7f613          	andi	a2,a5,15
80000f44:	05760513          	addi	a0,a2,87
80000f48:	00c4c463          	blt	s1,a2,80000f50 <printf+0x358>
80000f4c:	03060513          	addi	a0,a2,48
80000f50:	001d0693          	addi	a3,s10,1
80000f54:	00d98433          	add	s0,s3,a3
80000f58:	fea40fa3          	sb	a0,-1(s0)
80000f5c:	0047d793          	srli	a5,a5,0x4
80000f60:	fc079ee3          	bnez	a5,80000f3c <printf+0x344>
80000f64:	fff40413          	addi	s0,s0,-1
80000f68:	919ff0ef          	jal	ra,80000880 <putch>
80000f6c:	00898a63          	beq	s3,s0,80000f80 <printf+0x388>
80000f70:	fff44503          	lbu	a0,-1(s0)
80000f74:	fff40413          	addi	s0,s0,-1
80000f78:	909ff0ef          	jal	ra,80000880 <putch>
80000f7c:	fe899ae3          	bne	s3,s0,80000f70 <printf+0x378>
80000f80:	00390913          	addi	s2,s2,3
80000f84:	01a90933          	add	s2,s2,s10
80000f88:	d05ff06f          	j	80000c8c <printf+0x94>
80000f8c:	00000d13          	li	s10,0
80000f90:	20f05e63          	blez	a5,800011ac <printf+0x5b4>
80000f94:	00f7f613          	andi	a2,a5,15
80000f98:	05760513          	addi	a0,a2,87
80000f9c:	00c4c463          	blt	s1,a2,80000fa4 <printf+0x3ac>
80000fa0:	03060513          	addi	a0,a2,48
80000fa4:	001d0d13          	addi	s10,s10,1
80000fa8:	01a986b3          	add	a3,s3,s10
80000fac:	fea68fa3          	sb	a0,-1(a3)
80000fb0:	4047d793          	srai	a5,a5,0x4
80000fb4:	fe0790e3          	bnez	a5,80000f94 <printf+0x39c>
80000fb8:	dc8d4ce3          	blt	s10,s0,80000d90 <printf+0x198>
80000fbc:	e19ff06f          	j	80000dd4 <printf+0x1dc>
80000fc0:	02d00513          	li	a0,45
80000fc4:	8bdff0ef          	jal	ra,80000880 <putch>
80000fc8:	00c12783          	lw	a5,12(sp)
80000fcc:	000d0913          	mv	s2,s10
80000fd0:	40f007b3          	neg	a5,a5
80000fd4:	00000d13          	li	s10,0
80000fd8:	00a00693          	li	a3,10
80000fdc:	02d7e533          	rem	a0,a5,a3
80000fe0:	01a12623          	sw	s10,12(sp)
80000fe4:	001d0d13          	addi	s10,s10,1
80000fe8:	01a98633          	add	a2,s3,s10
80000fec:	02d7c7b3          	div	a5,a5,a3
80000ff0:	03050513          	addi	a0,a0,48
80000ff4:	0ff57513          	zext.b	a0,a0
80000ff8:	fea60fa3          	sb	a0,-1(a2)
80000ffc:	fe0790e3          	bnez	a5,80000fdc <printf+0x3e4>
80001000:	ea8d4ee3          	blt	s10,s0,80000ebc <printf+0x2c4>
80001004:	eedff06f          	j	80000ef0 <printf+0x2f8>
80001008:	01412783          	lw	a5,20(sp)
8000100c:	00190d13          	addi	s10,s2,1
80001010:	0007ad83          	lw	s11,0(a5)
80001014:	00478793          	addi	a5,a5,4
80001018:	00f12a23          	sw	a5,20(sp)
8000101c:	0a0dc663          	bltz	s11,800010c8 <printf+0x4d0>
80001020:	1c0d9a63          	bnez	s11,800011f4 <printf+0x5fc>
80001024:	01510c23          	sb	s5,24(sp)
80001028:	00100793          	li	a5,1
8000102c:	1687c063          	blt	a5,s0,8000118c <printf+0x594>
80001030:	03000513          	li	a0,48
80001034:	000c8c13          	mv	s8,s9
80001038:	849ff0ef          	jal	ra,80000880 <putch>
8000103c:	000d0913          	mv	s2,s10
80001040:	001c8c93          	addi	s9,s9,1
80001044:	c49ff06f          	j	80000c8c <printf+0x94>
80001048:	01412703          	lw	a4,20(sp)
8000104c:	00072783          	lw	a5,0(a4)
80001050:	00470713          	addi	a4,a4,4
80001054:	00e12a23          	sw	a4,20(sp)
80001058:	0e079e63          	bnez	a5,80001154 <printf+0x55c>
8000105c:	01510c23          	sb	s5,24(sp)
80001060:	00100793          	li	a5,1
80001064:	1287d863          	bge	a5,s0,80001194 <printf+0x59c>
80001068:	00000d93          	li	s11,0
8000106c:	00100d13          	li	s10,1
80001070:	41a40433          	sub	s0,s0,s10
80001074:	00000c13          	li	s8,0
80001078:	14805a63          	blez	s0,800011cc <printf+0x5d4>
8000107c:	001c0c13          	addi	s8,s8,1
80001080:	000b8513          	mv	a0,s7
80001084:	ffcff0ef          	jal	ra,80000880 <putch>
80001088:	ff841ae3          	bne	s0,s8,8000107c <printf+0x484>
8000108c:	3f0d8793          	addi	a5,s11,1008
80001090:	01010713          	addi	a4,sp,16
80001094:	00e78db3          	add	s11,a5,a4
80001098:	c18dc503          	lbu	a0,-1000(s11)
8000109c:	00890933          	add	s2,s2,s0
800010a0:	01a98433          	add	s0,s3,s10
800010a4:	0080006f          	j	800010ac <printf+0x4b4>
800010a8:	fff44503          	lbu	a0,-1(s0)
800010ac:	fff40413          	addi	s0,s0,-1
800010b0:	fd0ff0ef          	jal	ra,80000880 <putch>
800010b4:	fe899ae3          	bne	s3,s0,800010a8 <printf+0x4b0>
800010b8:	000c8c13          	mv	s8,s9
800010bc:	012d0933          	add	s2,s10,s2
800010c0:	001c8c93          	addi	s9,s9,1
800010c4:	bc9ff06f          	j	80000c8c <printf+0x94>
800010c8:	02d00513          	li	a0,45
800010cc:	fb4ff0ef          	jal	ra,80000880 <putch>
800010d0:	000d0913          	mv	s2,s10
800010d4:	41b007b3          	neg	a5,s11
800010d8:	00000d13          	li	s10,0
800010dc:	00a00713          	li	a4,10
800010e0:	02e7e533          	rem	a0,a5,a4
800010e4:	000d0d93          	mv	s11,s10
800010e8:	001d0d13          	addi	s10,s10,1
800010ec:	01a986b3          	add	a3,s3,s10
800010f0:	02e7c7b3          	div	a5,a5,a4
800010f4:	03050513          	addi	a0,a0,48
800010f8:	0ff57513          	zext.b	a0,a0
800010fc:	fea68fa3          	sb	a0,-1(a3)
80001100:	fe0790e3          	bnez	a5,800010e0 <printf+0x4e8>
80001104:	028d5a63          	bge	s10,s0,80001138 <printf+0x540>
80001108:	41a40433          	sub	s0,s0,s10
8000110c:	00000c13          	li	s8,0
80001110:	0c805863          	blez	s0,800011e0 <printf+0x5e8>
80001114:	001c0c13          	addi	s8,s8,1
80001118:	000b8513          	mv	a0,s7
8000111c:	f64ff0ef          	jal	ra,80000880 <putch>
80001120:	ff841ae3          	bne	s0,s8,80001114 <printf+0x51c>
80001124:	3f0d8793          	addi	a5,s11,1008
80001128:	01010713          	addi	a4,sp,16
8000112c:	00e78db3          	add	s11,a5,a4
80001130:	c18dc503          	lbu	a0,-1000(s11)
80001134:	01240933          	add	s2,s0,s2
80001138:	01a98433          	add	s0,s3,s10
8000113c:	0080006f          	j	80001144 <printf+0x54c>
80001140:	fff44503          	lbu	a0,-1(s0)
80001144:	fff40413          	addi	s0,s0,-1
80001148:	f38ff0ef          	jal	ra,80000880 <putch>
8000114c:	fe899ae3          	bne	s3,s0,80001140 <printf+0x548>
80001150:	f69ff06f          	j	800010b8 <printf+0x4c0>
80001154:	00000d93          	li	s11,0
80001158:	0080006f          	j	80001160 <printf+0x568>
8000115c:	000d0d93          	mv	s11,s10
80001160:	00f7f693          	andi	a3,a5,15
80001164:	05768513          	addi	a0,a3,87
80001168:	00d4c463          	blt	s1,a3,80001170 <printf+0x578>
8000116c:	03068513          	addi	a0,a3,48
80001170:	001d8d13          	addi	s10,s11,1
80001174:	01a98733          	add	a4,s3,s10
80001178:	fea70fa3          	sb	a0,-1(a4)
8000117c:	0047d793          	srli	a5,a5,0x4
80001180:	fc079ee3          	bnez	a5,8000115c <printf+0x564>
80001184:	ee8d46e3          	blt	s10,s0,80001070 <printf+0x478>
80001188:	f19ff06f          	j	800010a0 <printf+0x4a8>
8000118c:	00100d13          	li	s10,1
80001190:	f79ff06f          	j	80001108 <printf+0x510>
80001194:	03000513          	li	a0,48
80001198:	000c8c13          	mv	s8,s9
8000119c:	00190913          	addi	s2,s2,1
800011a0:	ee0ff0ef          	jal	ra,80000880 <putch>
800011a4:	001c8c93          	addi	s9,s9,1
800011a8:	ae5ff06f          	j	80000c8c <printf+0x94>
800011ac:	be0416e3          	bnez	s0,80000d98 <printf+0x1a0>
800011b0:	addff06f          	j	80000c8c <printf+0x94>
800011b4:	00c12783          	lw	a5,12(sp)
800011b8:	01010713          	addi	a4,sp,16
800011bc:	3f078793          	addi	a5,a5,1008
800011c0:	00e78db3          	add	s11,a5,a4
800011c4:	c18dc503          	lbu	a0,-1000(s11)
800011c8:	d29ff06f          	j	80000ef0 <printf+0x2f8>
800011cc:	3f0d8793          	addi	a5,s11,1008
800011d0:	01010713          	addi	a4,sp,16
800011d4:	00e78db3          	add	s11,a5,a4
800011d8:	c18dc503          	lbu	a0,-1000(s11)
800011dc:	ec5ff06f          	j	800010a0 <printf+0x4a8>
800011e0:	3f0d8793          	addi	a5,s11,1008
800011e4:	01010713          	addi	a4,sp,16
800011e8:	00e78db3          	add	s11,a5,a4
800011ec:	c18dc503          	lbu	a0,-1000(s11)
800011f0:	f49ff06f          	j	80001138 <printf+0x540>
800011f4:	000d8793          	mv	a5,s11
800011f8:	ee1ff06f          	j	800010d8 <printf+0x4e0>

800011fc <__udivmoddi4>:
800011fc:	fe010113          	addi	sp,sp,-32
80001200:	01212823          	sw	s2,16(sp)
80001204:	01412423          	sw	s4,8(sp)
80001208:	01512223          	sw	s5,4(sp)
8000120c:	01612023          	sw	s6,0(sp)
80001210:	00112e23          	sw	ra,28(sp)
80001214:	00812c23          	sw	s0,24(sp)
80001218:	00912a23          	sw	s1,20(sp)
8000121c:	01312623          	sw	s3,12(sp)
80001220:	00068a93          	mv	s5,a3
80001224:	00050913          	mv	s2,a0
80001228:	00060b13          	mv	s6,a2
8000122c:	00070a13          	mv	s4,a4
80001230:	04059463          	bnez	a1,80001278 <__udivmoddi4+0x7c>
80001234:	18069863          	bnez	a3,800013c4 <__udivmoddi4+0x1c8>
80001238:	00070863          	beqz	a4,80001248 <__udivmoddi4+0x4c>
8000123c:	02c577b3          	remu	a5,a0,a2
80001240:	00072223          	sw	zero,4(a4)
80001244:	00f72023          	sw	a5,0(a4)
80001248:	03695533          	divu	a0,s2,s6
8000124c:	00000593          	li	a1,0
80001250:	01c12083          	lw	ra,28(sp)
80001254:	01812403          	lw	s0,24(sp)
80001258:	01412483          	lw	s1,20(sp)
8000125c:	01012903          	lw	s2,16(sp)
80001260:	00c12983          	lw	s3,12(sp)
80001264:	00812a03          	lw	s4,8(sp)
80001268:	00412a83          	lw	s5,4(sp)
8000126c:	00012b03          	lw	s6,0(sp)
80001270:	02010113          	addi	sp,sp,32
80001274:	00008067          	ret
80001278:	00058993          	mv	s3,a1
8000127c:	00058413          	mv	s0,a1
80001280:	0e061863          	bnez	a2,80001370 <__udivmoddi4+0x174>
80001284:	1a068263          	beqz	a3,80001428 <__udivmoddi4+0x22c>
80001288:	20050463          	beqz	a0,80001490 <__udivmoddi4+0x294>
8000128c:	fff68793          	addi	a5,a3,-1
80001290:	00d7f733          	and	a4,a5,a3
80001294:	22070c63          	beqz	a4,800014cc <__udivmoddi4+0x2d0>
80001298:	00068513          	mv	a0,a3
8000129c:	28c000ef          	jal	ra,80001528 <__clzsi2>
800012a0:	00050493          	mv	s1,a0
800012a4:	00098513          	mv	a0,s3
800012a8:	280000ef          	jal	ra,80001528 <__clzsi2>
800012ac:	40a48733          	sub	a4,s1,a0
800012b0:	01e00793          	li	a5,30
800012b4:	16e7ec63          	bltu	a5,a4,8000142c <__udivmoddi4+0x230>
800012b8:	00170713          	addi	a4,a4,1
800012bc:	02000e93          	li	t4,32
800012c0:	40ee8eb3          	sub	t4,t4,a4
800012c4:	01d99633          	sll	a2,s3,t4
800012c8:	00e956b3          	srl	a3,s2,a4
800012cc:	00e9d7b3          	srl	a5,s3,a4
800012d0:	01d91eb3          	sll	t4,s2,t4
800012d4:	00d66433          	or	s0,a2,a3
800012d8:	00000493          	li	s1,0
800012dc:	00000313          	li	t1,0
800012e0:	01fed693          	srli	a3,t4,0x1f
800012e4:	00141813          	slli	a6,s0,0x1
800012e8:	00d86833          	or	a6,a6,a3
800012ec:	01f45413          	srli	s0,s0,0x1f
800012f0:	00179793          	slli	a5,a5,0x1
800012f4:	0087e7b3          	or	a5,a5,s0
800012f8:	410b0e33          	sub	t3,s6,a6
800012fc:	01cb36b3          	sltu	a3,s6,t3
80001300:	40fa88b3          	sub	a7,s5,a5
80001304:	40d888b3          	sub	a7,a7,a3
80001308:	001e3e13          	seqz	t3,t3
8000130c:	41c888b3          	sub	a7,a7,t3
80001310:	41f8de13          	srai	t3,a7,0x1f
80001314:	016e7433          	and	s0,t3,s6
80001318:	40880433          	sub	s0,a6,s0
8000131c:	015e7e33          	and	t3,t3,s5
80001320:	01f4d693          	srli	a3,s1,0x1f
80001324:	001e9e93          	slli	t4,t4,0x1
80001328:	00149493          	slli	s1,s1,0x1
8000132c:	00883833          	sltu	a6,a6,s0
80001330:	41c787b3          	sub	a5,a5,t3
80001334:	fff70713          	addi	a4,a4,-1
80001338:	0064e4b3          	or	s1,s1,t1
8000133c:	00deeeb3          	or	t4,t4,a3
80001340:	01f8d313          	srli	t1,a7,0x1f
80001344:	410787b3          	sub	a5,a5,a6
80001348:	f8071ce3          	bnez	a4,800012e0 <__udivmoddi4+0xe4>
8000134c:	01f4d993          	srli	s3,s1,0x1f
80001350:	001e9e93          	slli	t4,t4,0x1
80001354:	00149493          	slli	s1,s1,0x1
80001358:	0064e533          	or	a0,s1,t1
8000135c:	01d9e5b3          	or	a1,s3,t4
80001360:	ee0a08e3          	beqz	s4,80001250 <__udivmoddi4+0x54>
80001364:	008a2023          	sw	s0,0(s4)
80001368:	00fa2223          	sw	a5,4(s4)
8000136c:	ee5ff06f          	j	80001250 <__udivmoddi4+0x54>
80001370:	06068663          	beqz	a3,800013dc <__udivmoddi4+0x1e0>
80001374:	00068513          	mv	a0,a3
80001378:	1b0000ef          	jal	ra,80001528 <__clzsi2>
8000137c:	00050493          	mv	s1,a0
80001380:	00098513          	mv	a0,s3
80001384:	1a4000ef          	jal	ra,80001528 <__clzsi2>
80001388:	40a48733          	sub	a4,s1,a0
8000138c:	01f00793          	li	a5,31
80001390:	08e7ee63          	bltu	a5,a4,8000142c <__udivmoddi4+0x230>
80001394:	00170713          	addi	a4,a4,1
80001398:	02000793          	li	a5,32
8000139c:	00090e93          	mv	t4,s2
800013a0:	14f70863          	beq	a4,a5,800014f0 <__udivmoddi4+0x2f4>
800013a4:	40e786b3          	sub	a3,a5,a4
800013a8:	00e95633          	srl	a2,s2,a4
800013ac:	00d995b3          	sll	a1,s3,a3
800013b0:	00e9d7b3          	srl	a5,s3,a4
800013b4:	00d91eb3          	sll	t4,s2,a3
800013b8:	00c5e433          	or	s0,a1,a2
800013bc:	00000493          	li	s1,0
800013c0:	f1dff06f          	j	800012dc <__udivmoddi4+0xe0>
800013c4:	06070663          	beqz	a4,80001430 <__udivmoddi4+0x234>
800013c8:	00aa2023          	sw	a0,0(s4)
800013cc:	00072223          	sw	zero,4(a4)
800013d0:	00000513          	li	a0,0
800013d4:	00000593          	li	a1,0
800013d8:	e79ff06f          	j	80001250 <__udivmoddi4+0x54>
800013dc:	fff60793          	addi	a5,a2,-1
800013e0:	00c7f733          	and	a4,a5,a2
800013e4:	04071c63          	bnez	a4,8000143c <__udivmoddi4+0x240>
800013e8:	000a0863          	beqz	s4,800013f8 <__udivmoddi4+0x1fc>
800013ec:	00a7f7b3          	and	a5,a5,a0
800013f0:	00fa2023          	sw	a5,0(s4)
800013f4:	000a2223          	sw	zero,4(s4)
800013f8:	00100793          	li	a5,1
800013fc:	0cfb0263          	beq	s6,a5,800014c0 <__udivmoddi4+0x2c4>
80001400:	000b0513          	mv	a0,s6
80001404:	1bc000ef          	jal	ra,800015c0 <__ctzsi2>
80001408:	02000713          	li	a4,32
8000140c:	40a70733          	sub	a4,a4,a0
80001410:	00050793          	mv	a5,a0
80001414:	00e99733          	sll	a4,s3,a4
80001418:	00a95933          	srl	s2,s2,a0
8000141c:	01276533          	or	a0,a4,s2
80001420:	00f9d5b3          	srl	a1,s3,a5
80001424:	e2dff06f          	j	80001250 <__udivmoddi4+0x54>
80001428:	00100073          	ebreak
8000142c:	080a1063          	bnez	s4,800014ac <__udivmoddi4+0x2b0>
80001430:	00000513          	li	a0,0
80001434:	00000593          	li	a1,0
80001438:	e19ff06f          	j	80001250 <__udivmoddi4+0x54>
8000143c:	00060513          	mv	a0,a2
80001440:	00068493          	mv	s1,a3
80001444:	0e4000ef          	jal	ra,80001528 <__clzsi2>
80001448:	00050993          	mv	s3,a0
8000144c:	00040513          	mv	a0,s0
80001450:	0d8000ef          	jal	ra,80001528 <__clzsi2>
80001454:	40a98533          	sub	a0,s3,a0
80001458:	02150713          	addi	a4,a0,33
8000145c:	02000693          	li	a3,32
80001460:	00090e93          	mv	t4,s2
80001464:	00000793          	li	a5,0
80001468:	e6d70ae3          	beq	a4,a3,800012dc <__udivmoddi4+0xe0>
8000146c:	01f00613          	li	a2,31
80001470:	08e66663          	bltu	a2,a4,800014fc <__udivmoddi4+0x300>
80001474:	40e686b3          	sub	a3,a3,a4
80001478:	00e95633          	srl	a2,s2,a4
8000147c:	00d415b3          	sll	a1,s0,a3
80001480:	00e457b3          	srl	a5,s0,a4
80001484:	00d91eb3          	sll	t4,s2,a3
80001488:	00c5e433          	or	s0,a1,a2
8000148c:	e51ff06f          	j	800012dc <__udivmoddi4+0xe0>
80001490:	00070863          	beqz	a4,800014a0 <__udivmoddi4+0x2a4>
80001494:	02d5f7b3          	remu	a5,a1,a3
80001498:	00072023          	sw	zero,0(a4)
8000149c:	00f72223          	sw	a5,4(a4)
800014a0:	0359d533          	divu	a0,s3,s5
800014a4:	00000593          	li	a1,0
800014a8:	da9ff06f          	j	80001250 <__udivmoddi4+0x54>
800014ac:	012a2023          	sw	s2,0(s4)
800014b0:	013a2223          	sw	s3,4(s4)
800014b4:	00000513          	li	a0,0
800014b8:	00000593          	li	a1,0
800014bc:	d95ff06f          	j	80001250 <__udivmoddi4+0x54>
800014c0:	00090513          	mv	a0,s2
800014c4:	00098593          	mv	a1,s3
800014c8:	d89ff06f          	j	80001250 <__udivmoddi4+0x54>
800014cc:	000a0863          	beqz	s4,800014dc <__udivmoddi4+0x2e0>
800014d0:	00b7f7b3          	and	a5,a5,a1
800014d4:	00aa2023          	sw	a0,0(s4)
800014d8:	00fa2223          	sw	a5,4(s4)
800014dc:	000a8513          	mv	a0,s5
800014e0:	0e0000ef          	jal	ra,800015c0 <__ctzsi2>
800014e4:	00a9d533          	srl	a0,s3,a0
800014e8:	00000593          	li	a1,0
800014ec:	d65ff06f          	j	80001250 <__udivmoddi4+0x54>
800014f0:	00000793          	li	a5,0
800014f4:	00000493          	li	s1,0
800014f8:	de5ff06f          	j	800012dc <__udivmoddi4+0xe0>
800014fc:	04000693          	li	a3,64
80001500:	40e686b3          	sub	a3,a3,a4
80001504:	00150513          	addi	a0,a0,1
80001508:	00d914b3          	sll	s1,s2,a3
8000150c:	00a95eb3          	srl	t4,s2,a0
80001510:	00d416b3          	sll	a3,s0,a3
80001514:	01d6eeb3          	or	t4,a3,t4
80001518:	00a45433          	srl	s0,s0,a0
8000151c:	dc1ff06f          	j	800012dc <__udivmoddi4+0xe0>

80001520 <__udivdi3>:
80001520:	00000713          	li	a4,0
80001524:	cd9ff06f          	j	800011fc <__udivmoddi4>

80001528 <__clzsi2>:
80001528:	ffff05b7          	lui	a1,0xffff0
8000152c:	00b575b3          	and	a1,a0,a1
80001530:	0015b593          	seqz	a1,a1
80001534:	00459593          	slli	a1,a1,0x4
80001538:	01000793          	li	a5,16
8000153c:	40b787b3          	sub	a5,a5,a1
80001540:	00010737          	lui	a4,0x10
80001544:	00f557b3          	srl	a5,a0,a5
80001548:	f0070713          	addi	a4,a4,-256 # ff00 <_entry_offset+0xff00>
8000154c:	00e7f733          	and	a4,a5,a4
80001550:	00173713          	seqz	a4,a4
80001554:	00371713          	slli	a4,a4,0x3
80001558:	00800693          	li	a3,8
8000155c:	40e686b3          	sub	a3,a3,a4
80001560:	00d7d7b3          	srl	a5,a5,a3
80001564:	0f07f613          	andi	a2,a5,240
80001568:	00163613          	seqz	a2,a2
8000156c:	00261613          	slli	a2,a2,0x2
80001570:	00400693          	li	a3,4
80001574:	40c686b3          	sub	a3,a3,a2
80001578:	00d7d7b3          	srl	a5,a5,a3
8000157c:	00c7f693          	andi	a3,a5,12
80001580:	0016b693          	seqz	a3,a3
80001584:	00169693          	slli	a3,a3,0x1
80001588:	00200813          	li	a6,2
8000158c:	40d80533          	sub	a0,a6,a3
80001590:	00a7d7b3          	srl	a5,a5,a0
80001594:	0017d513          	srli	a0,a5,0x1
80001598:	00154513          	xori	a0,a0,1
8000159c:	00b70733          	add	a4,a4,a1
800015a0:	00157513          	andi	a0,a0,1
800015a4:	00e60633          	add	a2,a2,a4
800015a8:	40f80833          	sub	a6,a6,a5
800015ac:	40a00733          	neg	a4,a0
800015b0:	01077733          	and	a4,a4,a6
800015b4:	00c68533          	add	a0,a3,a2
800015b8:	00a70533          	add	a0,a4,a0
800015bc:	00008067          	ret

800015c0 <__ctzsi2>:
800015c0:	01051593          	slli	a1,a0,0x10
800015c4:	0105d593          	srli	a1,a1,0x10
800015c8:	0015b593          	seqz	a1,a1
800015cc:	00459593          	slli	a1,a1,0x4
800015d0:	00b557b3          	srl	a5,a0,a1
800015d4:	0ff7f613          	zext.b	a2,a5
800015d8:	00163613          	seqz	a2,a2
800015dc:	00361613          	slli	a2,a2,0x3
800015e0:	00c7d7b3          	srl	a5,a5,a2
800015e4:	00f7f693          	andi	a3,a5,15
800015e8:	0016b693          	seqz	a3,a3
800015ec:	00269693          	slli	a3,a3,0x2
800015f0:	00d7d7b3          	srl	a5,a5,a3
800015f4:	0037f713          	andi	a4,a5,3
800015f8:	00173713          	seqz	a4,a4
800015fc:	00171713          	slli	a4,a4,0x1
80001600:	00e7d7b3          	srl	a5,a5,a4
80001604:	0017d513          	srli	a0,a5,0x1
80001608:	00b60633          	add	a2,a2,a1
8000160c:	0017f793          	andi	a5,a5,1
80001610:	00157593          	andi	a1,a0,1
80001614:	00200513          	li	a0,2
80001618:	00c686b3          	add	a3,a3,a2
8000161c:	40b50533          	sub	a0,a0,a1
80001620:	fff78793          	addi	a5,a5,-1
80001624:	00f57533          	and	a0,a0,a5
80001628:	00d70733          	add	a4,a4,a3
8000162c:	00e50533          	add	a0,a0,a4
80001630:	00008067          	ret

80001634 <rand>:
80001634:	00000697          	auipc	a3,0x0
80001638:	6a468693          	addi	a3,a3,1700 # 80001cd8 <next>
8000163c:	0006a783          	lw	a5,0(a3)
80001640:	41c65737          	lui	a4,0x41c65
80001644:	e6d70713          	addi	a4,a4,-403 # 41c64e6d <_entry_offset+0x41c64e6d>
80001648:	02e787b3          	mul	a5,a5,a4
8000164c:	00003737          	lui	a4,0x3
80001650:	03970713          	addi	a4,a4,57 # 3039 <_entry_offset+0x3039>
80001654:	00e787b3          	add	a5,a5,a4
80001658:	00179513          	slli	a0,a5,0x1
8000165c:	00f6a023          	sw	a5,0(a3)
80001660:	01155513          	srli	a0,a0,0x11
80001664:	00008067          	ret
