
/home/xietianle/ysyx-workbench/am-kernels/kernels/bad-apple/build/bad-apple-riscv32e-npc.elf:     file format elf32-littleriscv


Disassembly of section .text:

80000000 <_start>:
80000000:	00000413          	li	s0,0
80000004:	01409117          	auipc	sp,0x1409
80000008:	ffc10113          	addi	sp,sp,-4 # 81409000 <_end>
8000000c:	228000ef          	jal	ra,80000234 <_trm_init>

80000010 <main>:
80000010:	fbc10113          	addi	sp,sp,-68
80000014:	03310793          	addi	a5,sp,51
80000018:	ff87f793          	andi	a5,a5,-8
8000001c:	00f12623          	sw	a5,12(sp)
80000020:	04112023          	sw	ra,64(sp)
80000024:	02812e23          	sw	s0,60(sp)
80000028:	02912c23          	sw	s1,56(sp)
8000002c:	2b4000ef          	jal	ra,800002e0 <ioe_init>
80000030:	00000517          	auipc	a0,0x0
80000034:	73050513          	addi	a0,a0,1840 # 80000760 <_etext>
80000038:	37c000ef          	jal	ra,800003b4 <printf>
8000003c:	02010593          	addi	a1,sp,32
80000040:	00e00513          	li	a0,14
80000044:	2f0000ef          	jal	ra,80000334 <ioe_read>
80000048:	02014783          	lbu	a5,32(sp)
8000004c:	00012223          	sw	zero,4(sp)
80000050:	00f12c23          	sw	a5,24(sp)
80000054:	16079e63          	bnez	a5,800001d0 <main+0x1c0>
80000058:	00c12483          	lw	s1,12(sp)
8000005c:	00600513          	li	a0,6
80000060:	00000417          	auipc	s0,0x0
80000064:	79040413          	addi	s0,s0,1936 # 800007f0 <video_payload>
80000068:	00048593          	mv	a1,s1
8000006c:	00812023          	sw	s0,0(sp)
80000070:	2c4000ef          	jal	ra,80000334 <ioe_read>
80000074:	00192717          	auipc	a4,0x192
80000078:	b6c70713          	addi	a4,a4,-1172 # 80191be0 <audio_payload>
8000007c:	0044a783          	lw	a5,4(s1)
80000080:	00e12423          	sw	a4,8(sp)
80000084:	0004a703          	lw	a4,0(s1)
80000088:	00f12a23          	sw	a5,20(sp)
8000008c:	00192797          	auipc	a5,0x192
80000090:	b5078793          	addi	a5,a5,-1200 # 80191bdc <video_payload_end>
80000094:	00e12823          	sw	a4,16(sp)
80000098:	0cf47c63          	bgeu	s0,a5,80000170 <main+0x160>
8000009c:	00000517          	auipc	a0,0x0
800000a0:	6cc50513          	addi	a0,a0,1740 # 80000768 <_etext+0x8>
800000a4:	310000ef          	jal	ra,800003b4 <printf>
800000a8:	05000413          	li	s0,80
800000ac:	fb040493          	addi	s1,s0,-80
800000b0:	00012783          	lw	a5,0(sp)
800000b4:	4034d713          	srai	a4,s1,0x3
800000b8:	00e78733          	add	a4,a5,a4
800000bc:	00074503          	lbu	a0,0(a4)
800000c0:	fff4c713          	not	a4,s1
800000c4:	00777713          	andi	a4,a4,7
800000c8:	40e55533          	sra	a0,a0,a4
800000cc:	00157513          	andi	a0,a0,1
800000d0:	40a00533          	neg	a0,a0
800000d4:	02a57513          	andi	a0,a0,42
800000d8:	00148493          	addi	s1,s1,1
800000dc:	02e50513          	addi	a0,a0,46
800000e0:	13c000ef          	jal	ra,8000021c <putch>
800000e4:	fc9416e3          	bne	s0,s1,800000b0 <main+0xa0>
800000e8:	00a00513          	li	a0,10
800000ec:	130000ef          	jal	ra,8000021c <putch>
800000f0:	000017b7          	lui	a5,0x1
800000f4:	05040413          	addi	s0,s0,80
800000f8:	82078793          	addi	a5,a5,-2016 # 820 <_entry_offset+0x820>
800000fc:	faf418e3          	bne	s0,a5,800000ac <main+0x9c>
80000100:	01812783          	lw	a5,24(sp)
80000104:	08079263          	bnez	a5,80000188 <main+0x178>
80000108:	01012703          	lw	a4,16(sp)
8000010c:	000087b7          	lui	a5,0x8
80000110:	23578793          	addi	a5,a5,565 # 8235 <_entry_offset+0x8235>
80000114:	00f707b3          	add	a5,a4,a5
80000118:	00e7b433          	sltu	s0,a5,a4
8000011c:	01412703          	lw	a4,20(sp)
80000120:	00c12483          	lw	s1,12(sp)
80000124:	00f12e23          	sw	a5,28(sp)
80000128:	00e40433          	add	s0,s0,a4
8000012c:	00f12823          	sw	a5,16(sp)
80000130:	00812a23          	sw	s0,20(sp)
80000134:	00048593          	mv	a1,s1
80000138:	00600513          	li	a0,6
8000013c:	1f8000ef          	jal	ra,80000334 <ioe_read>
80000140:	0044a783          	lw	a5,4(s1)
80000144:	0004a703          	lw	a4,0(s1)
80000148:	fe87e6e3          	bltu	a5,s0,80000134 <main+0x124>
8000014c:	00f41663          	bne	s0,a5,80000158 <main+0x148>
80000150:	01c12783          	lw	a5,28(sp)
80000154:	fef760e3          	bltu	a4,a5,80000134 <main+0x124>
80000158:	00012783          	lw	a5,0(sp)
8000015c:	00192717          	auipc	a4,0x192
80000160:	a8070713          	addi	a4,a4,-1408 # 80191bdc <video_payload_end>
80000164:	0fa78793          	addi	a5,a5,250
80000168:	00f12023          	sw	a5,0(sp)
8000016c:	f2e7e8e3          	bltu	a5,a4,8000009c <main+0x8c>
80000170:	04012083          	lw	ra,64(sp)
80000174:	03c12403          	lw	s0,60(sp)
80000178:	03812483          	lw	s1,56(sp)
8000017c:	00000513          	li	a0,0
80000180:	04410113          	addi	sp,sp,68
80000184:	00008067          	ret
80000188:	00412703          	lw	a4,4(sp)
8000018c:	000017b7          	lui	a5,0x1
80000190:	b7b78793          	addi	a5,a5,-1157 # b7b <_entry_offset+0xb7b>
80000194:	02e7c863          	blt	a5,a4,800001c4 <main+0x1b4>
80000198:	00070793          	mv	a5,a4
8000019c:	06e05c63          	blez	a4,80000214 <main+0x204>
800001a0:	00812703          	lw	a4,8(sp)
800001a4:	02010593          	addi	a1,sp,32
800001a8:	01100513          	li	a0,17
800001ac:	00f707b3          	add	a5,a4,a5
800001b0:	02e12023          	sw	a4,32(sp)
800001b4:	02f12223          	sw	a5,36(sp)
800001b8:	00f12423          	sw	a5,8(sp)
800001bc:	194000ef          	jal	ra,80000350 <ioe_write>
800001c0:	f49ff06f          	j	80000108 <main+0xf8>
800001c4:	000017b7          	lui	a5,0x1
800001c8:	b7c78793          	addi	a5,a5,-1156 # b7c <_entry_offset+0xb7c>
800001cc:	fd5ff06f          	j	800001a0 <main+0x190>
800001d0:	0000b7b7          	lui	a5,0xb
800001d4:	c4478793          	addi	a5,a5,-956 # ac44 <_entry_offset+0xac44>
800001d8:	02f12023          	sw	a5,32(sp)
800001dc:	00100793          	li	a5,1
800001e0:	02f12223          	sw	a5,36(sp)
800001e4:	02010593          	addi	a1,sp,32
800001e8:	40000793          	li	a5,1024
800001ec:	00f00513          	li	a0,15
800001f0:	02f12423          	sw	a5,40(sp)
800001f4:	15c000ef          	jal	ra,80000350 <ioe_write>
800001f8:	01401717          	auipc	a4,0x1401
800001fc:	9e870713          	addi	a4,a4,-1560 # 81400be0 <lut>
80000200:	00192797          	auipc	a5,0x192
80000204:	9e078793          	addi	a5,a5,-1568 # 80191be0 <audio_payload>
80000208:	40f707b3          	sub	a5,a4,a5
8000020c:	00f12223          	sw	a5,4(sp)
80000210:	e49ff06f          	j	80000058 <main+0x48>
80000214:	00012223          	sw	zero,4(sp)
80000218:	ef1ff06f          	j	80000108 <main+0xf8>

8000021c <putch>:
8000021c:	a00007b7          	lui	a5,0xa0000
80000220:	3ea78c23          	sb	a0,1016(a5) # a00003f8 <_end+0x1ebf73f8>
80000224:	00008067          	ret

80000228 <halt>:
80000228:	00050513          	mv	a0,a0
8000022c:	00100073          	ebreak
80000230:	0000006f          	j	80000230 <halt+0x8>

80000234 <_trm_init>:
80000234:	ff410113          	addi	sp,sp,-12
80000238:	00000517          	auipc	a0,0x0
8000023c:	5b050513          	addi	a0,a0,1456 # 800007e8 <mainargs>
80000240:	00112423          	sw	ra,8(sp)
80000244:	dcdff0ef          	jal	ra,80000010 <main>
80000248:	00050513          	mv	a0,a0
8000024c:	00100073          	ebreak
80000250:	0000006f          	j	80000250 <_trm_init+0x1c>

80000254 <__am_timer_config>:
80000254:	00100793          	li	a5,1
80000258:	00f50023          	sb	a5,0(a0)
8000025c:	00f500a3          	sb	a5,1(a0)
80000260:	00008067          	ret

80000264 <__am_input_config>:
80000264:	00100793          	li	a5,1
80000268:	00f50023          	sb	a5,0(a0)
8000026c:	00008067          	ret

80000270 <__am_uart_config>:
80000270:	00050023          	sb	zero,0(a0)
80000274:	00008067          	ret

80000278 <fail>:
80000278:	ff410113          	addi	sp,sp,-12
8000027c:	00812223          	sw	s0,4(sp)
80000280:	00112423          	sw	ra,8(sp)
80000284:	00000417          	auipc	s0,0x0
80000288:	4ec40413          	addi	s0,s0,1260 # 80000770 <_etext+0x10>
8000028c:	04100513          	li	a0,65
80000290:	00140413          	addi	s0,s0,1
80000294:	f89ff0ef          	jal	ra,8000021c <putch>
80000298:	00044503          	lbu	a0,0(s0)
8000029c:	fe051ae3          	bnez	a0,80000290 <fail+0x18>
800002a0:	00000417          	auipc	s0,0x0
800002a4:	4dc40413          	addi	s0,s0,1244 # 8000077c <_etext+0x1c>
800002a8:	06100513          	li	a0,97
800002ac:	00140413          	addi	s0,s0,1
800002b0:	f6dff0ef          	jal	ra,8000021c <putch>
800002b4:	00044503          	lbu	a0,0(s0)
800002b8:	fe051ae3          	bnez	a0,800002ac <fail+0x34>
800002bc:	00000417          	auipc	s0,0x0
800002c0:	4dc40413          	addi	s0,s0,1244 # 80000798 <_etext+0x38>
800002c4:	02000513          	li	a0,32
800002c8:	00140413          	addi	s0,s0,1
800002cc:	f51ff0ef          	jal	ra,8000021c <putch>
800002d0:	00044503          	lbu	a0,0(s0)
800002d4:	fe051ae3          	bnez	a0,800002c8 <fail+0x50>
800002d8:	00100513          	li	a0,1
800002dc:	f4dff0ef          	jal	ra,80000228 <halt>

800002e0 <ioe_init>:
800002e0:	ff410113          	addi	sp,sp,-12
800002e4:	00112423          	sw	ra,8(sp)
800002e8:	01401797          	auipc	a5,0x1401
800002ec:	8f878793          	addi	a5,a5,-1800 # 81400be0 <lut>
800002f0:	01401697          	auipc	a3,0x1401
800002f4:	af068693          	addi	a3,a3,-1296 # 81400de0 <_bss_start>
800002f8:	00000617          	auipc	a2,0x0
800002fc:	f8060613          	addi	a2,a2,-128 # 80000278 <fail>
80000300:	00c0006f          	j	8000030c <ioe_init+0x2c>
80000304:	00478793          	addi	a5,a5,4
80000308:	00d78c63          	beq	a5,a3,80000320 <ioe_init+0x40>
8000030c:	0007a703          	lw	a4,0(a5)
80000310:	fe071ae3          	bnez	a4,80000304 <ioe_init+0x24>
80000314:	00c7a023          	sw	a2,0(a5)
80000318:	00478793          	addi	a5,a5,4
8000031c:	fed798e3          	bne	a5,a3,8000030c <ioe_init+0x2c>
80000320:	04c000ef          	jal	ra,8000036c <__am_timer_init>
80000324:	00812083          	lw	ra,8(sp)
80000328:	00100513          	li	a0,1
8000032c:	00c10113          	addi	sp,sp,12
80000330:	00008067          	ret

80000334 <ioe_read>:
80000334:	00251513          	slli	a0,a0,0x2
80000338:	01401797          	auipc	a5,0x1401
8000033c:	8a878793          	addi	a5,a5,-1880 # 81400be0 <lut>
80000340:	00a787b3          	add	a5,a5,a0
80000344:	0007a783          	lw	a5,0(a5)
80000348:	00058513          	mv	a0,a1
8000034c:	00078067          	jr	a5

80000350 <ioe_write>:
80000350:	00251513          	slli	a0,a0,0x2
80000354:	01401797          	auipc	a5,0x1401
80000358:	88c78793          	addi	a5,a5,-1908 # 81400be0 <lut>
8000035c:	00a787b3          	add	a5,a5,a0
80000360:	0007a783          	lw	a5,0(a5)
80000364:	00058513          	mv	a0,a1
80000368:	00078067          	jr	a5

8000036c <__am_timer_init>:
8000036c:	00008067          	ret

80000370 <__am_timer_uptime>:
80000370:	a00007b7          	lui	a5,0xa0000
80000374:	0487a703          	lw	a4,72(a5) # a0000048 <_end+0x1ebf7048>
80000378:	04c7a783          	lw	a5,76(a5)
8000037c:	00e52023          	sw	a4,0(a0)
80000380:	00f52223          	sw	a5,4(a0)
80000384:	00008067          	ret

80000388 <__am_timer_rtc>:
80000388:	76c00793          	li	a5,1900
8000038c:	00052a23          	sw	zero,20(a0)
80000390:	00052823          	sw	zero,16(a0)
80000394:	00052623          	sw	zero,12(a0)
80000398:	00052423          	sw	zero,8(a0)
8000039c:	00052223          	sw	zero,4(a0)
800003a0:	00f52023          	sw	a5,0(a0)
800003a4:	00008067          	ret

800003a8 <__am_input_keybrd>:
800003a8:	00050023          	sb	zero,0(a0)
800003ac:	00052223          	sw	zero,4(a0)
800003b0:	00008067          	ret

800003b4 <printf>:
800003b4:	be010113          	addi	sp,sp,-1056
800003b8:	40f12e23          	sw	a5,1052(sp)
800003bc:	40112423          	sw	ra,1032(sp)
800003c0:	40812223          	sw	s0,1028(sp)
800003c4:	40912023          	sw	s1,1024(sp)
800003c8:	40b12623          	sw	a1,1036(sp)
800003cc:	40c12823          	sw	a2,1040(sp)
800003d0:	40d12a23          	sw	a3,1044(sp)
800003d4:	40e12c23          	sw	a4,1048(sp)
800003d8:	00050313          	mv	t1,a0
800003dc:	00054503          	lbu	a0,0(a0)
800003e0:	40c10793          	addi	a5,sp,1036
800003e4:	00f12a23          	sw	a5,20(sp)
800003e8:	00012023          	sw	zero,0(sp)
800003ec:	02051863          	bnez	a0,8000041c <printf+0x68>
800003f0:	0c80006f          	j	800004b8 <printf+0x104>
800003f4:	00612223          	sw	t1,4(sp)
800003f8:	e25ff0ef          	jal	ra,8000021c <putch>
800003fc:	00012783          	lw	a5,0(sp)
80000400:	00412303          	lw	t1,4(sp)
80000404:	00178793          	addi	a5,a5,1
80000408:	00f12023          	sw	a5,0(sp)
8000040c:	00030413          	mv	s0,t1
80000410:	00144503          	lbu	a0,1(s0)
80000414:	00140313          	addi	t1,s0,1
80000418:	0a050063          	beqz	a0,800004b8 <printf+0x104>
8000041c:	02500793          	li	a5,37
80000420:	fcf51ae3          	bne	a0,a5,800003f4 <printf+0x40>
80000424:	00134583          	lbu	a1,1(t1)
80000428:	03000793          	li	a5,48
8000042c:	00130413          	addi	s0,t1,1
80000430:	02000493          	li	s1,32
80000434:	00f59863          	bne	a1,a5,80000444 <printf+0x90>
80000438:	00234583          	lbu	a1,2(t1)
8000043c:	00230413          	addi	s0,t1,2
80000440:	03000493          	li	s1,48
80000444:	fd058693          	addi	a3,a1,-48
80000448:	0ff6f313          	zext.b	t1,a3
8000044c:	00900793          	li	a5,9
80000450:	00000613          	li	a2,0
80000454:	00900513          	li	a0,9
80000458:	0267e463          	bltu	a5,t1,80000480 <printf+0xcc>
8000045c:	00144583          	lbu	a1,1(s0)
80000460:	00261793          	slli	a5,a2,0x2
80000464:	00c787b3          	add	a5,a5,a2
80000468:	00179793          	slli	a5,a5,0x1
8000046c:	00f68633          	add	a2,a3,a5
80000470:	fd058693          	addi	a3,a1,-48
80000474:	0ff6f793          	zext.b	a5,a3
80000478:	00140413          	addi	s0,s0,1
8000047c:	fef570e3          	bgeu	a0,a5,8000045c <printf+0xa8>
80000480:	06400793          	li	a5,100
80000484:	08f58a63          	beq	a1,a5,80000518 <printf+0x164>
80000488:	07300793          	li	a5,115
8000048c:	04f58263          	beq	a1,a5,800004d0 <printf+0x11c>
80000490:	02500513          	li	a0,37
80000494:	d89ff0ef          	jal	ra,8000021c <putch>
80000498:	00012783          	lw	a5,0(sp)
8000049c:	00044503          	lbu	a0,0(s0)
800004a0:	00278793          	addi	a5,a5,2
800004a4:	00f12023          	sw	a5,0(sp)
800004a8:	d75ff0ef          	jal	ra,8000021c <putch>
800004ac:	00144503          	lbu	a0,1(s0)
800004b0:	00140313          	addi	t1,s0,1
800004b4:	f60514e3          	bnez	a0,8000041c <printf+0x68>
800004b8:	40812083          	lw	ra,1032(sp)
800004bc:	40412403          	lw	s0,1028(sp)
800004c0:	00012503          	lw	a0,0(sp)
800004c4:	40012483          	lw	s1,1024(sp)
800004c8:	42010113          	addi	sp,sp,1056
800004cc:	00008067          	ret
800004d0:	01412783          	lw	a5,20(sp)
800004d4:	0007a703          	lw	a4,0(a5)
800004d8:	00478793          	addi	a5,a5,4
800004dc:	00f12a23          	sw	a5,20(sp)
800004e0:	00074503          	lbu	a0,0(a4)
800004e4:	00e12223          	sw	a4,4(sp)
800004e8:	f20504e3          	beqz	a0,80000410 <printf+0x5c>
800004ec:	00012483          	lw	s1,0(sp)
800004f0:	d2dff0ef          	jal	ra,8000021c <putch>
800004f4:	00012783          	lw	a5,0(sp)
800004f8:	00412703          	lw	a4,4(sp)
800004fc:	00148493          	addi	s1,s1,1
80000500:	40f487b3          	sub	a5,s1,a5
80000504:	00f707b3          	add	a5,a4,a5
80000508:	0007c503          	lbu	a0,0(a5)
8000050c:	fe0512e3          	bnez	a0,800004f0 <printf+0x13c>
80000510:	00912023          	sw	s1,0(sp)
80000514:	efdff06f          	j	80000410 <printf+0x5c>
80000518:	01412783          	lw	a5,20(sp)
8000051c:	00012703          	lw	a4,0(sp)
80000520:	00478793          	addi	a5,a5,4
80000524:	00170593          	addi	a1,a4,1
80000528:	ffc7a703          	lw	a4,-4(a5)
8000052c:	00f12a23          	sw	a5,20(sp)
80000530:	00e12823          	sw	a4,16(sp)
80000534:	0c074863          	bltz	a4,80000604 <printf+0x250>
80000538:	01012783          	lw	a5,16(sp)
8000053c:	16079463          	bnez	a5,800006a4 <printf+0x2f0>
80000540:	03000793          	li	a5,48
80000544:	00f10c23          	sb	a5,24(sp)
80000548:	00b12223          	sw	a1,4(sp)
8000054c:	00100793          	li	a5,1
80000550:	0ac7d063          	bge	a5,a2,800005f0 <printf+0x23c>
80000554:	00100793          	li	a5,1
80000558:	00f12623          	sw	a5,12(sp)
8000055c:	00c12783          	lw	a5,12(sp)
80000560:	40f607b3          	sub	a5,a2,a5
80000564:	00078713          	mv	a4,a5
80000568:	00f12423          	sw	a5,8(sp)
8000056c:	00000793          	li	a5,0
80000570:	10e05e63          	blez	a4,8000068c <printf+0x2d8>
80000574:	00178793          	addi	a5,a5,1
80000578:	00048513          	mv	a0,s1
8000057c:	00f12223          	sw	a5,4(sp)
80000580:	c9dff0ef          	jal	ra,8000021c <putch>
80000584:	00812703          	lw	a4,8(sp)
80000588:	00412783          	lw	a5,4(sp)
8000058c:	fef714e3          	bne	a4,a5,80000574 <printf+0x1c0>
80000590:	01012783          	lw	a5,16(sp)
80000594:	01410713          	addi	a4,sp,20
80000598:	00012683          	lw	a3,0(sp)
8000059c:	3ec78793          	addi	a5,a5,1004
800005a0:	00e787b3          	add	a5,a5,a4
800005a4:	00812703          	lw	a4,8(sp)
800005a8:	c187c783          	lbu	a5,-1000(a5)
800005ac:	00d70733          	add	a4,a4,a3
800005b0:	00e12023          	sw	a4,0(sp)
800005b4:	00c12683          	lw	a3,12(sp)
800005b8:	01810713          	addi	a4,sp,24
800005bc:	00d704b3          	add	s1,a4,a3
800005c0:	0080006f          	j	800005c8 <printf+0x214>
800005c4:	fff4c783          	lbu	a5,-1(s1)
800005c8:	00078513          	mv	a0,a5
800005cc:	c51ff0ef          	jal	ra,8000021c <putch>
800005d0:	fff48493          	addi	s1,s1,-1
800005d4:	01810793          	addi	a5,sp,24
800005d8:	fe9796e3          	bne	a5,s1,800005c4 <printf+0x210>
800005dc:	00012703          	lw	a4,0(sp)
800005e0:	00c12783          	lw	a5,12(sp)
800005e4:	00e787b3          	add	a5,a5,a4
800005e8:	00f12023          	sw	a5,0(sp)
800005ec:	e25ff06f          	j	80000410 <printf+0x5c>
800005f0:	03000513          	li	a0,48
800005f4:	c29ff0ef          	jal	ra,8000021c <putch>
800005f8:	00412583          	lw	a1,4(sp)
800005fc:	00b12023          	sw	a1,0(sp)
80000600:	e11ff06f          	j	80000410 <printf+0x5c>
80000604:	02d00513          	li	a0,45
80000608:	00c12223          	sw	a2,4(sp)
8000060c:	00b12023          	sw	a1,0(sp)
80000610:	c0dff0ef          	jal	ra,8000021c <putch>
80000614:	01012783          	lw	a5,16(sp)
80000618:	00412603          	lw	a2,4(sp)
8000061c:	40f006b3          	neg	a3,a5
80000620:	00012623          	sw	zero,12(sp)
80000624:	00a00593          	li	a1,10
80000628:	00068513          	mv	a0,a3
8000062c:	00c12423          	sw	a2,8(sp)
80000630:	00d12223          	sw	a3,4(sp)
80000634:	0fc000ef          	jal	ra,80000730 <__modsi3>
80000638:	00c12703          	lw	a4,12(sp)
8000063c:	00412683          	lw	a3,4(sp)
80000640:	03050793          	addi	a5,a0,48
80000644:	00e12823          	sw	a4,16(sp)
80000648:	00068513          	mv	a0,a3
8000064c:	00170713          	addi	a4,a4,1
80000650:	01810693          	addi	a3,sp,24
80000654:	0ff7f793          	zext.b	a5,a5
80000658:	00e686b3          	add	a3,a3,a4
8000065c:	fef68fa3          	sb	a5,-1(a3)
80000660:	00a00593          	li	a1,10
80000664:	00f12223          	sw	a5,4(sp)
80000668:	00e12623          	sw	a4,12(sp)
8000066c:	040000ef          	jal	ra,800006ac <__divsi3>
80000670:	00412783          	lw	a5,4(sp)
80000674:	00812603          	lw	a2,8(sp)
80000678:	00050693          	mv	a3,a0
8000067c:	fa0514e3          	bnez	a0,80000624 <printf+0x270>
80000680:	00c12703          	lw	a4,12(sp)
80000684:	ecc74ce3          	blt	a4,a2,8000055c <printf+0x1a8>
80000688:	f2dff06f          	j	800005b4 <printf+0x200>
8000068c:	01012783          	lw	a5,16(sp)
80000690:	01410713          	addi	a4,sp,20
80000694:	3ec78793          	addi	a5,a5,1004
80000698:	00e787b3          	add	a5,a5,a4
8000069c:	c187c783          	lbu	a5,-1000(a5)
800006a0:	f15ff06f          	j	800005b4 <printf+0x200>
800006a4:	00078693          	mv	a3,a5
800006a8:	f79ff06f          	j	80000620 <printf+0x26c>

800006ac <__divsi3>:
800006ac:	06054063          	bltz	a0,8000070c <__umodsi3+0x10>
800006b0:	0605c663          	bltz	a1,8000071c <__umodsi3+0x20>

800006b4 <__hidden___udivsi3>:
800006b4:	00058613          	mv	a2,a1
800006b8:	00050593          	mv	a1,a0
800006bc:	fff00513          	li	a0,-1
800006c0:	02060c63          	beqz	a2,800006f8 <__hidden___udivsi3+0x44>
800006c4:	00100693          	li	a3,1
800006c8:	00b67a63          	bgeu	a2,a1,800006dc <__hidden___udivsi3+0x28>
800006cc:	00c05863          	blez	a2,800006dc <__hidden___udivsi3+0x28>
800006d0:	00161613          	slli	a2,a2,0x1
800006d4:	00169693          	slli	a3,a3,0x1
800006d8:	feb66ae3          	bltu	a2,a1,800006cc <__hidden___udivsi3+0x18>
800006dc:	00000513          	li	a0,0
800006e0:	00c5e663          	bltu	a1,a2,800006ec <__hidden___udivsi3+0x38>
800006e4:	40c585b3          	sub	a1,a1,a2
800006e8:	00d56533          	or	a0,a0,a3
800006ec:	0016d693          	srli	a3,a3,0x1
800006f0:	00165613          	srli	a2,a2,0x1
800006f4:	fe0696e3          	bnez	a3,800006e0 <__hidden___udivsi3+0x2c>
800006f8:	00008067          	ret

800006fc <__umodsi3>:
800006fc:	00008293          	mv	t0,ra
80000700:	fb5ff0ef          	jal	ra,800006b4 <__hidden___udivsi3>
80000704:	00058513          	mv	a0,a1
80000708:	00028067          	jr	t0
8000070c:	40a00533          	neg	a0,a0
80000710:	00b04863          	bgtz	a1,80000720 <__umodsi3+0x24>
80000714:	40b005b3          	neg	a1,a1
80000718:	f9dff06f          	j	800006b4 <__hidden___udivsi3>
8000071c:	40b005b3          	neg	a1,a1
80000720:	00008293          	mv	t0,ra
80000724:	f91ff0ef          	jal	ra,800006b4 <__hidden___udivsi3>
80000728:	40a00533          	neg	a0,a0
8000072c:	00028067          	jr	t0

80000730 <__modsi3>:
80000730:	00008293          	mv	t0,ra
80000734:	0005ca63          	bltz	a1,80000748 <__modsi3+0x18>
80000738:	00054c63          	bltz	a0,80000750 <__modsi3+0x20>
8000073c:	f79ff0ef          	jal	ra,800006b4 <__hidden___udivsi3>
80000740:	00058513          	mv	a0,a1
80000744:	00028067          	jr	t0
80000748:	40b005b3          	neg	a1,a1
8000074c:	fe0558e3          	bgez	a0,8000073c <__modsi3+0xc>
80000750:	40a00533          	neg	a0,a0
80000754:	f61ff0ef          	jal	ra,800006b4 <__hidden___udivsi3>
80000758:	40b00533          	neg	a0,a1
8000075c:	00028067          	jr	t0
