[1;34m[/home/xietianle/ysyx-workbench/npc/csrc/utils/log.c:34 init_log] Log is written to /home/xietianle/ysyx-workbench/am-kernels/benchmarks/microbench/build/npc-log.txt[0m
[1;34m[/home/xietianle/ysyx-workbench/npc/csrc/memory/paddr.c:70 init_mem] physical memory area [0x80000000, 0x87ffffff][0m
[1;34m[/home/xietianle/ysyx-workbench/npc/csrc/monitor/monitor.c:64 load_img] The image is /home/xietianle/ysyx-workbench/am-kernels/benchmarks/microbench/build/microbench-riscv32e-npc.bin, size = 29496[0m
[1;34m[/home/xietianle/ysyx-workbench/npc/csrc/cpu/difftest/dut_cpu.c:84 init_difftest] Differential testing: [1;32mON[0m[0m
[1;34m[/home/xietianle/ysyx-workbench/npc/csrc/cpu/difftest/dut_cpu.c:85 init_difftest] The result of every instruction will be compared with /home/xietianle/ysyx-workbench/nemu/build/riscv32-nemu-interpreter-so. This will help you a lot for debugging, but also significantly reduce the performance. If it is not necessary, you can turn it off in menuconfig.[0m
[1;34m[/home/xietianle/ysyx-workbench/npc/csrc/monitor/monitor.c:30 welcome] Trace: [1;32mON[0m[0m
[1;34m[/home/xietianle/ysyx-workbench/npc/csrc/monitor/monitor.c:31 welcome] If trace is enabled, a log file will be generated to record the trace. This may lead to a large log file. If it is not necessary, you can disable it in menuconfig[0m
[1;34m[/home/xietianle/ysyx-workbench/npc/csrc/monitor/monitor.c:34 welcome] Build time: 11:21:17, Aug 15 2025[0m
[1;34m[/home/xietianle/ysyx-workbench/npc/csrc/monitor/monitor.c:37 welcome] Exercise: Please remove me in the source code and compile NPC again.[0m
0x80000000: 00 00 04 13 addi	s0, zero, 0
0x80000004: 00 01 01 17 auipc	sp, 16
0x80000008: ff c1 01 13 addi	sp, sp, -4
0x8000000c: 5c c0 50 ef jal	ra, 0x800055d8
0x800055d8: ff 41 01 13 addi	sp, sp, -12
0x800055dc: 00 00 15 17 auipc	a0, 1
0x800055e0: 64 45 05 13 addi	a0, a0, 1604
0x800055e4: 00 11 24 23 sw	ra, 8(sp)
0x800055e8: 8d 5f b0 ef jal	ra, 0x80000ebc
0x80000ebc: fb 41 01 13 addi	sp, sp, -76
0x80000ec0: 04 91 20 23 sw	s1, 64(sp)
0x80000ec4: 03 b1 07 93 addi	a5, sp, 59
0x80000ec8: 04 11 24 23 sw	ra, 72(sp)
0x80000ecc: 04 81 22 23 sw	s0, 68(sp)
0x80000ed0: ff 87 f4 93 andi	s1, a5, -8
0x80000ed4: 3e 05 08 63 beq	a0, zero, 0x800012c4
0x80000ed8: 00 00 65 97 auipc	a1, 6
0x80000edc: 94 c5 85 93 addi	a1, a1, -1716
0x80000ee0: 00 05 04 13 addi	s0, a0, 0
0x80000ee4: 44 80 50 ef jal	ra, 0x8000632c
0x8000632c: 00 05 46 83 lbu	a3, 0(a0)
0x80006330: 00 00 07 93 addi	a5, zero, 0
0x80006334: 00 06 9a 63 bne	a3, zero, 0x80006348
0x80006348: 00 f5 87 33 add	a4, a1, a5
0x8000634c: 00 07 47 03 lbu	a4, 0(a4)
0x80006350: 00 17 87 93 addi	a5, a5, 1
0x80006354: 00 f5 06 33 add	a2, a0, a5
0x80006358: fe 07 12 e3 bne	a4, zero, 0x8000633c
0x8000635c: 40 e6 85 33 sub	a0, a3, a4
0x80006360: 00 00 80 67 jalr	zero, 0(ra)
0x80000ee8: 3c 05 0e 63 beq	a0, zero, 0x800012c4
0x80000eec: 00 00 65 97 auipc	a1, 6
0x80000ef0: 8b 05 85 93 addi	a1, a1, -1872
0x80000ef4: 00 04 05 13 addi	a0, s0, 0
0x80000ef8: 43 40 50 ef jal	ra, 0x8000632c
0x8000632c: 00 05 46 83 lbu	a3, 0(a0)
0x80006330: 00 00 07 93 addi	a5, zero, 0
0x80006334: 00 06 9a 63 bne	a3, zero, 0x80006348
0x80006348: 00 f5 87 33 add	a4, a1, a5
0x8000634c: 00 07 47 03 lbu	a4, 0(a4)
0x80006350: 00 17 87 93 addi	a5, a5, 1
0x80006354: 00 f5 06 33 add	a2, a0, a5
0x80006358: fe 07 12 e3 bne	a4, zero, 0x8000633c
0x8000633c: 02 d7 10 63 bne	a4, a3, 0x8000635c
0x80006340: 00 06 46 83 lbu	a3, 0(a2)
0x80006344: 02 06 80 63 beq	a3, zero, 0x80006364
0x80006348: 00 f5 87 33 add	a4, a1, a5
0x8000634c: 00 07 47 03 lbu	a4, 0(a4)
0x80006350: 00 17 87 93 addi	a5, a5, 1
0x80006354: 00 f5 06 33 add	a2, a0, a5
0x80006358: fe 07 12 e3 bne	a4, zero, 0x8000633c
0x8000633c: 02 d7 10 63 bne	a4, a3, 0x8000635c
0x80006340: 00 06 46 83 lbu	a3, 0(a2)
0x80006344: 02 06 80 63 beq	a3, zero, 0x80006364
0x80006348: 00 f5 87 33 add	a4, a1, a5
0x8000634c: 00 07 47 03 lbu	a4, 0(a4)
0x80006350: 00 17 87 93 addi	a5, a5, 1
0x80006354: 00 f5 06 33 add	a2, a0, a5
0x80006358: fe 07 12 e3 bne	a4, zero, 0x8000633c
0x8000633c: 02 d7 10 63 bne	a4, a3, 0x8000635c
0x80006340: 00 06 46 83 lbu	a3, 0(a2)
0x80006344: 02 06 80 63 beq	a3, zero, 0x80006364
0x80006348: 00 f5 87 33 add	a4, a1, a5
0x8000634c: 00 07 47 03 lbu	a4, 0(a4)
0x80006350: 00 17 87 93 addi	a5, a5, 1
0x80006354: 00 f5 06 33 add	a2, a0, a5
0x80006358: fe 07 12 e3 bne	a4, zero, 0x8000633c
0x8000633c: 02 d7 10 63 bne	a4, a3, 0x8000635c
0x80006340: 00 06 46 83 lbu	a3, 0(a2)
0x80006344: 02 06 80 63 beq	a3, zero, 0x80006364
0x80006364: 00 f5 85 b3 add	a1, a1, a5
0x80006368: 00 05 c7 03 lbu	a4, 0(a1)
0x8000636c: 40 e6 85 33 sub	a0, a3, a4
0x80006370: 00 00 80 67 jalr	zero, 0(ra)
0x80000efc: 00 a1 2e 23 sw	a0, 28(sp)
0x80000f00: 02 05 00 63 beq	a0, zero, 0x80000f20
0x80000f20: 76 40 40 ef jal	ra, 0x80005684
0x80005684: ff 41 01 13 addi	sp, sp, -12
0x80005688: 00 11 24 23 sw	ra, 8(sp)
0x8000568c: 00 00 27 97 auipc	a5, 2
0x80005690: 9f 07 87 93 addi	a5, a5, -1552
0x80005694: 00 00 26 97 auipc	a3, 2
0x80005698: be 86 86 93 addi	a3, a3, -1048
0x8000569c: 00 00 06 17 auipc	a2, 0
0x800056a0: f8 06 06 13 addi	a2, a2, -128
0x800056a4: 00 c0 00 6f jal	zero, 0x800056b0
0x800056b0: 00 07 a7 03 lw	a4, 0(a5)
0x800056b4: fe 07 1a e3 bne	a4, zero, 0x800056a8
0x800056b8: 00 c7 a0 23 sw	a2, 0(a5)
0x800056bc: 00 47 87 93 addi	a5, a5, 4
0x800056c0: fe d7 98 e3 bne	a5, a3, 0x800056b0
0x800056b0: 00 07 a7 03 lw	a4, 0(a5)
0x800056b4: fe 07 1a e3 bne	a4, zero, 0x800056a8
0x800056a8: 00 47 87 93 addi	a5, a5, 4
0x800056ac: 00 d7 8c 63 beq	a5, a3, 0x800056c4
0x800056b0: 00 07 a7 03 lw	a4, 0(a5)
0x800056b4: fe 07 1a e3 bne	a4, zero, 0x800056a8
0x800056b8: 00 c7 a0 23 sw	a2, 0(a5)
0x800056bc: 00 47 87 93 addi	a5, a5, 4
0x800056c0: fe d7 98 e3 bne	a5, a3, 0x800056b0
0x800056b0: 00 07 a7 03 lw	a4, 0(a5)
0x800056b4: fe 07 1a e3 bne	a4, zero, 0x800056a8
0x800056b8: 00 c7 a0 23 sw	a2, 0(a5)
0x800056bc: 00 47 87 93 addi	a5, a5, 4
0x800056c0: fe d7 98 e3 bne	a5, a3, 0x800056b0
0x800056b0: 00 07 a7 03 lw	a4, 0(a5)
0x800056b4: fe 07 1a e3 bne	a4, zero, 0x800056a8
0x800056a8: 00 47 87 93 addi	a5, a5, 4
0x800056ac: 00 d7 8c 63 beq	a5, a3, 0x800056c4
0x800056b0: 00 07 a7 03 lw	a4, 0(a5)
0x800056b4: fe 07 1a e3 bne	a4, zero, 0x800056a8
0x800056a8: 00 47 87 93 addi	a5, a5, 4
0x800056ac: 00 d7 8c 63 beq	a5, a3, 0x800056c4
0x800056b0: 00 07 a7 03 lw	a4, 0(a5)
0x800056b4: fe 07 1a e3 bne	a4, zero, 0x800056a8
0x800056a8: 00 47 87 93 addi	a5, a5, 4
0x800056ac: 00 d7 8c 63 beq	a5, a3, 0x800056c4
0x800056b0: 00 07 a7 03 lw	a4, 0(a5)
0x800056b4: fe 07 1a e3 bne	a4, zero, 0x800056a8
0x800056a8: 00 47 87 93 addi	a5, a5, 4
0x800056ac: 00 d7 8c 63 beq	a5, a3, 0x800056c4
0x800056b0: 00 07 a7 03 lw	a4, 0(a5)
0x800056b4: fe 07 1a e3 bne	a4, zero, 0x800056a8
0x800056a8: 00 47 87 93 addi	a5, a5, 4
0x800056ac: 00 d7 8c 63 beq	a5, a3, 0x800056c4
0x800056b0: 00 07 a7 03 lw	a4, 0(a5)
0x800056b4: fe 07 1a e3 bne	a4, zero, 0x800056a8
0x800056b8: 00 c7 a0 23 sw	a2, 0(a5)
0x800056bc: 00 47 87 93 addi	a5, a5, 4
0x800056c0: fe d7 98 e3 bne	a5, a3, 0x800056b0
0x800056b0: 00 07 a7 03 lw	a4, 0(a5)
0x800056b4: fe 07 1a e3 bne	a4, zero, 0x800056a8
0x800056b8: 00 c7 a0 23 sw	a2, 0(a5)
0x800056bc: 00 47 87 93 addi	a5, a5, 4
0x800056c0: fe d7 98 e3 bne	a5, a3, 0x800056b0
0x800056b0: 00 07 a7 03 lw	a4, 0(a5)
0x800056b4: fe 07 1a e3 bne	a4, zero, 0x800056a8
0x800056b8: 00 c7 a0 23 sw	a2, 0(a5)
0x800056bc: 00 47 87 93 addi	a5, a5, 4
0x800056c0: fe d7 98 e3 bne	a5, a3, 0x800056b0
0x800056b0: 00 07 a7 03 lw	a4, 0(a5)
0x800056b4: fe 07 1a e3 bne	a4, zero, 0x800056a8
0x800056b8: 00 c7 a0 23 sw	a2, 0(a5)
0x800056bc: 00 47 87 93 addi	a5, a5, 4
0x800056c0: fe d7 98 e3 bne	a5, a3, 0x800056b0
0x800056b0: 00 07 a7 03 lw	a4, 0(a5)
0x800056b4: fe 07 1a e3 bne	a4, zero, 0x800056a8
0x800056b8: 00 c7 a0 23 sw	a2, 0(a5)
0x800056bc: 00 47 87 93 addi	a5, a5, 4
0x800056c0: fe d7 98 e3 bne	a5, a3, 0x800056b0
0x800056b0: 00 07 a7 03 lw	a4, 0(a5)
0x800056b4: fe 07 1a e3 bne	a4, zero, 0x800056a8
0x800056b8: 00 c7 a0 23 sw	a2, 0(a5)
0x800056bc: 00 47 87 93 addi	a5, a5, 4
0x800056c0: fe d7 98 e3 bne	a5, a3, 0x800056b0
0x800056b0: 00 07 a7 03 lw	a4, 0(a5)
0x800056b4: fe 07 1a e3 bne	a4, zero, 0x800056a8
0x800056b8: 00 c7 a0 23 sw	a2, 0(a5)
0x800056bc: 00 47 87 93 addi	a5, a5, 4
0x800056c0: fe d7 98 e3 bne	a5, a3, 0x800056b0
0x800056b0: 00 07 a7 03 lw	a4, 0(a5)
0x800056b4: fe 07 1a e3 bne	a4, zero, 0x800056a8
0x800056b8: 00 c7 a0 23 sw	a2, 0(a5)
0x800056bc: 00 47 87 93 addi	a5, a5, 4
0x800056c0: fe d7 98 e3 bne	a5, a3, 0x800056b0
0x800056b0: 00 07 a7 03 lw	a4, 0(a5)
0x800056b4: fe 07 1a e3 bne	a4, zero, 0x800056a8
0x800056b8: 00 c7 a0 23 sw	a2, 0(a5)
0x800056bc: 00 47 87 93 addi	a5, a5, 4
0x800056c0: fe d7 98 e3 bne	a5, a3, 0x800056b0
0x800056b0: 00 07 a7 03 lw	a4, 0(a5)
0x800056b4: fe 07 1a e3 bne	a4, zero, 0x800056a8
0x800056b8: 00 c7 a0 23 sw	a2, 0(a5)
0x800056bc: 00 47 87 93 addi	a5, a5, 4
0x800056c0: fe d7 98 e3 bne	a5, a3, 0x800056b0
0x800056b0: 00 07 a7 03 lw	a4, 0(a5)
0x800056b4: fe 07 1a e3 bne	a4, zero, 0x800056a8
0x800056b8: 00 c7 a0 23 sw	a2, 0(a5)
0x800056bc: 00 47 87 93 addi	a5, a5, 4
0x800056c0: fe d7 98 e3 bne	a5, a3, 0x800056b0
0x800056b0: 00 07 a7 03 lw	a4, 0(a5)
0x800056b4: fe 07 1a e3 bne	a4, zero, 0x800056a8
0x800056b8: 00 c7 a0 23 sw	a2, 0(a5)
0x800056bc: 00 47 87 93 addi	a5, a5, 4
0x800056c0: fe d7 98 e3 bne	a5, a3, 0x800056b0
0x800056b0: 00 07 a7 03 lw	a4, 0(a5)
0x800056b4: fe 07 1a e3 bne	a4, zero, 0x800056a8
0x800056b8: 00 c7 a0 23 sw	a2, 0(a5)
0x800056bc: 00 47 87 93 addi	a5, a5, 4
0x800056c0: fe d7 98 e3 bne	a5, a3, 0x800056b0
0x800056b0: 00 07 a7 03 lw	a4, 0(a5)
0x800056b4: fe 07 1a e3 bne	a4, zero, 0x800056a8
0x800056b8: 00 c7 a0 23 sw	a2, 0(a5)
0x800056bc: 00 47 87 93 addi	a5, a5, 4
0x800056c0: fe d7 98 e3 bne	a5, a3, 0x800056b0
0x800056b0: 00 07 a7 03 lw	a4, 0(a5)
0x800056b4: fe 07 1a e3 bne	a4, zero, 0x800056a8
0x800056b8: 00 c7 a0 23 sw	a2, 0(a5)
0x800056bc: 00 47 87 93 addi	a5, a5, 4
0x800056c0: fe d7 98 e3 bne	a5, a3, 0x800056b0
0x800056b0: 00 07 a7 03 lw	a4, 0(a5)
0x800056b4: fe 07 1a e3 bne	a4, zero, 0x800056a8
0x800056b8: 00 c7 a0 23 sw	a2, 0(a5)
0x800056bc: 00 47 87 93 addi	a5, a5, 4
0x800056c0: fe d7 98 e3 bne	a5, a3, 0x800056b0
0x800056b0: 00 07 a7 03 lw	a4, 0(a5)
0x800056b4: fe 07 1a e3 bne	a4, zero, 0x800056a8
0x800056b8: 00 c7 a0 23 sw	a2, 0(a5)
0x800056bc: 00 47 87 93 addi	a5, a5, 4
0x800056c0: fe d7 98 e3 bne	a5, a3, 0x800056b0
0x800056b0: 00 07 a7 03 lw	a4, 0(a5)
0x800056b4: fe 07 1a e3 bne	a4, zero, 0x800056a8
0x800056b8: 00 c7 a0 23 sw	a2, 0(a5)
0x800056bc: 00 47 87 93 addi	a5, a5, 4
0x800056c0: fe d7 98 e3 bne	a5, a3, 0x800056b0
0x800056b0: 00 07 a7 03 lw	a4, 0(a5)
0x800056b4: fe 07 1a e3 bne	a4, zero, 0x800056a8
0x800056b8: 00 c7 a0 23 sw	a2, 0(a5)
0x800056bc: 00 47 87 93 addi	a5, a5, 4
0x800056c0: fe d7 98 e3 bne	a5, a3, 0x800056b0
0x800056b0: 00 07 a7 03 lw	a4, 0(a5)
0x800056b4: fe 07 1a e3 bne	a4, zero, 0x800056a8
0x800056b8: 00 c7 a0 23 sw	a2, 0(a5)
0x800056bc: 00 47 87 93 addi	a5, a5, 4
0x800056c0: fe d7 98 e3 bne	a5, a3, 0x800056b0
0x800056b0: 00 07 a7 03 lw	a4, 0(a5)
0x800056b4: fe 07 1a e3 bne	a4, zero, 0x800056a8
0x800056b8: 00 c7 a0 23 sw	a2, 0(a5)
0x800056bc: 00 47 87 93 addi	a5, a5, 4
0x800056c0: fe d7 98 e3 bne	a5, a3, 0x800056b0
0x800056b0: 00 07 a7 03 lw	a4, 0(a5)
0x800056b4: fe 07 1a e3 bne	a4, zero, 0x800056a8
0x800056b8: 00 c7 a0 23 sw	a2, 0(a5)
0x800056bc: 00 47 87 93 addi	a5, a5, 4
0x800056c0: fe d7 98 e3 bne	a5, a3, 0x800056b0
0x800056b0: 00 07 a7 03 lw	a4, 0(a5)
0x800056b4: fe 07 1a e3 bne	a4, zero, 0x800056a8
0x800056b8: 00 c7 a0 23 sw	a2, 0(a5)
0x800056bc: 00 47 87 93 addi	a5, a5, 4
0x800056c0: fe d7 98 e3 bne	a5, a3, 0x800056b0
0x800056b0: 00 07 a7 03 lw	a4, 0(a5)
0x800056b4: fe 07 1a e3 bne	a4, zero, 0x800056a8
0x800056b8: 00 c7 a0 23 sw	a2, 0(a5)
0x800056bc: 00 47 87 93 addi	a5, a5, 4
0x800056c0: fe d7 98 e3 bne	a5, a3, 0x800056b0
0x800056b0: 00 07 a7 03 lw	a4, 0(a5)
0x800056b4: fe 07 1a e3 bne	a4, zero, 0x800056a8
0x800056b8: 00 c7 a0 23 sw	a2, 0(a5)
0x800056bc: 00 47 87 93 addi	a5, a5, 4
0x800056c0: fe d7 98 e3 bne	a5, a3, 0x800056b0
0x800056b0: 00 07 a7 03 lw	a4, 0(a5)
0x800056b4: fe 07 1a e3 bne	a4, zero, 0x800056a8
0x800056b8: 00 c7 a0 23 sw	a2, 0(a5)
0x800056bc: 00 47 87 93 addi	a5, a5, 4
0x800056c0: fe d7 98 e3 bne	a5, a3, 0x800056b0
0x800056b0: 00 07 a7 03 lw	a4, 0(a5)
0x800056b4: fe 07 1a e3 bne	a4, zero, 0x800056a8
0x800056b8: 00 c7 a0 23 sw	a2, 0(a5)
0x800056bc: 00 47 87 93 addi	a5, a5, 4
0x800056c0: fe d7 98 e3 bne	a5, a3, 0x800056b0
0x800056b0: 00 07 a7 03 lw	a4, 0(a5)
0x800056b4: fe 07 1a e3 bne	a4, zero, 0x800056a8
0x800056b8: 00 c7 a0 23 sw	a2, 0(a5)
0x800056bc: 00 47 87 93 addi	a5, a5, 4
0x800056c0: fe d7 98 e3 bne	a5, a3, 0x800056b0
0x800056b0: 00 07 a7 03 lw	a4, 0(a5)
0x800056b4: fe 07 1a e3 bne	a4, zero, 0x800056a8
0x800056b8: 00 c7 a0 23 sw	a2, 0(a5)
0x800056bc: 00 47 87 93 addi	a5, a5, 4
0x800056c0: fe d7 98 e3 bne	a5, a3, 0x800056b0
0x800056b0: 00 07 a7 03 lw	a4, 0(a5)
0x800056b4: fe 07 1a e3 bne	a4, zero, 0x800056a8
0x800056b8: 00 c7 a0 23 sw	a2, 0(a5)
0x800056bc: 00 47 87 93 addi	a5, a5, 4
0x800056c0: fe d7 98 e3 bne	a5, a3, 0x800056b0
0x800056b0: 00 07 a7 03 lw	a4, 0(a5)
0x800056b4: fe 07 1a e3 bne	a4, zero, 0x800056a8
0x800056b8: 00 c7 a0 23 sw	a2, 0(a5)
0x800056bc: 00 47 87 93 addi	a5, a5, 4
0x800056c0: fe d7 98 e3 bne	a5, a3, 0x800056b0
0x800056b0: 00 07 a7 03 lw	a4, 0(a5)
0x800056b4: fe 07 1a e3 bne	a4, zero, 0x800056a8
0x800056b8: 00 c7 a0 23 sw	a2, 0(a5)
0x800056bc: 00 47 87 93 addi	a5, a5, 4
0x800056c0: fe d7 98 e3 bne	a5, a3, 0x800056b0
0x800056b0: 00 07 a7 03 lw	a4, 0(a5)
0x800056b4: fe 07 1a e3 bne	a4, zero, 0x800056a8
0x800056b8: 00 c7 a0 23 sw	a2, 0(a5)
0x800056bc: 00 47 87 93 addi	a5, a5, 4
0x800056c0: fe d7 98 e3 bne	a5, a3, 0x800056b0
0x800056b0: 00 07 a7 03 lw	a4, 0(a5)
0x800056b4: fe 07 1a e3 bne	a4, zero, 0x800056a8
0x800056b8: 00 c7 a0 23 sw	a2, 0(a5)
0x800056bc: 00 47 87 93 addi	a5, a5, 4
0x800056c0: fe d7 98 e3 bne	a5, a3, 0x800056b0
0x800056b0: 00 07 a7 03 lw	a4, 0(a5)
0x800056b4: fe 07 1a e3 bne	a4, zero, 0x800056a8
0x800056b8: 00 c7 a0 23 sw	a2, 0(a5)
0x800056bc: 00 47 87 93 addi	a5, a5, 4
0x800056c0: fe d7 98 e3 bne	a5, a3, 0x800056b0
0x800056b0: 00 07 a7 03 lw	a4, 0(a5)
0x800056b4: fe 07 1a e3 bne	a4, zero, 0x800056a8
0x800056b8: 00 c7 a0 23 sw	a2, 0(a5)
0x800056bc: 00 47 87 93 addi	a5, a5, 4
0x800056c0: fe d7 98 e3 bne	a5, a3, 0x800056b0
0x800056b0: 00 07 a7 03 lw	a4, 0(a5)
0x800056b4: fe 07 1a e3 bne	a4, zero, 0x800056a8
0x800056b8: 00 c7 a0 23 sw	a2, 0(a5)
0x800056bc: 00 47 87 93 addi	a5, a5, 4
0x800056c0: fe d7 98 e3 bne	a5, a3, 0x800056b0
0x800056b0: 00 07 a7 03 lw	a4, 0(a5)
0x800056b4: fe 07 1a e3 bne	a4, zero, 0x800056a8
0x800056b8: 00 c7 a0 23 sw	a2, 0(a5)
0x800056bc: 00 47 87 93 addi	a5, a5, 4
0x800056c0: fe d7 98 e3 bne	a5, a3, 0x800056b0
0x800056b0: 00 07 a7 03 lw	a4, 0(a5)
0x800056b4: fe 07 1a e3 bne	a4, zero, 0x800056a8
0x800056b8: 00 c7 a0 23 sw	a2, 0(a5)
0x800056bc: 00 47 87 93 addi	a5, a5, 4
0x800056c0: fe d7 98 e3 bne	a5, a3, 0x800056b0
0x800056b0: 00 07 a7 03 lw	a4, 0(a5)
0x800056b4: fe 07 1a e3 bne	a4, zero, 0x800056a8
0x800056b8: 00 c7 a0 23 sw	a2, 0(a5)
0x800056bc: 00 47 87 93 addi	a5, a5, 4
0x800056c0: fe d7 98 e3 bne	a5, a3, 0x800056b0
0x800056b0: 00 07 a7 03 lw	a4, 0(a5)
0x800056b4: fe 07 1a e3 bne	a4, zero, 0x800056a8
0x800056b8: 00 c7 a0 23 sw	a2, 0(a5)
0x800056bc: 00 47 87 93 addi	a5, a5, 4
0x800056c0: fe d7 98 e3 bne	a5, a3, 0x800056b0
0x800056b0: 00 07 a7 03 lw	a4, 0(a5)
0x800056b4: fe 07 1a e3 bne	a4, zero, 0x800056a8
0x800056b8: 00 c7 a0 23 sw	a2, 0(a5)
0x800056bc: 00 47 87 93 addi	a5, a5, 4
0x800056c0: fe d7 98 e3 bne	a5, a3, 0x800056b0
0x800056b0: 00 07 a7 03 lw	a4, 0(a5)
0x800056b4: fe 07 1a e3 bne	a4, zero, 0x800056a8
0x800056b8: 00 c7 a0 23 sw	a2, 0(a5)
0x800056bc: 00 47 87 93 addi	a5, a5, 4
0x800056c0: fe d7 98 e3 bne	a5, a3, 0x800056b0
0x800056b0: 00 07 a7 03 lw	a4, 0(a5)
0x800056b4: fe 07 1a e3 bne	a4, zero, 0x800056a8
0x800056b8: 00 c7 a0 23 sw	a2, 0(a5)
0x800056bc: 00 47 87 93 addi	a5, a5, 4
0x800056c0: fe d7 98 e3 bne	a5, a3, 0x800056b0
0x800056b0: 00 07 a7 03 lw	a4, 0(a5)
0x800056b4: fe 07 1a e3 bne	a4, zero, 0x800056a8
0x800056b8: 00 c7 a0 23 sw	a2, 0(a5)
0x800056bc: 00 47 87 93 addi	a5, a5, 4
0x800056c0: fe d7 98 e3 bne	a5, a3, 0x800056b0
0x800056b0: 00 07 a7 03 lw	a4, 0(a5)
0x800056b4: fe 07 1a e3 bne	a4, zero, 0x800056a8
0x800056b8: 00 c7 a0 23 sw	a2, 0(a5)
0x800056bc: 00 47 87 93 addi	a5, a5, 4
0x800056c0: fe d7 98 e3 bne	a5, a3, 0x800056b0
0x800056b0: 00 07 a7 03 lw	a4, 0(a5)
0x800056b4: fe 07 1a e3 bne	a4, zero, 0x800056a8
0x800056b8: 00 c7 a0 23 sw	a2, 0(a5)
0x800056bc: 00 47 87 93 addi	a5, a5, 4
0x800056c0: fe d7 98 e3 bne	a5, a3, 0x800056b0
0x800056b0: 00 07 a7 03 lw	a4, 0(a5)
0x800056b4: fe 07 1a e3 bne	a4, zero, 0x800056a8
0x800056b8: 00 c7 a0 23 sw	a2, 0(a5)
0x800056bc: 00 47 87 93 addi	a5, a5, 4
0x800056c0: fe d7 98 e3 bne	a5, a3, 0x800056b0
0x800056b0: 00 07 a7 03 lw	a4, 0(a5)
0x800056b4: fe 07 1a e3 bne	a4, zero, 0x800056a8
0x800056b8: 00 c7 a0 23 sw	a2, 0(a5)
0x800056bc: 00 47 87 93 addi	a5, a5, 4
0x800056c0: fe d7 98 e3 bne	a5, a3, 0x800056b0
0x800056b0: 00 07 a7 03 lw	a4, 0(a5)
0x800056b4: fe 07 1a e3 bne	a4, zero, 0x800056a8
0x800056b8: 00 c7 a0 23 sw	a2, 0(a5)
0x800056bc: 00 47 87 93 addi	a5, a5, 4
0x800056c0: fe d7 98 e3 bne	a5, a3, 0x800056b0
0x800056b0: 00 07 a7 03 lw	a4, 0(a5)
0x800056b4: fe 07 1a e3 bne	a4, zero, 0x800056a8
0x800056b8: 00 c7 a0 23 sw	a2, 0(a5)
0x800056bc: 00 47 87 93 addi	a5, a5, 4
0x800056c0: fe d7 98 e3 bne	a5, a3, 0x800056b0
0x800056b0: 00 07 a7 03 lw	a4, 0(a5)
0x800056b4: fe 07 1a e3 bne	a4, zero, 0x800056a8
0x800056b8: 00 c7 a0 23 sw	a2, 0(a5)
0x800056bc: 00 47 87 93 addi	a5, a5, 4
0x800056c0: fe d7 98 e3 bne	a5, a3, 0x800056b0
0x800056b0: 00 07 a7 03 lw	a4, 0(a5)
0x800056b4: fe 07 1a e3 bne	a4, zero, 0x800056a8
0x800056b8: 00 c7 a0 23 sw	a2, 0(a5)
0x800056bc: 00 47 87 93 addi	a5, a5, 4
0x800056c0: fe d7 98 e3 bne	a5, a3, 0x800056b0
0x800056b0: 00 07 a7 03 lw	a4, 0(a5)
0x800056b4: fe 07 1a e3 bne	a4, zero, 0x800056a8
0x800056b8: 00 c7 a0 23 sw	a2, 0(a5)
0x800056bc: 00 47 87 93 addi	a5, a5, 4
0x800056c0: fe d7 98 e3 bne	a5, a3, 0x800056b0
0x800056b0: 00 07 a7 03 lw	a4, 0(a5)
0x800056b4: fe 07 1a e3 bne	a4, zero, 0x800056a8
0x800056b8: 00 c7 a0 23 sw	a2, 0(a5)
0x800056bc: 00 47 87 93 addi	a5, a5, 4
0x800056c0: fe d7 98 e3 bne	a5, a3, 0x800056b0
0x800056b0: 00 07 a7 03 lw	a4, 0(a5)
0x800056b4: fe 07 1a e3 bne	a4, zero, 0x800056a8
0x800056b8: 00 c7 a0 23 sw	a2, 0(a5)
0x800056bc: 00 47 87 93 addi	a5, a5, 4
0x800056c0: fe d7 98 e3 bne	a5, a3, 0x800056b0
0x800056b0: 00 07 a7 03 lw	a4, 0(a5)
0x800056b4: fe 07 1a e3 bne	a4, zero, 0x800056a8
0x800056b8: 00 c7 a0 23 sw	a2, 0(a5)
0x800056bc: 00 47 87 93 addi	a5, a5, 4
0x800056c0: fe d7 98 e3 bne	a5, a3, 0x800056b0
0x800056b0: 00 07 a7 03 lw	a4, 0(a5)
0x800056b4: fe 07 1a e3 bne	a4, zero, 0x800056a8
0x800056b8: 00 c7 a0 23 sw	a2, 0(a5)
0x800056bc: 00 47 87 93 addi	a5, a5, 4
0x800056c0: fe d7 98 e3 bne	a5, a3, 0x800056b0
0x800056b0: 00 07 a7 03 lw	a4, 0(a5)
0x800056b4: fe 07 1a e3 bne	a4, zero, 0x800056a8
0x800056b8: 00 c7 a0 23 sw	a2, 0(a5)
0x800056bc: 00 47 87 93 addi	a5, a5, 4
0x800056c0: fe d7 98 e3 bne	a5, a3, 0x800056b0
0x800056b0: 00 07 a7 03 lw	a4, 0(a5)
0x800056b4: fe 07 1a e3 bne	a4, zero, 0x800056a8
0x800056b8: 00 c7 a0 23 sw	a2, 0(a5)
0x800056bc: 00 47 87 93 addi	a5, a5, 4
0x800056c0: fe d7 98 e3 bne	a5, a3, 0x800056b0
0x800056b0: 00 07 a7 03 lw	a4, 0(a5)
0x800056b4: fe 07 1a e3 bne	a4, zero, 0x800056a8
0x800056b8: 00 c7 a0 23 sw	a2, 0(a5)
0x800056bc: 00 47 87 93 addi	a5, a5, 4
0x800056c0: fe d7 98 e3 bne	a5, a3, 0x800056b0
0x800056b0: 00 07 a7 03 lw	a4, 0(a5)
0x800056b4: fe 07 1a e3 bne	a4, zero, 0x800056a8
0x800056b8: 00 c7 a0 23 sw	a2, 0(a5)
0x800056bc: 00 47 87 93 addi	a5, a5, 4
0x800056c0: fe d7 98 e3 bne	a5, a3, 0x800056b0
0x800056b0: 00 07 a7 03 lw	a4, 0(a5)
0x800056b4: fe 07 1a e3 bne	a4, zero, 0x800056a8
0x800056b8: 00 c7 a0 23 sw	a2, 0(a5)
0x800056bc: 00 47 87 93 addi	a5, a5, 4
0x800056c0: fe d7 98 e3 bne	a5, a3, 0x800056b0
0x800056b0: 00 07 a7 03 lw	a4, 0(a5)
0x800056b4: fe 07 1a e3 bne	a4, zero, 0x800056a8
0x800056b8: 00 c7 a0 23 sw	a2, 0(a5)
0x800056bc: 00 47 87 93 addi	a5, a5, 4
0x800056c0: fe d7 98 e3 bne	a5, a3, 0x800056b0
0x800056b0: 00 07 a7 03 lw	a4, 0(a5)
0x800056b4: fe 07 1a e3 bne	a4, zero, 0x800056a8
0x800056b8: 00 c7 a0 23 sw	a2, 0(a5)
0x800056bc: 00 47 87 93 addi	a5, a5, 4
0x800056c0: fe d7 98 e3 bne	a5, a3, 0x800056b0
0x800056b0: 00 07 a7 03 lw	a4, 0(a5)
0x800056b4: fe 07 1a e3 bne	a4, zero, 0x800056a8
0x800056b8: 00 c7 a0 23 sw	a2, 0(a5)
0x800056bc: 00 47 87 93 addi	a5, a5, 4
0x800056c0: fe d7 98 e3 bne	a5, a3, 0x800056b0
0x800056b0: 00 07 a7 03 lw	a4, 0(a5)
0x800056b4: fe 07 1a e3 bne	a4, zero, 0x800056a8
0x800056b8: 00 c7 a0 23 sw	a2, 0(a5)
0x800056bc: 00 47 87 93 addi	a5, a5, 4
0x800056c0: fe d7 98 e3 bne	a5, a3, 0x800056b0
0x800056b0: 00 07 a7 03 lw	a4, 0(a5)
0x800056b4: fe 07 1a e3 bne	a4, zero, 0x800056a8
0x800056b8: 00 c7 a0 23 sw	a2, 0(a5)
0x800056bc: 00 47 87 93 addi	a5, a5, 4
0x800056c0: fe d7 98 e3 bne	a5, a3, 0x800056b0
0x800056b0: 00 07 a7 03 lw	a4, 0(a5)
0x800056b4: fe 07 1a e3 bne	a4, zero, 0x800056a8
0x800056b8: 00 c7 a0 23 sw	a2, 0(a5)
0x800056bc: 00 47 87 93 addi	a5, a5, 4
0x800056c0: fe d7 98 e3 bne	a5, a3, 0x800056b0
0x800056b0: 00 07 a7 03 lw	a4, 0(a5)
0x800056b4: fe 07 1a e3 bne	a4, zero, 0x800056a8
0x800056b8: 00 c7 a0 23 sw	a2, 0(a5)
0x800056bc: 00 47 87 93 addi	a5, a5, 4
0x800056c0: fe d7 98 e3 bne	a5, a3, 0x800056b0
0x800056b0: 00 07 a7 03 lw	a4, 0(a5)
0x800056b4: fe 07 1a e3 bne	a4, zero, 0x800056a8
0x800056b8: 00 c7 a0 23 sw	a2, 0(a5)
0x800056bc: 00 47 87 93 addi	a5, a5, 4
0x800056c0: fe d7 98 e3 bne	a5, a3, 0x800056b0
0x800056b0: 00 07 a7 03 lw	a4, 0(a5)
0x800056b4: fe 07 1a e3 bne	a4, zero, 0x800056a8
0x800056b8: 00 c7 a0 23 sw	a2, 0(a5)
0x800056bc: 00 47 87 93 addi	a5, a5, 4
0x800056c0: fe d7 98 e3 bne	a5, a3, 0x800056b0
0x800056b0: 00 07 a7 03 lw	a4, 0(a5)
0x800056b4: fe 07 1a e3 bne	a4, zero, 0x800056a8
0x800056b8: 00 c7 a0 23 sw	a2, 0(a5)
0x800056bc: 00 47 87 93 addi	a5, a5, 4
0x800056c0: fe d7 98 e3 bne	a5, a3, 0x800056b0
0x800056b0: 00 07 a7 03 lw	a4, 0(a5)
0x800056b4: fe 07 1a e3 bne	a4, zero, 0x800056a8
0x800056b8: 00 c7 a0 23 sw	a2, 0(a5)
0x800056bc: 00 47 87 93 addi	a5, a5, 4
0x800056c0: fe d7 98 e3 bne	a5, a3, 0x800056b0
0x800056b0: 00 07 a7 03 lw	a4, 0(a5)
0x800056b4: fe 07 1a e3 bne	a4, zero, 0x800056a8
0x800056b8: 00 c7 a0 23 sw	a2, 0(a5)
0x800056bc: 00 47 87 93 addi	a5, a5, 4
0x800056c0: fe d7 98 e3 bne	a5, a3, 0x800056b0
0x800056b0: 00 07 a7 03 lw	a4, 0(a5)
0x800056b4: fe 07 1a e3 bne	a4, zero, 0x800056a8
0x800056b8: 00 c7 a0 23 sw	a2, 0(a5)
0x800056bc: 00 47 87 93 addi	a5, a5, 4
0x800056c0: fe d7 98 e3 bne	a5, a3, 0x800056b0
0x800056b0: 00 07 a7 03 lw	a4, 0(a5)
0x800056b4: fe 07 1a e3 bne	a4, zero, 0x800056a8
0x800056b8: 00 c7 a0 23 sw	a2, 0(a5)
0x800056bc: 00 47 87 93 addi	a5, a5, 4
0x800056c0: fe d7 98 e3 bne	a5, a3, 0x800056b0
0x800056b0: 00 07 a7 03 lw	a4, 0(a5)
0x800056b4: fe 07 1a e3 bne	a4, zero, 0x800056a8
0x800056b8: 00 c7 a0 23 sw	a2, 0(a5)
0x800056bc: 00 47 87 93 addi	a5, a5, 4
0x800056c0: fe d7 98 e3 bne	a5, a3, 0x800056b0
0x800056b0: 00 07 a7 03 lw	a4, 0(a5)
0x800056b4: fe 07 1a e3 bne	a4, zero, 0x800056a8
0x800056b8: 00 c7 a0 23 sw	a2, 0(a5)
0x800056bc: 00 47 87 93 addi	a5, a5, 4
0x800056c0: fe d7 98 e3 bne	a5, a3, 0x800056b0
0x800056b0: 00 07 a7 03 lw	a4, 0(a5)
0x800056b4: fe 07 1a e3 bne	a4, zero, 0x800056a8
0x800056b8: 00 c7 a0 23 sw	a2, 0(a5)
0x800056bc: 00 47 87 93 addi	a5, a5, 4
0x800056c0: fe d7 98 e3 bne	a5, a3, 0x800056b0
0x800056b0: 00 07 a7 03 lw	a4, 0(a5)
0x800056b4: fe 07 1a e3 bne	a4, zero, 0x800056a8
0x800056b8: 00 c7 a0 23 sw	a2, 0(a5)
0x800056bc: 00 47 87 93 addi	a5, a5, 4
0x800056c0: fe d7 98 e3 bne	a5, a3, 0x800056b0
0x800056b0: 00 07 a7 03 lw	a4, 0(a5)
0x800056b4: fe 07 1a e3 bne	a4, zero, 0x800056a8
0x800056b8: 00 c7 a0 23 sw	a2, 0(a5)
0x800056bc: 00 47 87 93 addi	a5, a5, 4
0x800056c0: fe d7 98 e3 bne	a5, a3, 0x800056b0
0x800056b0: 00 07 a7 03 lw	a4, 0(a5)
0x800056b4: fe 07 1a e3 bne	a4, zero, 0x800056a8
0x800056b8: 00 c7 a0 23 sw	a2, 0(a5)
0x800056bc: 00 47 87 93 addi	a5, a5, 4
0x800056c0: fe d7 98 e3 bne	a5, a3, 0x800056b0
0x800056b0: 00 07 a7 03 lw	a4, 0(a5)
0x800056b4: fe 07 1a e3 bne	a4, zero, 0x800056a8
0x800056b8: 00 c7 a0 23 sw	a2, 0(a5)
0x800056bc: 00 47 87 93 addi	a5, a5, 4
0x800056c0: fe d7 98 e3 bne	a5, a3, 0x800056b0
0x800056b0: 00 07 a7 03 lw	a4, 0(a5)
0x800056b4: fe 07 1a e3 bne	a4, zero, 0x800056a8
0x800056b8: 00 c7 a0 23 sw	a2, 0(a5)
0x800056bc: 00 47 87 93 addi	a5, a5, 4
0x800056c0: fe d7 98 e3 bne	a5, a3, 0x800056b0
0x800056b0: 00 07 a7 03 lw	a4, 0(a5)
0x800056b4: fe 07 1a e3 bne	a4, zero, 0x800056a8
0x800056b8: 00 c7 a0 23 sw	a2, 0(a5)
0x800056bc: 00 47 87 93 addi	a5, a5, 4
0x800056c0: fe d7 98 e3 bne	a5, a3, 0x800056b0
0x800056b0: 00 07 a7 03 lw	a4, 0(a5)
0x800056b4: fe 07 1a e3 bne	a4, zero, 0x800056a8
0x800056b8: 00 c7 a0 23 sw	a2, 0(a5)
0x800056bc: 00 47 87 93 addi	a5, a5, 4
0x800056c0: fe d7 98 e3 bne	a5, a3, 0x800056b0
0x800056b0: 00 07 a7 03 lw	a4, 0(a5)
0x800056b4: fe 07 1a e3 bne	a4, zero, 0x800056a8
0x800056b8: 00 c7 a0 23 sw	a2, 0(a5)
0x800056bc: 00 47 87 93 addi	a5, a5, 4
0x800056c0: fe d7 98 e3 bne	a5, a3, 0x800056b0
0x800056b0: 00 07 a7 03 lw	a4, 0(a5)
0x800056b4: fe 07 1a e3 bne	a4, zero, 0x800056a8
0x800056b8: 00 c7 a0 23 sw	a2, 0(a5)
0x800056bc: 00 47 87 93 addi	a5, a5, 4
0x800056c0: fe d7 98 e3 bne	a5, a3, 0x800056b0
0x800056b0: 00 07 a7 03 lw	a4, 0(a5)
0x800056b4: fe 07 1a e3 bne	a4, zero, 0x800056a8
0x800056b8: 00 c7 a0 23 sw	a2, 0(a5)
0x800056bc: 00 47 87 93 addi	a5, a5, 4
0x800056c0: fe d7 98 e3 bne	a5, a3, 0x800056b0
0x800056b0: 00 07 a7 03 lw	a4, 0(a5)
0x800056b4: fe 07 1a e3 bne	a4, zero, 0x800056a8
0x800056b8: 00 c7 a0 23 sw	a2, 0(a5)
0x800056bc: 00 47 87 93 addi	a5, a5, 4
0x800056c0: fe d7 98 e3 bne	a5, a3, 0x800056b0
0x800056b0: 00 07 a7 03 lw	a4, 0(a5)
0x800056b4: fe 07 1a e3 bne	a4, zero, 0x800056a8
0x800056b8: 00 c7 a0 23 sw	a2, 0(a5)
0x800056bc: 00 47 87 93 addi	a5, a5, 4
0x800056c0: fe d7 98 e3 bne	a5, a3, 0x800056b0
0x800056b0: 00 07 a7 03 lw	a4, 0(a5)
0x800056b4: fe 07 1a e3 bne	a4, zero, 0x800056a8
0x800056b8: 00 c7 a0 23 sw	a2, 0(a5)
0x800056bc: 00 47 87 93 addi	a5, a5, 4
0x800056c0: fe d7 98 e3 bne	a5, a3, 0x800056b0
0x800056b0: 00 07 a7 03 lw	a4, 0(a5)
0x800056b4: fe 07 1a e3 bne	a4, zero, 0x800056a8
0x800056b8: 00 c7 a0 23 sw	a2, 0(a5)
0x800056bc: 00 47 87 93 addi	a5, a5, 4
0x800056c0: fe d7 98 e3 bne	a5, a3, 0x800056b0
0x800056b0: 00 07 a7 03 lw	a4, 0(a5)
0x800056b4: fe 07 1a e3 bne	a4, zero, 0x800056a8
0x800056b8: 00 c7 a0 23 sw	a2, 0(a5)
0x800056bc: 00 47 87 93 addi	a5, a5, 4
0x800056c0: fe d7 98 e3 bne	a5, a3, 0x800056b0
0x800056b0: 00 07 a7 03 lw	a4, 0(a5)
0x800056b4: fe 07 1a e3 bne	a4, zero, 0x800056a8
0x800056b8: 00 c7 a0 23 sw	a2, 0(a5)
0x800056bc: 00 47 87 93 addi	a5, a5, 4
0x800056c0: fe d7 98 e3 bne	a5, a3, 0x800056b0
0x800056b0: 00 07 a7 03 lw	a4, 0(a5)
0x800056b4: fe 07 1a e3 bne	a4, zero, 0x800056a8
0x800056b8: 00 c7 a0 23 sw	a2, 0(a5)
0x800056bc: 00 47 87 93 addi	a5, a5, 4
0x800056c0: fe d7 98 e3 bne	a5, a3, 0x800056b0
0x800056b0: 00 07 a7 03 lw	a4, 0(a5)
0x800056b4: fe 07 1a e3 bne	a4, zero, 0x800056a8
0x800056b8: 00 c7 a0 23 sw	a2, 0(a5)
0x800056bc: 00 47 87 93 addi	a5, a5, 4
0x800056c0: fe d7 98 e3 bne	a5, a3, 0x800056b0
0x800056b0: 00 07 a7 03 lw	a4, 0(a5)
0x800056b4: fe 07 1a e3 bne	a4, zero, 0x800056a8
0x800056b8: 00 c7 a0 23 sw	a2, 0(a5)
0x800056bc: 00 47 87 93 addi	a5, a5, 4
0x800056c0: fe d7 98 e3 bne	a5, a3, 0x800056b0
0x800056b0: 00 07 a7 03 lw	a4, 0(a5)
0x800056b4: fe 07 1a e3 bne	a4, zero, 0x800056a8
0x800056b8: 00 c7 a0 23 sw	a2, 0(a5)
0x800056bc: 00 47 87 93 addi	a5, a5, 4
0x800056c0: fe d7 98 e3 bne	a5, a3, 0x800056b0
0x800056b0: 00 07 a7 03 lw	a4, 0(a5)
0x800056b4: fe 07 1a e3 bne	a4, zero, 0x800056a8
0x800056b8: 00 c7 a0 23 sw	a2, 0(a5)
0x800056bc: 00 47 87 93 addi	a5, a5, 4
0x800056c0: fe d7 98 e3 bne	a5, a3, 0x800056b0
0x800056b0: 00 07 a7 03 lw	a4, 0(a5)
0x800056b4: fe 07 1a e3 bne	a4, zero, 0x800056a8
0x800056b8: 00 c7 a0 23 sw	a2, 0(a5)
0x800056bc: 00 47 87 93 addi	a5, a5, 4
0x800056c0: fe d7 98 e3 bne	a5, a3, 0x800056b0
0x800056b0: 00 07 a7 03 lw	a4, 0(a5)
0x800056b4: fe 07 1a e3 bne	a4, zero, 0x800056a8
0x800056b8: 00 c7 a0 23 sw	a2, 0(a5)
0x800056bc: 00 47 87 93 addi	a5, a5, 4
0x800056c0: fe d7 98 e3 bne	a5, a3, 0x800056b0
0x800056b0: 00 07 a7 03 lw	a4, 0(a5)
0x800056b4: fe 07 1a e3 bne	a4, zero, 0x800056a8
0x800056b8: 00 c7 a0 23 sw	a2, 0(a5)
0x800056bc: 00 47 87 93 addi	a5, a5, 4
0x800056c0: fe d7 98 e3 bne	a5, a3, 0x800056b0
0x800056b0: 00 07 a7 03 lw	a4, 0(a5)
0x800056b4: fe 07 1a e3 bne	a4, zero, 0x800056a8
0x800056b8: 00 c7 a0 23 sw	a2, 0(a5)
0x800056bc: 00 47 87 93 addi	a5, a5, 4
0x800056c0: fe d7 98 e3 bne	a5, a3, 0x800056b0
0x800056b0: 00 07 a7 03 lw	a4, 0(a5)
0x800056b4: fe 07 1a e3 bne	a4, zero, 0x800056a8
0x800056b8: 00 c7 a0 23 sw	a2, 0(a5)
0x800056bc: 00 47 87 93 addi	a5, a5, 4
0x800056c0: fe d7 98 e3 bne	a5, a3, 0x800056b0
0x800056b0: 00 07 a7 03 lw	a4, 0(a5)
0x800056b4: fe 07 1a e3 bne	a4, zero, 0x800056a8
0x800056b8: 00 c7 a0 23 sw	a2, 0(a5)
0x800056bc: 00 47 87 93 addi	a5, a5, 4
0x800056c0: fe d7 98 e3 bne	a5, a3, 0x800056b0
0x800056b0: 00 07 a7 03 lw	a4, 0(a5)
0x800056b4: fe 07 1a e3 bne	a4, zero, 0x800056a8
0x800056b8: 00 c7 a0 23 sw	a2, 0(a5)
0x800056bc: 00 47 87 93 addi	a5, a5, 4
0x800056c0: fe d7 98 e3 bne	a5, a3, 0x800056b0
0x800056b0: 00 07 a7 03 lw	a4, 0(a5)
0x800056b4: fe 07 1a e3 bne	a4, zero, 0x800056a8
0x800056b8: 00 c7 a0 23 sw	a2, 0(a5)
0x800056bc: 00 47 87 93 addi	a5, a5, 4
0x800056c0: fe d7 98 e3 bne	a5, a3, 0x800056b0
0x800056b0: 00 07 a7 03 lw	a4, 0(a5)
0x800056b4: fe 07 1a e3 bne	a4, zero, 0x800056a8
0x800056b8: 00 c7 a0 23 sw	a2, 0(a5)
0x800056bc: 00 47 87 93 addi	a5, a5, 4
0x800056c0: fe d7 98 e3 bne	a5, a3, 0x800056b0
0x800056b0: 00 07 a7 03 lw	a4, 0(a5)
0x800056b4: fe 07 1a e3 bne	a4, zero, 0x800056a8
0x800056b8: 00 c7 a0 23 sw	a2, 0(a5)
0x800056bc: 00 47 87 93 addi	a5, a5, 4
0x800056c0: fe d7 98 e3 bne	a5, a3, 0x800056b0
0x800056b0: 00 07 a7 03 lw	a4, 0(a5)
0x800056b4: fe 07 1a e3 bne	a4, zero, 0x800056a8
0x800056b8: 00 c7 a0 23 sw	a2, 0(a5)
0x800056bc: 00 47 87 93 addi	a5, a5, 4
0x800056c0: fe d7 98 e3 bne	a5, a3, 0x800056b0
0x800056b0: 00 07 a7 03 lw	a4, 0(a5)
0x800056b4: fe 07 1a e3 bne	a4, zero, 0x800056a8
0x800056b8: 00 c7 a0 23 sw	a2, 0(a5)
0x800056bc: 00 47 87 93 addi	a5, a5, 4
0x800056c0: fe d7 98 e3 bne	a5, a3, 0x800056b0
0x800056b0: 00 07 a7 03 lw	a4, 0(a5)
0x800056b4: fe 07 1a e3 bne	a4, zero, 0x800056a8
0x800056b8: 00 c7 a0 23 sw	a2, 0(a5)
0x800056bc: 00 47 87 93 addi	a5, a5, 4
0x800056c0: fe d7 98 e3 bne	a5, a3, 0x800056b0
0x800056b0: 00 07 a7 03 lw	a4, 0(a5)
0x800056b4: fe 07 1a e3 bne	a4, zero, 0x800056a8
0x800056b8: 00 c7 a0 23 sw	a2, 0(a5)
0x800056bc: 00 47 87 93 addi	a5, a5, 4
0x800056c0: fe d7 98 e3 bne	a5, a3, 0x800056b0
0x800056b0: 00 07 a7 03 lw	a4, 0(a5)
0x800056b4: fe 07 1a e3 bne	a4, zero, 0x800056a8
0x800056b8: 00 c7 a0 23 sw	a2, 0(a5)
0x800056bc: 00 47 87 93 addi	a5, a5, 4
0x800056c0: fe d7 98 e3 bne	a5, a3, 0x800056b0
0x800056b0: 00 07 a7 03 lw	a4, 0(a5)
0x800056b4: fe 07 1a e3 bne	a4, zero, 0x800056a8
0x800056b8: 00 c7 a0 23 sw	a2, 0(a5)
0x800056bc: 00 47 87 93 addi	a5, a5, 4
0x800056c0: fe d7 98 e3 bne	a5, a3, 0x800056b0
0x800056b0: 00 07 a7 03 lw	a4, 0(a5)
0x800056b4: fe 07 1a e3 bne	a4, zero, 0x800056a8
0x800056b8: 00 c7 a0 23 sw	a2, 0(a5)
0x800056bc: 00 47 87 93 addi	a5, a5, 4
0x800056c0: fe d7 98 e3 bne	a5, a3, 0x800056b0
0x800056b0: 00 07 a7 03 lw	a4, 0(a5)
0x800056b4: fe 07 1a e3 bne	a4, zero, 0x800056a8
0x800056b8: 00 c7 a0 23 sw	a2, 0(a5)
0x800056bc: 00 47 87 93 addi	a5, a5, 4
0x800056c0: fe d7 98 e3 bne	a5, a3, 0x800056b0
0x800056c4: 03 00 00 ef jal	ra, 0x800056f4
0x800056f4: 00 00 80 67 jalr	zero, 0(ra)
0x800056c8: 00 81 20 83 lw	ra, 8(sp)
0x800056cc: 00 10 05 13 addi	a0, zero, 1
0x800056d0: 00 c1 01 13 addi	sp, sp, 12
0x800056d4: 00 00 80 67 jalr	zero, 0(ra)
0x80000f24: 00 04 05 93 addi	a1, s0, 0
0x80000f28: 00 00 65 17 auipc	a0, 6
0x80000f2c: 8c c5 05 13 addi	a0, a0, -1844
0x80000f30: 19 d0 40 ef jal	ra, 0x800058cc
0x800058cc: be 01 01 13 addi	sp, sp, -1056
0x800058d0: 40 f1 2e 23 sw	a5, 1052(sp)
0x800058d4: 40 11 24 23 sw	ra, 1032(sp)
0x800058d8: 40 81 22 23 sw	s0, 1028(sp)
0x800058dc: 40 91 20 23 sw	s1, 1024(sp)
0x800058e0: 40 b1 26 23 sw	a1, 1036(sp)
0x800058e4: 40 c1 28 23 sw	a2, 1040(sp)
0x800058e8: 40 d1 2a 23 sw	a3, 1044(sp)
0x800058ec: 40 e1 2c 23 sw	a4, 1048(sp)
0x800058f0: 00 05 03 13 addi	t1, a0, 0
0x800058f4: 00 05 45 03 lbu	a0, 0(a0)
0x800058f8: 40 c1 07 93 addi	a5, sp, 1036
0x800058fc: 00 f1 2a 23 sw	a5, 20(sp)
0x80005900: 00 01 20 23 sw	zero, 0(sp)
0x80005904: 02 05 18 63 bne	a0, zero, 0x80005934
0x80005934: 02 50 07 93 addi	a5, zero, 37
0x80005938: fc f5 1a e3 bne	a0, a5, 0x8000590c
0x8000590c: 00 61 22 23 sw	t1, 4(sp)
0x80005910: cb 1f f0 ef jal	ra, 0x800055c0
0x800055c0: a0 00 07 b7 lui	a5, 655360
0x800055c4: 3e a7 8c 23 sb	a0, 1016(a5)
0x800055c8: 00 00 80 67 jalr	zero, 0(ra)
0x80005914: 00 01 27 83 lw	a5, 0(sp)
0x80005918: 00 41 23 03 lw	t1, 4(sp)
0x8000591c: 00 17 87 93 addi	a5, a5, 1
0x80005920: 00 f1 20 23 sw	a5, 0(sp)
0x80005924: 00 03 04 13 addi	s0, t1, 0
0x80005928: 00 14 45 03 lbu	a0, 1(s0)
0x8000592c: 00 14 03 13 addi	t1, s0, 1
0x80005930: 0a 05 00 63 beq	a0, zero, 0x800059d0
0x80005934: 02 50 07 93 addi	a5, zero, 37
0x80005938: fc f5 1a e3 bne	a0, a5, 0x8000590c
0x8000590c: 00 61 22 23 sw	t1, 4(sp)
0x80005910: cb 1f f0 ef jal	ra, 0x800055c0
0x800055c0: a0 00 07 b7 lui	a5, 655360
0x800055c4: 3e a7 8c 23 sb	a0, 1016(a5)
0x800055c8: 00 00 80 67 jalr	zero, 0(ra)
0x80005914: 00 01 27 83 lw	a5, 0(sp)
0x80005918: 00 41 23 03 lw	t1, 4(sp)
0x8000591c: 00 17 87 93 addi	a5, a5, 1
0x80005920: 00 f1 20 23 sw	a5, 0(sp)
0x80005924: 00 03 04 13 addi	s0, t1, 0
0x80005928: 00 14 45 03 lbu	a0, 1(s0)
0x8000592c: 00 14 03 13 addi	t1, s0, 1
0x80005930: 0a 05 00 63 beq	a0, zero, 0x800059d0
0x80005934: 02 50 07 93 addi	a5, zero, 37
0x80005938: fc f5 1a e3 bne	a0, a5, 0x8000590c
0x8000590c: 00 61 22 23 sw	t1, 4(sp)
0x80005910: cb 1f f0 ef jal	ra, 0x800055c0
0x800055c0: a0 00 07 b7 lui	a5, 655360
0x800055c4: 3e a7 8c 23 sb	a0, 1016(a5)
0x800055c8: 00 00 80 67 jalr	zero, 0(ra)
0x80005914: 00 01 27 83 lw	a5, 0(sp)
0x80005918: 00 41 23 03 lw	t1, 4(sp)
0x8000591c: 00 17 87 93 addi	a5, a5, 1
0x80005920: 00 f1 20 23 sw	a5, 0(sp)
0x80005924: 00 03 04 13 addi	s0, t1, 0
0x80005928: 00 14 45 03 lbu	a0, 1(s0)
0x8000592c: 00 14 03 13 addi	t1, s0, 1
0x80005930: 0a 05 00 63 beq	a0, zero, 0x800059d0
0x80005934: 02 50 07 93 addi	a5, zero, 37
0x80005938: fc f5 1a e3 bne	a0, a5, 0x8000590c
0x8000590c: 00 61 22 23 sw	t1, 4(sp)
0x80005910: cb 1f f0 ef jal	ra, 0x800055c0
0x800055c0: a0 00 07 b7 lui	a5, 655360
0x800055c4: 3e a7 8c 23 sb	a0, 1016(a5)
0x800055c8: 00 00 80 67 jalr	zero, 0(ra)
0x80005914: 00 01 27 83 lw	a5, 0(sp)
0x80005918: 00 41 23 03 lw	t1, 4(sp)
0x8000591c: 00 17 87 93 addi	a5, a5, 1
0x80005920: 00 f1 20 23 sw	a5, 0(sp)
0x80005924: 00 03 04 13 addi	s0, t1, 0
0x80005928: 00 14 45 03 lbu	a0, 1(s0)
0x8000592c: 00 14 03 13 addi	t1, s0, 1
0x80005930: 0a 05 00 63 beq	a0, zero, 0x800059d0
0x80005934: 02 50 07 93 addi	a5, zero, 37
0x80005938: fc f5 1a e3 bne	a0, a5, 0x8000590c
0x8000590c: 00 61 22 23 sw	t1, 4(sp)
0x80005910: cb 1f f0 ef jal	ra, 0x800055c0
0x800055c0: a0 00 07 b7 lui	a5, 655360
0x800055c4: 3e a7 8c 23 sb	a0, 1016(a5)
0x800055c8: 00 00 80 67 jalr	zero, 0(ra)
0x80005914: 00 01 27 83 lw	a5, 0(sp)
0x80005918: 00 41 23 03 lw	t1, 4(sp)
0x8000591c: 00 17 87 93 addi	a5, a5, 1
0x80005920: 00 f1 20 23 sw	a5, 0(sp)
0x80005924: 00 03 04 13 addi	s0, t1, 0
0x80005928: 00 14 45 03 lbu	a0, 1(s0)
0x8000592c: 00 14 03 13 addi	t1, s0, 1
0x80005930: 0a 05 00 63 beq	a0, zero, 0x800059d0
0x80005934: 02 50 07 93 addi	a5, zero, 37
0x80005938: fc f5 1a e3 bne	a0, a5, 0x8000590c
0x8000590c: 00 61 22 23 sw	t1, 4(sp)
0x80005910: cb 1f f0 ef jal	ra, 0x800055c0
0x800055c0: a0 00 07 b7 lui	a5, 655360
0x800055c4: 3e a7 8c 23 sb	a0, 1016(a5)
0x800055c8: 00 00 80 67 jalr	zero, 0(ra)
0x80005914: 00 01 27 83 lw	a5, 0(sp)
0x80005918: 00 41 23 03 lw	t1, 4(sp)
0x8000591c: 00 17 87 93 addi	a5, a5, 1
0x80005920: 00 f1 20 23 sw	a5, 0(sp)
0x80005924: 00 03 04 13 addi	s0, t1, 0
0x80005928: 00 14 45 03 lbu	a0, 1(s0)
0x8000592c: 00 14 03 13 addi	t1, s0, 1
0x80005930: 0a 05 00 63 beq	a0, zero, 0x800059d0
0x80005934: 02 50 07 93 addi	a5, zero, 37
0x80005938: fc f5 1a e3 bne	a0, a5, 0x8000590c
0x8000590c: 00 61 22 23 sw	t1, 4(sp)
0x80005910: cb 1f f0 ef jal	ra, 0x800055c0
0x800055c0: a0 00 07 b7 lui	a5, 655360
0x800055c4: 3e a7 8c 23 sb	a0, 1016(a5)
0x800055c8: 00 00 80 67 jalr	zero, 0(ra)
0x80005914: 00 01 27 83 lw	a5, 0(sp)
0x80005918: 00 41 23 03 lw	t1, 4(sp)
0x8000591c: 00 17 87 93 addi	a5, a5, 1
0x80005920: 00 f1 20 23 sw	a5, 0(sp)
0x80005924: 00 03 04 13 addi	s0, t1, 0
0x80005928: 00 14 45 03 lbu	a0, 1(s0)
0x8000592c: 00 14 03 13 addi	t1, s0, 1
0x80005930: 0a 05 00 63 beq	a0, zero, 0x800059d0
0x80005934: 02 50 07 93 addi	a5, zero, 37
0x80005938: fc f5 1a e3 bne	a0, a5, 0x8000590c
0x8000590c: 00 61 22 23 sw	t1, 4(sp)
0x80005910: cb 1f f0 ef jal	ra, 0x800055c0
0x800055c0: a0 00 07 b7 lui	a5, 655360
0x800055c4: 3e a7 8c 23 sb	a0, 1016(a5)
0x800055c8: 00 00 80 67 jalr	zero, 0(ra)
0x80005914: 00 01 27 83 lw	a5, 0(sp)
0x80005918: 00 41 23 03 lw	t1, 4(sp)
0x8000591c: 00 17 87 93 addi	a5, a5, 1
0x80005920: 00 f1 20 23 sw	a5, 0(sp)
0x80005924: 00 03 04 13 addi	s0, t1, 0
0x80005928: 00 14 45 03 lbu	a0, 1(s0)
0x8000592c: 00 14 03 13 addi	t1, s0, 1
0x80005930: 0a 05 00 63 beq	a0, zero, 0x800059d0
0x80005934: 02 50 07 93 addi	a5, zero, 37
0x80005938: fc f5 1a e3 bne	a0, a5, 0x8000590c
0x8000590c: 00 61 22 23 sw	t1, 4(sp)
0x80005910: cb 1f f0 ef jal	ra, 0x800055c0
0x800055c0: a0 00 07 b7 lui	a5, 655360
0x800055c4: 3e a7 8c 23 sb	a0, 1016(a5)
0x800055c8: 00 00 80 67 jalr	zero, 0(ra)
0x80005914: 00 01 27 83 lw	a5, 0(sp)
0x80005918: 00 41 23 03 lw	t1, 4(sp)
0x8000591c: 00 17 87 93 addi	a5, a5, 1
0x80005920: 00 f1 20 23 sw	a5, 0(sp)
0x80005924: 00 03 04 13 addi	s0, t1, 0
0x80005928: 00 14 45 03 lbu	a0, 1(s0)
0x8000592c: 00 14 03 13 addi	t1, s0, 1
0x80005930: 0a 05 00 63 beq	a0, zero, 0x800059d0
0x80005934: 02 50 07 93 addi	a5, zero, 37
0x80005938: fc f5 1a e3 bne	a0, a5, 0x8000590c
0x8000590c: 00 61 22 23 sw	t1, 4(sp)
0x80005910: cb 1f f0 ef jal	ra, 0x800055c0
0x800055c0: a0 00 07 b7 lui	a5, 655360
0x800055c4: 3e a7 8c 23 sb	a0, 1016(a5)
0x800055c8: 00 00 80 67 jalr	zero, 0(ra)
0x80005914: 00 01 27 83 lw	a5, 0(sp)
0x80005918: 00 41 23 03 lw	t1, 4(sp)
0x8000591c: 00 17 87 93 addi	a5, a5, 1
0x80005920: 00 f1 20 23 sw	a5, 0(sp)
0x80005924: 00 03 04 13 addi	s0, t1, 0
0x80005928: 00 14 45 03 lbu	a0, 1(s0)
0x8000592c: 00 14 03 13 addi	t1, s0, 1
0x80005930: 0a 05 00 63 beq	a0, zero, 0x800059d0
0x80005934: 02 50 07 93 addi	a5, zero, 37
0x80005938: fc f5 1a e3 bne	a0, a5, 0x8000590c
0x8000590c: 00 61 22 23 sw	t1, 4(sp)
0x80005910: cb 1f f0 ef jal	ra, 0x800055c0
0x800055c0: a0 00 07 b7 lui	a5, 655360
0x800055c4: 3e a7 8c 23 sb	a0, 1016(a5)
0x800055c8: 00 00 80 67 jalr	zero, 0(ra)
0x80005914: 00 01 27 83 lw	a5, 0(sp)
0x80005918: 00 41 23 03 lw	t1, 4(sp)
0x8000591c: 00 17 87 93 addi	a5, a5, 1
0x80005920: 00 f1 20 23 sw	a5, 0(sp)
0x80005924: 00 03 04 13 addi	s0, t1, 0
0x80005928: 00 14 45 03 lbu	a0, 1(s0)
0x8000592c: 00 14 03 13 addi	t1, s0, 1
0x80005930: 0a 05 00 63 beq	a0, zero, 0x800059d0
0x80005934: 02 50 07 93 addi	a5, zero, 37
0x80005938: fc f5 1a e3 bne	a0, a5, 0x8000590c
0x8000590c: 00 61 22 23 sw	t1, 4(sp)
0x80005910: cb 1f f0 ef jal	ra, 0x800055c0
0x800055c0: a0 00 07 b7 lui	a5, 655360
0x800055c4: 3e a7 8c 23 sb	a0, 1016(a5)
0x800055c8: 00 00 80 67 jalr	zero, 0(ra)
0x80005914: 00 01 27 83 lw	a5, 0(sp)
0x80005918: 00 41 23 03 lw	t1, 4(sp)
0x8000591c: 00 17 87 93 addi	a5, a5, 1
0x80005920: 00 f1 20 23 sw	a5, 0(sp)
0x80005924: 00 03 04 13 addi	s0, t1, 0
0x80005928: 00 14 45 03 lbu	a0, 1(s0)
0x8000592c: 00 14 03 13 addi	t1, s0, 1
0x80005930: 0a 05 00 63 beq	a0, zero, 0x800059d0
0x80005934: 02 50 07 93 addi	a5, zero, 37
0x80005938: fc f5 1a e3 bne	a0, a5, 0x8000590c
0x8000590c: 00 61 22 23 sw	t1, 4(sp)
0x80005910: cb 1f f0 ef jal	ra, 0x800055c0
0x800055c0: a0 00 07 b7 lui	a5, 655360
0x800055c4: 3e a7 8c 23 sb	a0, 1016(a5)
0x800055c8: 00 00 80 67 jalr	zero, 0(ra)
0x80005914: 00 01 27 83 lw	a5, 0(sp)
0x80005918: 00 41 23 03 lw	t1, 4(sp)
0x8000591c: 00 17 87 93 addi	a5, a5, 1
0x80005920: 00 f1 20 23 sw	a5, 0(sp)
0x80005924: 00 03 04 13 addi	s0, t1, 0
0x80005928: 00 14 45 03 lbu	a0, 1(s0)
0x8000592c: 00 14 03 13 addi	t1, s0, 1
0x80005930: 0a 05 00 63 beq	a0, zero, 0x800059d0
0x80005934: 02 50 07 93 addi	a5, zero, 37
0x80005938: fc f5 1a e3 bne	a0, a5, 0x8000590c
0x8000590c: 00 61 22 23 sw	t1, 4(sp)
0x80005910: cb 1f f0 ef jal	ra, 0x800055c0
0x800055c0: a0 00 07 b7 lui	a5, 655360
0x800055c4: 3e a7 8c 23 sb	a0, 1016(a5)
0x800055c8: 00 00 80 67 jalr	zero, 0(ra)
0x80005914: 00 01 27 83 lw	a5, 0(sp)
0x80005918: 00 41 23 03 lw	t1, 4(sp)
0x8000591c: 00 17 87 93 addi	a5, a5, 1
0x80005920: 00 f1 20 23 sw	a5, 0(sp)
0x80005924: 00 03 04 13 addi	s0, t1, 0
0x80005928: 00 14 45 03 lbu	a0, 1(s0)
0x8000592c: 00 14 03 13 addi	t1, s0, 1
0x80005930: 0a 05 00 63 beq	a0, zero, 0x800059d0
0x80005934: 02 50 07 93 addi	a5, zero, 37
0x80005938: fc f5 1a e3 bne	a0, a5, 0x8000590c
0x8000590c: 00 61 22 23 sw	t1, 4(sp)
0x80005910: cb 1f f0 ef jal	ra, 0x800055c0
0x800055c0: a0 00 07 b7 lui	a5, 655360
0x800055c4: 3e a7 8c 23 sb	a0, 1016(a5)
0x800055c8: 00 00 80 67 jalr	zero, 0(ra)
0x80005914: 00 01 27 83 lw	a5, 0(sp)
0x80005918: 00 41 23 03 lw	t1, 4(sp)
0x8000591c: 00 17 87 93 addi	a5, a5, 1
0x80005920: 00 f1 20 23 sw	a5, 0(sp)
0x80005924: 00 03 04 13 addi	s0, t1, 0
0x80005928: 00 14 45 03 lbu	a0, 1(s0)
0x8000592c: 00 14 03 13 addi	t1, s0, 1
0x80005930: 0a 05 00 63 beq	a0, zero, 0x800059d0
0x80005934: 02 50 07 93 addi	a5, zero, 37
0x80005938: fc f5 1a e3 bne	a0, a5, 0x8000590c
0x8000590c: 00 61 22 23 sw	t1, 4(sp)
0x80005910: cb 1f f0 ef jal	ra, 0x800055c0
0x800055c0: a0 00 07 b7 lui	a5, 655360
0x800055c4: 3e a7 8c 23 sb	a0, 1016(a5)
0x800055c8: 00 00 80 67 jalr	zero, 0(ra)
0x80005914: 00 01 27 83 lw	a5, 0(sp)
0x80005918: 00 41 23 03 lw	t1, 4(sp)
0x8000591c: 00 17 87 93 addi	a5, a5, 1
0x80005920: 00 f1 20 23 sw	a5, 0(sp)
0x80005924: 00 03 04 13 addi	s0, t1, 0
0x80005928: 00 14 45 03 lbu	a0, 1(s0)
0x8000592c: 00 14 03 13 addi	t1, s0, 1
0x80005930: 0a 05 00 63 beq	a0, zero, 0x800059d0
0x80005934: 02 50 07 93 addi	a5, zero, 37
0x80005938: fc f5 1a e3 bne	a0, a5, 0x8000590c
0x8000590c: 00 61 22 23 sw	t1, 4(sp)
0x80005910: cb 1f f0 ef jal	ra, 0x800055c0
0x800055c0: a0 00 07 b7 lui	a5, 655360
0x800055c4: 3e a7 8c 23 sb	a0, 1016(a5)
0x800055c8: 00 00 80 67 jalr	zero, 0(ra)
0x80005914: 00 01 27 83 lw	a5, 0(sp)
0x80005918: 00 41 23 03 lw	t1, 4(sp)
0x8000591c: 00 17 87 93 addi	a5, a5, 1
0x80005920: 00 f1 20 23 sw	a5, 0(sp)
0x80005924: 00 03 04 13 addi	s0, t1, 0
0x80005928: 00 14 45 03 lbu	a0, 1(s0)
0x8000592c: 00 14 03 13 addi	t1, s0, 1
0x80005930: 0a 05 00 63 beq	a0, zero, 0x800059d0
0x80005934: 02 50 07 93 addi	a5, zero, 37
0x80005938: fc f5 1a e3 bne	a0, a5, 0x8000590c
0x8000590c: 00 61 22 23 sw	t1, 4(sp)
0x80005910: cb 1f f0 ef jal	ra, 0x800055c0
0x800055c0: a0 00 07 b7 lui	a5, 655360
0x800055c4: 3e a7 8c 23 sb	a0, 1016(a5)
0x800055c8: 00 00 80 67 jalr	zero, 0(ra)
0x80005914: 00 01 27 83 lw	a5, 0(sp)
0x80005918: 00 41 23 03 lw	t1, 4(sp)
0x8000591c: 00 17 87 93 addi	a5, a5, 1
0x80005920: 00 f1 20 23 sw	a5, 0(sp)
0x80005924: 00 03 04 13 addi	s0, t1, 0
0x80005928: 00 14 45 03 lbu	a0, 1(s0)
0x8000592c: 00 14 03 13 addi	t1, s0, 1
0x80005930: 0a 05 00 63 beq	a0, zero, 0x800059d0
0x80005934: 02 50 07 93 addi	a5, zero, 37
0x80005938: fc f5 1a e3 bne	a0, a5, 0x8000590c
0x8000590c: 00 61 22 23 sw	t1, 4(sp)
0x80005910: cb 1f f0 ef jal	ra, 0x800055c0
0x800055c0: a0 00 07 b7 lui	a5, 655360
0x800055c4: 3e a7 8c 23 sb	a0, 1016(a5)
0x800055c8: 00 00 80 67 jalr	zero, 0(ra)
0x80005914: 00 01 27 83 lw	a5, 0(sp)
0x80005918: 00 41 23 03 lw	t1, 4(sp)
0x8000591c: 00 17 87 93 addi	a5, a5, 1
0x80005920: 00 f1 20 23 sw	a5, 0(sp)
0x80005924: 00 03 04 13 addi	s0, t1, 0
0x80005928: 00 14 45 03 lbu	a0, 1(s0)
0x8000592c: 00 14 03 13 addi	t1, s0, 1
0x80005930: 0a 05 00 63 beq	a0, zero, 0x800059d0
0x80005934: 02 50 07 93 addi	a5, zero, 37
0x80005938: fc f5 1a e3 bne	a0, a5, 0x8000590c
0x8000590c: 00 61 22 23 sw	t1, 4(sp)
0x80005910: cb 1f f0 ef jal	ra, 0x800055c0
0x800055c0: a0 00 07 b7 lui	a5, 655360
0x800055c4: 3e a7 8c 23 sb	a0, 1016(a5)
0x800055c8: 00 00 80 67 jalr	zero, 0(ra)
0x80005914: 00 01 27 83 lw	a5, 0(sp)
0x80005918: 00 41 23 03 lw	t1, 4(sp)
0x8000591c: 00 17 87 93 addi	a5, a5, 1
0x80005920: 00 f1 20 23 sw	a5, 0(sp)
0x80005924: 00 03 04 13 addi	s0, t1, 0
0x80005928: 00 14 45 03 lbu	a0, 1(s0)
0x8000592c: 00 14 03 13 addi	t1, s0, 1
0x80005930: 0a 05 00 63 beq	a0, zero, 0x800059d0
0x80005934: 02 50 07 93 addi	a5, zero, 37
0x80005938: fc f5 1a e3 bne	a0, a5, 0x8000590c
0x8000590c: 00 61 22 23 sw	t1, 4(sp)
0x80005910: cb 1f f0 ef jal	ra, 0x800055c0
0x800055c0: a0 00 07 b7 lui	a5, 655360
0x800055c4: 3e a7 8c 23 sb	a0, 1016(a5)
0x800055c8: 00 00 80 67 jalr	zero, 0(ra)
0x80005914: 00 01 27 83 lw	a5, 0(sp)
0x80005918: 00 41 23 03 lw	t1, 4(sp)
0x8000591c: 00 17 87 93 addi	a5, a5, 1
0x80005920: 00 f1 20 23 sw	a5, 0(sp)
0x80005924: 00 03 04 13 addi	s0, t1, 0
0x80005928: 00 14 45 03 lbu	a0, 1(s0)
0x8000592c: 00 14 03 13 addi	t1, s0, 1
0x80005930: 0a 05 00 63 beq	a0, zero, 0x800059d0
0x80005934: 02 50 07 93 addi	a5, zero, 37
0x80005938: fc f5 1a e3 bne	a0, a5, 0x8000590c
0x8000590c: 00 61 22 23 sw	t1, 4(sp)
0x80005910: cb 1f f0 ef jal	ra, 0x800055c0
0x800055c0: a0 00 07 b7 lui	a5, 655360
0x800055c4: 3e a7 8c 23 sb	a0, 1016(a5)
0x800055c8: 00 00 80 67 jalr	zero, 0(ra)
0x80005914: 00 01 27 83 lw	a5, 0(sp)
0x80005918: 00 41 23 03 lw	t1, 4(sp)
0x8000591c: 00 17 87 93 addi	a5, a5, 1
0x80005920: 00 f1 20 23 sw	a5, 0(sp)
0x80005924: 00 03 04 13 addi	s0, t1, 0
0x80005928: 00 14 45 03 lbu	a0, 1(s0)
0x8000592c: 00 14 03 13 addi	t1, s0, 1
0x80005930: 0a 05 00 63 beq	a0, zero, 0x800059d0
0x80005934: 02 50 07 93 addi	a5, zero, 37
0x80005938: fc f5 1a e3 bne	a0, a5, 0x8000590c
0x8000590c: 00 61 22 23 sw	t1, 4(sp)
0x80005910: cb 1f f0 ef jal	ra, 0x800055c0
0x800055c0: a0 00 07 b7 lui	a5, 655360
0x800055c4: 3e a7 8c 23 sb	a0, 1016(a5)
0x800055c8: 00 00 80 67 jalr	zero, 0(ra)
0x80005914: 00 01 27 83 lw	a5, 0(sp)
0x80005918: 00 41 23 03 lw	t1, 4(sp)
0x8000591c: 00 17 87 93 addi	a5, a5, 1
0x80005920: 00 f1 20 23 sw	a5, 0(sp)
0x80005924: 00 03 04 13 addi	s0, t1, 0
0x80005928: 00 14 45 03 lbu	a0, 1(s0)
0x8000592c: 00 14 03 13 addi	t1, s0, 1
0x80005930: 0a 05 00 63 beq	a0, zero, 0x800059d0
0x80005934: 02 50 07 93 addi	a5, zero, 37
0x80005938: fc f5 1a e3 bne	a0, a5, 0x8000590c
0x8000590c: 00 61 22 23 sw	t1, 4(sp)
0x80005910: cb 1f f0 ef jal	ra, 0x800055c0
0x800055c0: a0 00 07 b7 lui	a5, 655360
0x800055c4: 3e a7 8c 23 sb	a0, 1016(a5)
0x800055c8: 00 00 80 67 jalr	zero, 0(ra)
0x80005914: 00 01 27 83 lw	a5, 0(sp)
0x80005918: 00 41 23 03 lw	t1, 4(sp)
0x8000591c: 00 17 87 93 addi	a5, a5, 1
0x80005920: 00 f1 20 23 sw	a5, 0(sp)
0x80005924: 00 03 04 13 addi	s0, t1, 0
0x80005928: 00 14 45 03 lbu	a0, 1(s0)
0x8000592c: 00 14 03 13 addi	t1, s0, 1
0x80005930: 0a 05 00 63 beq	a0, zero, 0x800059d0
0x80005934: 02 50 07 93 addi	a5, zero, 37
0x80005938: fc f5 1a e3 bne	a0, a5, 0x8000590c
0x8000590c: 00 61 22 23 sw	t1, 4(sp)
0x80005910: cb 1f f0 ef jal	ra, 0x800055c0
0x800055c0: a0 00 07 b7 lui	a5, 655360
0x800055c4: 3e a7 8c 23 sb	a0, 1016(a5)
0x800055c8: 00 00 80 67 jalr	zero, 0(ra)
0x80005914: 00 01 27 83 lw	a5, 0(sp)
0x80005918: 00 41 23 03 lw	t1, 4(sp)
0x8000591c: 00 17 87 93 addi	a5, a5, 1
0x80005920: 00 f1 20 23 sw	a5, 0(sp)
0x80005924: 00 03 04 13 addi	s0, t1, 0
0x80005928: 00 14 45 03 lbu	a0, 1(s0)
0x8000592c: 00 14 03 13 addi	t1, s0, 1
0x80005930: 0a 05 00 63 beq	a0, zero, 0x800059d0
0x80005934: 02 50 07 93 addi	a5, zero, 37
0x80005938: fc f5 1a e3 bne	a0, a5, 0x8000590c
0x8000590c: 00 61 22 23 sw	t1, 4(sp)
0x80005910: cb 1f f0 ef jal	ra, 0x800055c0
0x800055c0: a0 00 07 b7 lui	a5, 655360
0x800055c4: 3e a7 8c 23 sb	a0, 1016(a5)
0x800055c8: 00 00 80 67 jalr	zero, 0(ra)
0x80005914: 00 01 27 83 lw	a5, 0(sp)
0x80005918: 00 41 23 03 lw	t1, 4(sp)
0x8000591c: 00 17 87 93 addi	a5, a5, 1
0x80005920: 00 f1 20 23 sw	a5, 0(sp)
0x80005924: 00 03 04 13 addi	s0, t1, 0
0x80005928: 00 14 45 03 lbu	a0, 1(s0)
0x8000592c: 00 14 03 13 addi	t1, s0, 1
0x80005930: 0a 05 00 63 beq	a0, zero, 0x800059d0
0x80005934: 02 50 07 93 addi	a5, zero, 37
0x80005938: fc f5 1a e3 bne	a0, a5, 0x8000590c
0x8000590c: 00 61 22 23 sw	t1, 4(sp)
0x80005910: cb 1f f0 ef jal	ra, 0x800055c0
0x800055c0: a0 00 07 b7 lui	a5, 655360
0x800055c4: 3e a7 8c 23 sb	a0, 1016(a5)
0x800055c8: 00 00 80 67 jalr	zero, 0(ra)
0x80005914: 00 01 27 83 lw	a5, 0(sp)
0x80005918: 00 41 23 03 lw	t1, 4(sp)
0x8000591c: 00 17 87 93 addi	a5, a5, 1
0x80005920: 00 f1 20 23 sw	a5, 0(sp)
0x80005924: 00 03 04 13 addi	s0, t1, 0
0x80005928: 00 14 45 03 lbu	a0, 1(s0)
0x8000592c: 00 14 03 13 addi	t1, s0, 1
0x80005930: 0a 05 00 63 beq	a0, zero, 0x800059d0
0x80005934: 02 50 07 93 addi	a5, zero, 37
0x80005938: fc f5 1a e3 bne	a0, a5, 0x8000590c
0x8000590c: 00 61 22 23 sw	t1, 4(sp)
0x80005910: cb 1f f0 ef jal	ra, 0x800055c0
0x800055c0: a0 00 07 b7 lui	a5, 655360
0x800055c4: 3e a7 8c 23 sb	a0, 1016(a5)
0x800055c8: 00 00 80 67 jalr	zero, 0(ra)
0x80005914: 00 01 27 83 lw	a5, 0(sp)
0x80005918: 00 41 23 03 lw	t1, 4(sp)
0x8000591c: 00 17 87 93 addi	a5, a5, 1
0x80005920: 00 f1 20 23 sw	a5, 0(sp)
0x80005924: 00 03 04 13 addi	s0, t1, 0
0x80005928: 00 14 45 03 lbu	a0, 1(s0)
0x8000592c: 00 14 03 13 addi	t1, s0, 1
0x80005930: 0a 05 00 63 beq	a0, zero, 0x800059d0
0x80005934: 02 50 07 93 addi	a5, zero, 37
0x80005938: fc f5 1a e3 bne	a0, a5, 0x8000590c
0x8000590c: 00 61 22 23 sw	t1, 4(sp)
0x80005910: cb 1f f0 ef jal	ra, 0x800055c0
0x800055c0: a0 00 07 b7 lui	a5, 655360
0x800055c4: 3e a7 8c 23 sb	a0, 1016(a5)
0x800055c8: 00 00 80 67 jalr	zero, 0(ra)
0x80005914: 00 01 27 83 lw	a5, 0(sp)
0x80005918: 00 41 23 03 lw	t1, 4(sp)
0x8000591c: 00 17 87 93 addi	a5, a5, 1
0x80005920: 00 f1 20 23 sw	a5, 0(sp)
0x80005924: 00 03 04 13 addi	s0, t1, 0
0x80005928: 00 14 45 03 lbu	a0, 1(s0)
0x8000592c: 00 14 03 13 addi	t1, s0, 1
0x80005930: 0a 05 00 63 beq	a0, zero, 0x800059d0
0x80005934: 02 50 07 93 addi	a5, zero, 37
0x80005938: fc f5 1a e3 bne	a0, a5, 0x8000590c
0x8000590c: 00 61 22 23 sw	t1, 4(sp)
0x80005910: cb 1f f0 ef jal	ra, 0x800055c0
0x800055c0: a0 00 07 b7 lui	a5, 655360
0x800055c4: 3e a7 8c 23 sb	a0, 1016(a5)
0x800055c8: 00 00 80 67 jalr	zero, 0(ra)
0x80005914: 00 01 27 83 lw	a5, 0(sp)
0x80005918: 00 41 23 03 lw	t1, 4(sp)
0x8000591c: 00 17 87 93 addi	a5, a5, 1
0x80005920: 00 f1 20 23 sw	a5, 0(sp)
0x80005924: 00 03 04 13 addi	s0, t1, 0
0x80005928: 00 14 45 03 lbu	a0, 1(s0)
0x8000592c: 00 14 03 13 addi	t1, s0, 1
0x80005930: 0a 05 00 63 beq	a0, zero, 0x800059d0
0x80005934: 02 50 07 93 addi	a5, zero, 37
0x80005938: fc f5 1a e3 bne	a0, a5, 0x8000590c
0x8000590c: 00 61 22 23 sw	t1, 4(sp)
0x80005910: cb 1f f0 ef jal	ra, 0x800055c0
0x800055c0: a0 00 07 b7 lui	a5, 655360
0x800055c4: 3e a7 8c 23 sb	a0, 1016(a5)
0x800055c8: 00 00 80 67 jalr	zero, 0(ra)
0x80005914: 00 01 27 83 lw	a5, 0(sp)
0x80005918: 00 41 23 03 lw	t1, 4(sp)
0x8000591c: 00 17 87 93 addi	a5, a5, 1
0x80005920: 00 f1 20 23 sw	a5, 0(sp)
0x80005924: 00 03 04 13 addi	s0, t1, 0
0x80005928: 00 14 45 03 lbu	a0, 1(s0)
0x8000592c: 00 14 03 13 addi	t1, s0, 1
0x80005930: 0a 05 00 63 beq	a0, zero, 0x800059d0
0x80005934: 02 50 07 93 addi	a5, zero, 37
0x80005938: fc f5 1a e3 bne	a0, a5, 0x8000590c
0x8000590c: 00 61 22 23 sw	t1, 4(sp)
0x80005910: cb 1f f0 ef jal	ra, 0x800055c0
0x800055c0: a0 00 07 b7 lui	a5, 655360
0x800055c4: 3e a7 8c 23 sb	a0, 1016(a5)
0x800055c8: 00 00 80 67 jalr	zero, 0(ra)
0x80005914: 00 01 27 83 lw	a5, 0(sp)
0x80005918: 00 41 23 03 lw	t1, 4(sp)
0x8000591c: 00 17 87 93 addi	a5, a5, 1
0x80005920: 00 f1 20 23 sw	a5, 0(sp)
0x80005924: 00 03 04 13 addi	s0, t1, 0
0x80005928: 00 14 45 03 lbu	a0, 1(s0)
0x8000592c: 00 14 03 13 addi	t1, s0, 1
0x80005930: 0a 05 00 63 beq	a0, zero, 0x800059d0
0x80005934: 02 50 07 93 addi	a5, zero, 37
0x80005938: fc f5 1a e3 bne	a0, a5, 0x8000590c
0x8000590c: 00 61 22 23 sw	t1, 4(sp)
0x80005910: cb 1f f0 ef jal	ra, 0x800055c0
0x800055c0: a0 00 07 b7 lui	a5, 655360
0x800055c4: 3e a7 8c 23 sb	a0, 1016(a5)
0x800055c8: 00 00 80 67 jalr	zero, 0(ra)
0x80005914: 00 01 27 83 lw	a5, 0(sp)
0x80005918: 00 41 23 03 lw	t1, 4(sp)
0x8000591c: 00 17 87 93 addi	a5, a5, 1
0x80005920: 00 f1 20 23 sw	a5, 0(sp)
0x80005924: 00 03 04 13 addi	s0, t1, 0
0x80005928: 00 14 45 03 lbu	a0, 1(s0)
0x8000592c: 00 14 03 13 addi	t1, s0, 1
0x80005930: 0a 05 00 63 beq	a0, zero, 0x800059d0
0x80005934: 02 50 07 93 addi	a5, zero, 37
0x80005938: fc f5 1a e3 bne	a0, a5, 0x8000590c
0x8000590c: 00 61 22 23 sw	t1, 4(sp)
0x80005910: cb 1f f0 ef jal	ra, 0x800055c0
0x800055c0: a0 00 07 b7 lui	a5, 655360
0x800055c4: 3e a7 8c 23 sb	a0, 1016(a5)
0x800055c8: 00 00 80 67 jalr	zero, 0(ra)
0x80005914: 00 01 27 83 lw	a5, 0(sp)
0x80005918: 00 41 23 03 lw	t1, 4(sp)
0x8000591c: 00 17 87 93 addi	a5, a5, 1
0x80005920: 00 f1 20 23 sw	a5, 0(sp)
0x80005924: 00 03 04 13 addi	s0, t1, 0
0x80005928: 00 14 45 03 lbu	a0, 1(s0)
0x8000592c: 00 14 03 13 addi	t1, s0, 1
0x80005930: 0a 05 00 63 beq	a0, zero, 0x800059d0
0x80005934: 02 50 07 93 addi	a5, zero, 37
0x80005938: fc f5 1a e3 bne	a0, a5, 0x8000590c
0x8000590c: 00 61 22 23 sw	t1, 4(sp)
0x80005910: cb 1f f0 ef jal	ra, 0x800055c0
0x800055c0: a0 00 07 b7 lui	a5, 655360
0x800055c4: 3e a7 8c 23 sb	a0, 1016(a5)
0x800055c8: 00 00 80 67 jalr	zero, 0(ra)
0x80005914: 00 01 27 83 lw	a5, 0(sp)
0x80005918: 00 41 23 03 lw	t1, 4(sp)
0x8000591c: 00 17 87 93 addi	a5, a5, 1
0x80005920: 00 f1 20 23 sw	a5, 0(sp)
0x80005924: 00 03 04 13 addi	s0, t1, 0
0x80005928: 00 14 45 03 lbu	a0, 1(s0)
0x8000592c: 00 14 03 13 addi	t1, s0, 1
0x80005930: 0a 05 00 63 beq	a0, zero, 0x800059d0
0x80005934: 02 50 07 93 addi	a5, zero, 37
0x80005938: fc f5 1a e3 bne	a0, a5, 0x8000590c
0x8000593c: 00 13 45 83 lbu	a1, 1(t1)
0x80005940: 03 00 07 93 addi	a5, zero, 48
0x80005944: 00 13 04 13 addi	s0, t1, 1
0x80005948: 02 00 04 93 addi	s1, zero, 32
0x8000594c: 00 f5 98 63 bne	a1, a5, 0x8000595c
0x8000595c: fd 05 86 93 addi	a3, a1, -48
0x80005960: 0f f6 f3 13 andi	t1, a3, 255
0x80005964: 00 90 07 93 addi	a5, zero, 9
0x80005968: 00 00 06 13 addi	a2, zero, 0
0x8000596c: 00 90 05 13 addi	a0, zero, 9
0x80005970: 02 67 e4 63 bltu	a5, t1, 0x80005998
0x80005998: 06 40 07 93 addi	a5, zero, 100
0x8000599c: 08 f5 8a 63 beq	a1, a5, 0x80005a30
0x800059a0: 07 30 07 93 addi	a5, zero, 115
0x800059a4: 04 f5 82 63 beq	a1, a5, 0x800059e8
0x800059e8: 01 41 27 83 lw	a5, 20(sp)
0x800059ec: 00 07 a7 03 lw	a4, 0(a5)
0x800059f0: 00 47 87 93 addi	a5, a5, 4
0x800059f4: 00 f1 2a 23 sw	a5, 20(sp)
0x800059f8: 00 07 45 03 lbu	a0, 0(a4)
0x800059fc: 00 e1 22 23 sw	a4, 4(sp)
0x80005a00: f2 05 04 e3 beq	a0, zero, 0x80005928
0x80005a04: 00 01 24 83 lw	s1, 0(sp)
0x80005a08: bb 9f f0 ef jal	ra, 0x800055c0
0x800055c0: a0 00 07 b7 lui	a5, 655360
0x800055c4: 3e a7 8c 23 sb	a0, 1016(a5)
0x800055c8: 00 00 80 67 jalr	zero, 0(ra)
0x80005a0c: 00 01 27 83 lw	a5, 0(sp)
0x80005a10: 00 41 27 03 lw	a4, 4(sp)
0x80005a14: 00 14 84 93 addi	s1, s1, 1
0x80005a18: 40 f4 87 b3 sub	a5, s1, a5
0x80005a1c: 00 f7 07 b3 add	a5, a4, a5
0x80005a20: 00 07 c5 03 lbu	a0, 0(a5)
0x80005a24: fe 05 12 e3 bne	a0, zero, 0x80005a08
0x80005a08: bb 9f f0 ef jal	ra, 0x800055c0
0x800055c0: a0 00 07 b7 lui	a5, 655360
0x800055c4: 3e a7 8c 23 sb	a0, 1016(a5)
0x800055c8: 00 00 80 67 jalr	zero, 0(ra)
0x80005a0c: 00 01 27 83 lw	a5, 0(sp)
0x80005a10: 00 41 27 03 lw	a4, 4(sp)
0x80005a14: 00 14 84 93 addi	s1, s1, 1
0x80005a18: 40 f4 87 b3 sub	a5, s1, a5
0x80005a1c: 00 f7 07 b3 add	a5, a4, a5
0x80005a20: 00 07 c5 03 lbu	a0, 0(a5)
0x80005a24: fe 05 12 e3 bne	a0, zero, 0x80005a08
0x80005a08: bb 9f f0 ef jal	ra, 0x800055c0
0x800055c0: a0 00 07 b7 lui	a5, 655360
0x800055c4: 3e a7 8c 23 sb	a0, 1016(a5)
0x800055c8: 00 00 80 67 jalr	zero, 0(ra)
0x80005a0c: 00 01 27 83 lw	a5, 0(sp)
0x80005a10: 00 41 27 03 lw	a4, 4(sp)
0x80005a14: 00 14 84 93 addi	s1, s1, 1
0x80005a18: 40 f4 87 b3 sub	a5, s1, a5
0x80005a1c: 00 f7 07 b3 add	a5, a4, a5
0x80005a20: 00 07 c5 03 lbu	a0, 0(a5)
0x80005a24: fe 05 12 e3 bne	a0, zero, 0x80005a08
0x80005a08: bb 9f f0 ef jal	ra, 0x800055c0
0x800055c0: a0 00 07 b7 lui	a5, 655360
0x800055c4: 3e a7 8c 23 sb	a0, 1016(a5)
0x800055c8: 00 00 80 67 jalr	zero, 0(ra)
0x80005a0c: 00 01 27 83 lw	a5, 0(sp)
0x80005a10: 00 41 27 03 lw	a4, 4(sp)
0x80005a14: 00 14 84 93 addi	s1, s1, 1
0x80005a18: 40 f4 87 b3 sub	a5, s1, a5
0x80005a1c: 00 f7 07 b3 add	a5, a4, a5
0x80005a20: 00 07 c5 03 lbu	a0, 0(a5)
0x80005a24: fe 05 12 e3 bne	a0, zero, 0x80005a08
0x80005a28: 00 91 20 23 sw	s1, 0(sp)
0x80005a2c: ef df f0 6f jal	zero, 0x80005928
0x80005928: 00 14 45 03 lbu	a0, 1(s0)
0x8000592c: 00 14 03 13 addi	t1, s0, 1
0x80005930: 0a 05 00 63 beq	a0, zero, 0x800059d0
0x80005934: 02 50 07 93 addi	a5, zero, 37
0x80005938: fc f5 1a e3 bne	a0, a5, 0x8000590c
0x8000590c: 00 61 22 23 sw	t1, 4(sp)
0x80005910: cb 1f f0 ef jal	ra, 0x800055c0
0x800055c0: a0 00 07 b7 lui	a5, 655360
0x800055c4: 3e a7 8c 23 sb	a0, 1016(a5)
0x800055c8: 00 00 80 67 jalr	zero, 0(ra)
0x80005914: 00 01 27 83 lw	a5, 0(sp)
0x80005918: 00 41 23 03 lw	t1, 4(sp)
0x8000591c: 00 17 87 93 addi	a5, a5, 1
0x80005920: 00 f1 20 23 sw	a5, 0(sp)
0x80005924: 00 03 04 13 addi	s0, t1, 0
0x80005928: 00 14 45 03 lbu	a0, 1(s0)
0x8000592c: 00 14 03 13 addi	t1, s0, 1
0x80005930: 0a 05 00 63 beq	a0, zero, 0x800059d0
0x80005934: 02 50 07 93 addi	a5, zero, 37
0x80005938: fc f5 1a e3 bne	a0, a5, 0x8000590c
0x8000590c: 00 61 22 23 sw	t1, 4(sp)
0x80005910: cb 1f f0 ef jal	ra, 0x800055c0
0x800055c0: a0 00 07 b7 lui	a5, 655360
0x800055c4: 3e a7 8c 23 sb	a0, 1016(a5)
0x800055c8: 00 00 80 67 jalr	zero, 0(ra)
0x80005914: 00 01 27 83 lw	a5, 0(sp)
0x80005918: 00 41 23 03 lw	t1, 4(sp)
0x8000591c: 00 17 87 93 addi	a5, a5, 1
0x80005920: 00 f1 20 23 sw	a5, 0(sp)
0x80005924: 00 03 04 13 addi	s0, t1, 0
0x80005928: 00 14 45 03 lbu	a0, 1(s0)
0x8000592c: 00 14 03 13 addi	t1, s0, 1
0x80005930: 0a 05 00 63 beq	a0, zero, 0x800059d0
0x80005934: 02 50 07 93 addi	a5, zero, 37
0x80005938: fc f5 1a e3 bne	a0, a5, 0x8000590c
0x8000590c: 00 61 22 23 sw	t1, 4(sp)
0x80005910: cb 1f f0 ef jal	ra, 0x800055c0
0x800055c0: a0 00 07 b7 lui	a5, 655360
0x800055c4: 3e a7 8c 23 sb	a0, 1016(a5)
0x800055c8: 00 00 80 67 jalr	zero, 0(ra)
0x80005914: 00 01 27 83 lw	a5, 0(sp)
0x80005918: 00 41 23 03 lw	t1, 4(sp)
0x8000591c: 00 17 87 93 addi	a5, a5, 1
0x80005920: 00 f1 20 23 sw	a5, 0(sp)
0x80005924: 00 03 04 13 addi	s0, t1, 0
0x80005928: 00 14 45 03 lbu	a0, 1(s0)
0x8000592c: 00 14 03 13 addi	t1, s0, 1
0x80005930: 0a 05 00 63 beq	a0, zero, 0x800059d0
0x80005934: 02 50 07 93 addi	a5, zero, 37
0x80005938: fc f5 1a e3 bne	a0, a5, 0x8000590c
0x8000590c: 00 61 22 23 sw	t1, 4(sp)
0x80005910: cb 1f f0 ef jal	ra, 0x800055c0
0x800055c0: a0 00 07 b7 lui	a5, 655360
0x800055c4: 3e a7 8c 23 sb	a0, 1016(a5)
0x800055c8: 00 00 80 67 jalr	zero, 0(ra)
0x80005914: 00 01 27 83 lw	a5, 0(sp)
0x80005918: 00 41 23 03 lw	t1, 4(sp)
0x8000591c: 00 17 87 93 addi	a5, a5, 1
0x80005920: 00 f1 20 23 sw	a5, 0(sp)
0x80005924: 00 03 04 13 addi	s0, t1, 0
0x80005928: 00 14 45 03 lbu	a0, 1(s0)
0x8000592c: 00 14 03 13 addi	t1, s0, 1
0x80005930: 0a 05 00 63 beq	a0, zero, 0x800059d0
0x80005934: 02 50 07 93 addi	a5, zero, 37
0x80005938: fc f5 1a e3 bne	a0, a5, 0x8000590c
0x8000590c: 00 61 22 23 sw	t1, 4(sp)
0x80005910: cb 1f f0 ef jal	ra, 0x800055c0
0x800055c0: a0 00 07 b7 lui	a5, 655360
0x800055c4: 3e a7 8c 23 sb	a0, 1016(a5)
0x800055c8: 00 00 80 67 jalr	zero, 0(ra)
0x80005914: 00 01 27 83 lw	a5, 0(sp)
0x80005918: 00 41 23 03 lw	t1, 4(sp)
0x8000591c: 00 17 87 93 addi	a5, a5, 1
0x80005920: 00 f1 20 23 sw	a5, 0(sp)
0x80005924: 00 03 04 13 addi	s0, t1, 0
0x80005928: 00 14 45 03 lbu	a0, 1(s0)
0x8000592c: 00 14 03 13 addi	t1, s0, 1
0x80005930: 0a 05 00 63 beq	a0, zero, 0x800059d0
0x80005934: 02 50 07 93 addi	a5, zero, 37
0x80005938: fc f5 1a e3 bne	a0, a5, 0x8000590c
0x8000590c: 00 61 22 23 sw	t1, 4(sp)
0x80005910: cb 1f f0 ef jal	ra, 0x800055c0
0x800055c0: a0 00 07 b7 lui	a5, 655360
0x800055c4: 3e a7 8c 23 sb	a0, 1016(a5)
0x800055c8: 00 00 80 67 jalr	zero, 0(ra)
0x80005914: 00 01 27 83 lw	a5, 0(sp)
0x80005918: 00 41 23 03 lw	t1, 4(sp)
0x8000591c: 00 17 87 93 addi	a5, a5, 1
0x80005920: 00 f1 20 23 sw	a5, 0(sp)
0x80005924: 00 03 04 13 addi	s0, t1, 0
0x80005928: 00 14 45 03 lbu	a0, 1(s0)
0x8000592c: 00 14 03 13 addi	t1, s0, 1
0x80005930: 0a 05 00 63 beq	a0, zero, 0x800059d0
0x80005934: 02 50 07 93 addi	a5, zero, 37
0x80005938: fc f5 1a e3 bne	a0, a5, 0x8000590c
0x8000590c: 00 61 22 23 sw	t1, 4(sp)
0x80005910: cb 1f f0 ef jal	ra, 0x800055c0
0x800055c0: a0 00 07 b7 lui	a5, 655360
0x800055c4: 3e a7 8c 23 sb	a0, 1016(a5)
0x800055c8: 00 00 80 67 jalr	zero, 0(ra)
0x80005914: 00 01 27 83 lw	a5, 0(sp)
0x80005918: 00 41 23 03 lw	t1, 4(sp)
0x8000591c: 00 17 87 93 addi	a5, a5, 1
0x80005920: 00 f1 20 23 sw	a5, 0(sp)
0x80005924: 00 03 04 13 addi	s0, t1, 0
0x80005928: 00 14 45 03 lbu	a0, 1(s0)
0x8000592c: 00 14 03 13 addi	t1, s0, 1
0x80005930: 0a 05 00 63 beq	a0, zero, 0x800059d0
0x80005934: 02 50 07 93 addi	a5, zero, 37
0x80005938: fc f5 1a e3 bne	a0, a5, 0x8000590c
0x8000590c: 00 61 22 23 sw	t1, 4(sp)
0x80005910: cb 1f f0 ef jal	ra, 0x800055c0
0x800055c0: a0 00 07 b7 lui	a5, 655360
0x800055c4: 3e a7 8c 23 sb	a0, 1016(a5)
0x800055c8: 00 00 80 67 jalr	zero, 0(ra)
0x80005914: 00 01 27 83 lw	a5, 0(sp)
0x80005918: 00 41 23 03 lw	t1, 4(sp)
0x8000591c: 00 17 87 93 addi	a5, a5, 1
0x80005920: 00 f1 20 23 sw	a5, 0(sp)
0x80005924: 00 03 04 13 addi	s0, t1, 0
0x80005928: 00 14 45 03 lbu	a0, 1(s0)
0x8000592c: 00 14 03 13 addi	t1, s0, 1
0x80005930: 0a 05 00 63 beq	a0, zero, 0x800059d0
0x80005934: 02 50 07 93 addi	a5, zero, 37
0x80005938: fc f5 1a e3 bne	a0, a5, 0x8000590c
0x8000590c: 00 61 22 23 sw	t1, 4(sp)
0x80005910: cb 1f f0 ef jal	ra, 0x800055c0
0x800055c0: a0 00 07 b7 lui	a5, 655360
0x800055c4: 3e a7 8c 23 sb	a0, 1016(a5)
0x800055c8: 00 00 80 67 jalr	zero, 0(ra)
0x80005914: 00 01 27 83 lw	a5, 0(sp)
0x80005918: 00 41 23 03 lw	t1, 4(sp)
0x8000591c: 00 17 87 93 addi	a5, a5, 1
0x80005920: 00 f1 20 23 sw	a5, 0(sp)
0x80005924: 00 03 04 13 addi	s0, t1, 0
0x80005928: 00 14 45 03 lbu	a0, 1(s0)
0x8000592c: 00 14 03 13 addi	t1, s0, 1
0x80005930: 0a 05 00 63 beq	a0, zero, 0x800059d0
0x80005934: 02 50 07 93 addi	a5, zero, 37
0x80005938: fc f5 1a e3 bne	a0, a5, 0x8000590c
0x8000590c: 00 61 22 23 sw	t1, 4(sp)
0x80005910: cb 1f f0 ef jal	ra, 0x800055c0
0x800055c0: a0 00 07 b7 lui	a5, 655360
0x800055c4: 3e a7 8c 23 sb	a0, 1016(a5)
0x800055c8: 00 00 80 67 jalr	zero, 0(ra)
0x80005914: 00 01 27 83 lw	a5, 0(sp)
0x80005918: 00 41 23 03 lw	t1, 4(sp)
0x8000591c: 00 17 87 93 addi	a5, a5, 1
0x80005920: 00 f1 20 23 sw	a5, 0(sp)
0x80005924: 00 03 04 13 addi	s0, t1, 0
0x80005928: 00 14 45 03 lbu	a0, 1(s0)
0x8000592c: 00 14 03 13 addi	t1, s0, 1
0x80005930: 0a 05 00 63 beq	a0, zero, 0x800059d0
0x80005934: 02 50 07 93 addi	a5, zero, 37
0x80005938: fc f5 1a e3 bne	a0, a5, 0x8000590c
0x8000590c: 00 61 22 23 sw	t1, 4(sp)
0x80005910: cb 1f f0 ef jal	ra, 0x800055c0
0x800055c0: a0 00 07 b7 lui	a5, 655360
0x800055c4: 3e a7 8c 23 sb	a0, 1016(a5)
0x800055c8: 00 00 80 67 jalr	zero, 0(ra)
0x80005914: 00 01 27 83 lw	a5, 0(sp)
0x80005918: 00 41 23 03 lw	t1, 4(sp)
0x8000591c: 00 17 87 93 addi	a5, a5, 1
0x80005920: 00 f1 20 23 sw	a5, 0(sp)
0x80005924: 00 03 04 13 addi	s0, t1, 0
0x80005928: 00 14 45 03 lbu	a0, 1(s0)
0x8000592c: 00 14 03 13 addi	t1, s0, 1
0x80005930: 0a 05 00 63 beq	a0, zero, 0x800059d0
0x800059d0: 40 81 20 83 lw	ra, 1032(sp)
0x800059d4: 40 41 24 03 lw	s0, 1028(sp)
0x800059d8: 00 01 25 03 lw	a0, 0(sp)
0x800059dc: 40 01 24 83 lw	s1, 1024(sp)
0x800059e0: 42 01 01 13 addi	sp, sp, 1056
0x800059e4: 00 00 80 67 jalr	zero, 0(ra)
0x80000f34: 00 04 85 93 addi	a1, s1, 0
0x80000f38: 00 60 05 13 addi	a0, zero, 6
0x80000f3c: 79 c0 40 ef jal	ra, 0x800056d8
0x800056d8: 00 25 15 13 slli	a0, a0, 2
0x800056dc: 00 00 27 97 auipc	a5, 2
0x800056e0: 9a 07 87 93 addi	a5, a5, -1632
0x800056e4: 00 a7 87 b3 add	a5, a5, a0
0x800056e8: 00 07 a7 83 lw	a5, 0(a5)
0x800056ec: 00 05 85 13 addi	a0, a1, 0
0x800056f0: 00 07 80 67 jalr	zero, 0(a5)
0x800056f8: a0 00 07 b7 lui	a5, 655360
0x800056fc: 04 87 a7 03 lw	a4, 72(a5)
0x80005700: 04 c7 a7 83 lw	a5, 76(a5)
0x80005704: 00 e5 20 23 sw	a4, 0(a0)
0x80005708: 00 f5 22 23 sw	a5, 4(a0)
0x8000570c: 00 00 80 67 jalr	zero, 0(ra)
0x80000f40: 01 c1 27 83 lw	a5, 28(sp)
0x80000f44: 00 01 2a 23 sw	zero, 20(sp)
0x80000f48: 00 01 2c 23 sw	zero, 24(sp)
0x80000f4c: 00 17 87 13 addi	a4, a5, 1
0x80000f50: 00 04 a7 83 lw	a5, 0(s1)
0x80000f54: 00 47 17 13 slli	a4, a4, 4
0x80000f58: ff 07 06 93 addi	a3, a4, -16
0x80000f5c: 02 f1 26 23 sw	a5, 44(sp)
0x80000f60: 00 44 a7 83 lw	a5, 4(s1)
0x80000f64: 00 d1 22 23 sw	a3, 4(sp)
0x80000f68: 00 47 07 13 addi	a4, a4, 4
0x80000f6c: 00 10 06 93 addi	a3, zero, 1
0x80000f70: 02 f1 28 23 sw	a5, 48(sp)
0x80000f74: 02 d1 20 23 sw	a3, 32(sp)
0x80000f78: 00 00 67 97 auipc	a5, 6
0x80000f7c: cb 07 87 93 addi	a5, a5, -848
0x80000f80: 02 01 24 23 sw	zero, 40(sp)
0x80000f84: 00 e1 24 23 sw	a4, 8(sp)
0x80000f88: 00 00 64 17 auipc	s0, 6
0x80000f8c: 0e c4 04 13 addi	s0, s0, 236
0x80000f90: 03 c0 00 6f jal	zero, 0x80000fcc
0x80000fcc: 00 41 26 83 lw	a3, 4(sp)
0x80000fd0: 00 81 25 83 lw	a1, 8(sp)
0x80000fd4: 00 04 26 03 lw	a2, 0(s0)
0x80000fd8: 00 44 27 03 lw	a4, 4(s0)
0x80000fdc: 00 d7 86 b3 add	a3, a5, a3
0x80000fe0: 01 86 a6 83 lw	a3, 24(a3)
0x80000fe4: 00 f5 85 b3 add	a1, a1, a5
0x80000fe8: 00 00 65 17 auipc	a0, 6
0x80000fec: 2f 85 05 13 addi	a0, a0, 760
0x80000ff0: 00 00 63 17 auipc	t1, 6
0x80000ff4: 2f 83 03 13 addi	t1, t1, 760
0x80000ff8: 00 b3 20 23 sw	a1, 0(t1)
0x80000ffc: 40 c7 07 33 sub	a4, a4, a2
0x80001000: 00 f5 20 23 sw	a5, 0(a0)
0x80001004: 00 c7 a5 83 lw	a1, 12(a5)
0x80001008: 01 07 a6 03 lw	a2, 16(a5)
0x8000100c: f8 d7 64 e3 bltu	a4, a3, 0x80000f94
0x80001010: 00 00 65 17 auipc	a0, 6
0x80001014: 81 85 05 13 addi	a0, a0, -2024
0x80001018: 00 f1 28 23 sw	a5, 16(sp)
0x8000101c: 0b 10 40 ef jal	ra, 0x800058cc
0x800058cc: be 01 01 13 addi	sp, sp, -1056
0x800058d0: 40 f1 2e 23 sw	a5, 1052(sp)
0x800058d4: 40 11 24 23 sw	ra, 1032(sp)
0x800058d8: 40 81 22 23 sw	s0, 1028(sp)
0x800058dc: 40 91 20 23 sw	s1, 1024(sp)
0x800058e0: 40 b1 26 23 sw	a1, 1036(sp)
0x800058e4: 40 c1 28 23 sw	a2, 1040(sp)
0x800058e8: 40 d1 2a 23 sw	a3, 1044(sp)
0x800058ec: 40 e1 2c 23 sw	a4, 1048(sp)
0x800058f0: 00 05 03 13 addi	t1, a0, 0
0x800058f4: 00 05 45 03 lbu	a0, 0(a0)
0x800058f8: 40 c1 07 93 addi	a5, sp, 1036
0x800058fc: 00 f1 2a 23 sw	a5, 20(sp)
0x80005900: 00 01 20 23 sw	zero, 0(sp)
0x80005904: 02 05 18 63 bne	a0, zero, 0x80005934
0x80005934: 02 50 07 93 addi	a5, zero, 37
0x80005938: fc f5 1a e3 bne	a0, a5, 0x8000590c
0x8000590c: 00 61 22 23 sw	t1, 4(sp)
0x80005910: cb 1f f0 ef jal	ra, 0x800055c0
0x800055c0: a0 00 07 b7 lui	a5, 655360
0x800055c4: 3e a7 8c 23 sb	a0, 1016(a5)
0x800055c8: 00 00 80 67 jalr	zero, 0(ra)
0x80005914: 00 01 27 83 lw	a5, 0(sp)
0x80005918: 00 41 23 03 lw	t1, 4(sp)
0x8000591c: 00 17 87 93 addi	a5, a5, 1
0x80005920: 00 f1 20 23 sw	a5, 0(sp)
0x80005924: 00 03 04 13 addi	s0, t1, 0
0x80005928: 00 14 45 03 lbu	a0, 1(s0)
0x8000592c: 00 14 03 13 addi	t1, s0, 1
0x80005930: 0a 05 00 63 beq	a0, zero, 0x800059d0
0x80005934: 02 50 07 93 addi	a5, zero, 37
0x80005938: fc f5 1a e3 bne	a0, a5, 0x8000590c
0x8000593c: 00 13 45 83 lbu	a1, 1(t1)
0x80005940: 03 00 07 93 addi	a5, zero, 48
0x80005944: 00 13 04 13 addi	s0, t1, 1
0x80005948: 02 00 04 93 addi	s1, zero, 32
0x8000594c: 00 f5 98 63 bne	a1, a5, 0x8000595c
0x8000595c: fd 05 86 93 addi	a3, a1, -48
0x80005960: 0f f6 f3 13 andi	t1, a3, 255
0x80005964: 00 90 07 93 addi	a5, zero, 9
0x80005968: 00 00 06 13 addi	a2, zero, 0
0x8000596c: 00 90 05 13 addi	a0, zero, 9
0x80005970: 02 67 e4 63 bltu	a5, t1, 0x80005998
0x80005998: 06 40 07 93 addi	a5, zero, 100
0x8000599c: 08 f5 8a 63 beq	a1, a5, 0x80005a30
0x800059a0: 07 30 07 93 addi	a5, zero, 115
0x800059a4: 04 f5 82 63 beq	a1, a5, 0x800059e8
0x800059e8: 01 41 27 83 lw	a5, 20(sp)
0x800059ec: 00 07 a7 03 lw	a4, 0(a5)
0x800059f0: 00 47 87 93 addi	a5, a5, 4
0x800059f4: 00 f1 2a 23 sw	a5, 20(sp)
0x800059f8: 00 07 45 03 lbu	a0, 0(a4)
0x800059fc: 00 e1 22 23 sw	a4, 4(sp)
0x80005a00: f2 05 04 e3 beq	a0, zero, 0x80005928
0x80005a04: 00 01 24 83 lw	s1, 0(sp)
0x80005a08: bb 9f f0 ef jal	ra, 0x800055c0
0x800055c0: a0 00 07 b7 lui	a5, 655360
0x800055c4: 3e a7 8c 23 sb	a0, 1016(a5)
0x800055c8: 00 00 80 67 jalr	zero, 0(ra)
0x80005a0c: 00 01 27 83 lw	a5, 0(sp)
0x80005a10: 00 41 27 03 lw	a4, 4(sp)
0x80005a14: 00 14 84 93 addi	s1, s1, 1
0x80005a18: 40 f4 87 b3 sub	a5, s1, a5
0x80005a1c: 00 f7 07 b3 add	a5, a4, a5
0x80005a20: 00 07 c5 03 lbu	a0, 0(a5)
0x80005a24: fe 05 12 e3 bne	a0, zero, 0x80005a08
0x80005a08: bb 9f f0 ef jal	ra, 0x800055c0
0x800055c0: a0 00 07 b7 lui	a5, 655360
0x800055c4: 3e a7 8c 23 sb	a0, 1016(a5)
0x800055c8: 00 00 80 67 jalr	zero, 0(ra)
0x80005a0c: 00 01 27 83 lw	a5, 0(sp)
0x80005a10: 00 41 27 03 lw	a4, 4(sp)
0x80005a14: 00 14 84 93 addi	s1, s1, 1
0x80005a18: 40 f4 87 b3 sub	a5, s1, a5
0x80005a1c: 00 f7 07 b3 add	a5, a4, a5
0x80005a20: 00 07 c5 03 lbu	a0, 0(a5)
0x80005a24: fe 05 12 e3 bne	a0, zero, 0x80005a08
0x80005a08: bb 9f f0 ef jal	ra, 0x800055c0
0x800055c0: a0 00 07 b7 lui	a5, 655360
0x800055c4: 3e a7 8c 23 sb	a0, 1016(a5)
0x800055c8: 00 00 80 67 jalr	zero, 0(ra)
0x80005a0c: 00 01 27 83 lw	a5, 0(sp)
0x80005a10: 00 41 27 03 lw	a4, 4(sp)
0x80005a14: 00 14 84 93 addi	s1, s1, 1
0x80005a18: 40 f4 87 b3 sub	a5, s1, a5
0x80005a1c: 00 f7 07 b3 add	a5, a4, a5
0x80005a20: 00 07 c5 03 lbu	a0, 0(a5)
0x80005a24: fe 05 12 e3 bne	a0, zero, 0x80005a08
0x80005a08: bb 9f f0 ef jal	ra, 0x800055c0
0x800055c0: a0 00 07 b7 lui	a5, 655360
0x800055c4: 3e a7 8c 23 sb	a0, 1016(a5)
0x800055c8: 00 00 80 67 jalr	zero, 0(ra)
0x80005a0c: 00 01 27 83 lw	a5, 0(sp)
0x80005a10: 00 41 27 03 lw	a4, 4(sp)
0x80005a14: 00 14 84 93 addi	s1, s1, 1
0x80005a18: 40 f4 87 b3 sub	a5, s1, a5
0x80005a1c: 00 f7 07 b3 add	a5, a4, a5
0x80005a20: 00 07 c5 03 lbu	a0, 0(a5)
0x80005a24: fe 05 12 e3 bne	a0, zero, 0x80005a08
0x80005a08: bb 9f f0 ef jal	ra, 0x800055c0
0x800055c0: a0 00 07 b7 lui	a5, 655360
0x800055c4: 3e a7 8c 23 sb	a0, 1016(a5)
0x800055c8: 00 00 80 67 jalr	zero, 0(ra)
0x80005a0c: 00 01 27 83 lw	a5, 0(sp)
0x80005a10: 00 41 27 03 lw	a4, 4(sp)
0x80005a14: 00 14 84 93 addi	s1, s1, 1
0x80005a18: 40 f4 87 b3 sub	a5, s1, a5
0x80005a1c: 00 f7 07 b3 add	a5, a4, a5
0x80005a20: 00 07 c5 03 lbu	a0, 0(a5)
0x80005a24: fe 05 12 e3 bne	a0, zero, 0x80005a08
0x80005a28: 00 91 20 23 sw	s1, 0(sp)
0x80005a2c: ef df f0 6f jal	zero, 0x80005928
0x80005928: 00 14 45 03 lbu	a0, 1(s0)
0x8000592c: 00 14 03 13 addi	t1, s0, 1
0x80005930: 0a 05 00 63 beq	a0, zero, 0x800059d0
0x80005934: 02 50 07 93 addi	a5, zero, 37
0x80005938: fc f5 1a e3 bne	a0, a5, 0x8000590c
0x8000590c: 00 61 22 23 sw	t1, 4(sp)
0x80005910: cb 1f f0 ef jal	ra, 0x800055c0
0x800055c0: a0 00 07 b7 lui	a5, 655360
0x800055c4: 3e a7 8c 23 sb	a0, 1016(a5)
0x800055c8: 00 00 80 67 jalr	zero, 0(ra)
0x80005914: 00 01 27 83 lw	a5, 0(sp)
0x80005918: 00 41 23 03 lw	t1, 4(sp)
0x8000591c: 00 17 87 93 addi	a5, a5, 1
0x80005920: 00 f1 20 23 sw	a5, 0(sp)
0x80005924: 00 03 04 13 addi	s0, t1, 0
0x80005928: 00 14 45 03 lbu	a0, 1(s0)
0x8000592c: 00 14 03 13 addi	t1, s0, 1
0x80005930: 0a 05 00 63 beq	a0, zero, 0x800059d0
0x80005934: 02 50 07 93 addi	a5, zero, 37
0x80005938: fc f5 1a e3 bne	a0, a5, 0x8000590c
0x8000590c: 00 61 22 23 sw	t1, 4(sp)
0x80005910: cb 1f f0 ef jal	ra, 0x800055c0
0x800055c0: a0 00 07 b7 lui	a5, 655360
0x800055c4: 3e a7 8c 23 sb	a0, 1016(a5)
0x800055c8: 00 00 80 67 jalr	zero, 0(ra)
0x80005914: 00 01 27 83 lw	a5, 0(sp)
0x80005918: 00 41 23 03 lw	t1, 4(sp)
0x8000591c: 00 17 87 93 addi	a5, a5, 1
0x80005920: 00 f1 20 23 sw	a5, 0(sp)
0x80005924: 00 03 04 13 addi	s0, t1, 0
0x80005928: 00 14 45 03 lbu	a0, 1(s0)
0x8000592c: 00 14 03 13 addi	t1, s0, 1
0x80005930: 0a 05 00 63 beq	a0, zero, 0x800059d0
0x80005934: 02 50 07 93 addi	a5, zero, 37
0x80005938: fc f5 1a e3 bne	a0, a5, 0x8000590c
0x8000593c: 00 13 45 83 lbu	a1, 1(t1)
0x80005940: 03 00 07 93 addi	a5, zero, 48
0x80005944: 00 13 04 13 addi	s0, t1, 1
0x80005948: 02 00 04 93 addi	s1, zero, 32
0x8000594c: 00 f5 98 63 bne	a1, a5, 0x8000595c
0x8000595c: fd 05 86 93 addi	a3, a1, -48
0x80005960: 0f f6 f3 13 andi	t1, a3, 255
0x80005964: 00 90 07 93 addi	a5, zero, 9
0x80005968: 00 00 06 13 addi	a2, zero, 0
0x8000596c: 00 90 05 13 addi	a0, zero, 9
0x80005970: 02 67 e4 63 bltu	a5, t1, 0x80005998
0x80005998: 06 40 07 93 addi	a5, zero, 100
0x8000599c: 08 f5 8a 63 beq	a1, a5, 0x80005a30
0x800059a0: 07 30 07 93 addi	a5, zero, 115
0x800059a4: 04 f5 82 63 beq	a1, a5, 0x800059e8
0x800059e8: 01 41 27 83 lw	a5, 20(sp)
0x800059ec: 00 07 a7 03 lw	a4, 0(a5)
0x800059f0: 00 47 87 93 addi	a5, a5, 4
0x800059f4: 00 f1 2a 23 sw	a5, 20(sp)
0x800059f8: 00 07 45 03 lbu	a0, 0(a4)
0x800059fc: 00 e1 22 23 sw	a4, 4(sp)
0x80005a00: f2 05 04 e3 beq	a0, zero, 0x80005928
0x80005a04: 00 01 24 83 lw	s1, 0(sp)
0x80005a08: bb 9f f0 ef jal	ra, 0x800055c0
0x800055c0: a0 00 07 b7 lui	a5, 655360
0x800055c4: 3e a7 8c 23 sb	a0, 1016(a5)
0x800055c8: 00 00 80 67 jalr	zero, 0(ra)
0x80005a0c: 00 01 27 83 lw	a5, 0(sp)
0x80005a10: 00 41 27 03 lw	a4, 4(sp)
0x80005a14: 00 14 84 93 addi	s1, s1, 1
0x80005a18: 40 f4 87 b3 sub	a5, s1, a5
0x80005a1c: 00 f7 07 b3 add	a5, a4, a5
0x80005a20: 00 07 c5 03 lbu	a0, 0(a5)
0x80005a24: fe 05 12 e3 bne	a0, zero, 0x80005a08
0x80005a08: bb 9f f0 ef jal	ra, 0x800055c0
0x800055c0: a0 00 07 b7 lui	a5, 655360
0x800055c4: 3e a7 8c 23 sb	a0, 1016(a5)
0x800055c8: 00 00 80 67 jalr	zero, 0(ra)
0x80005a0c: 00 01 27 83 lw	a5, 0(sp)
0x80005a10: 00 41 27 03 lw	a4, 4(sp)
0x80005a14: 00 14 84 93 addi	s1, s1, 1
0x80005a18: 40 f4 87 b3 sub	a5, s1, a5
0x80005a1c: 00 f7 07 b3 add	a5, a4, a5
0x80005a20: 00 07 c5 03 lbu	a0, 0(a5)
0x80005a24: fe 05 12 e3 bne	a0, zero, 0x80005a08
0x80005a08: bb 9f f0 ef jal	ra, 0x800055c0
0x800055c0: a0 00 07 b7 lui	a5, 655360
0x800055c4: 3e a7 8c 23 sb	a0, 1016(a5)
0x800055c8: 00 00 80 67 jalr	zero, 0(ra)
0x80005a0c: 00 01 27 83 lw	a5, 0(sp)
0x80005a10: 00 41 27 03 lw	a4, 4(sp)
0x80005a14: 00 14 84 93 addi	s1, s1, 1
0x80005a18: 40 f4 87 b3 sub	a5, s1, a5
0x80005a1c: 00 f7 07 b3 add	a5, a4, a5
0x80005a20: 00 07 c5 03 lbu	a0, 0(a5)
0x80005a24: fe 05 12 e3 bne	a0, zero, 0x80005a08
0x80005a08: bb 9f f0 ef jal	ra, 0x800055c0
0x800055c0: a0 00 07 b7 lui	a5, 655360
0x800055c4: 3e a7 8c 23 sb	a0, 1016(a5)
0x800055c8: 00 00 80 67 jalr	zero, 0(ra)
0x80005a0c: 00 01 27 83 lw	a5, 0(sp)
0x80005a10: 00 41 27 03 lw	a4, 4(sp)
0x80005a14: 00 14 84 93 addi	s1, s1, 1
0x80005a18: 40 f4 87 b3 sub	a5, s1, a5
0x80005a1c: 00 f7 07 b3 add	a5, a4, a5
0x80005a20: 00 07 c5 03 lbu	a0, 0(a5)
0x80005a24: fe 05 12 e3 bne	a0, zero, 0x80005a08
0x80005a08: bb 9f f0 ef jal	ra, 0x800055c0
0x800055c0: a0 00 07 b7 lui	a5, 655360
0x800055c4: 3e a7 8c 23 sb	a0, 1016(a5)
0x800055c8: 00 00 80 67 jalr	zero, 0(ra)
0x80005a0c: 00 01 27 83 lw	a5, 0(sp)
0x80005a10: 00 41 27 03 lw	a4, 4(sp)
0x80005a14: 00 14 84 93 addi	s1, s1, 1
0x80005a18: 40 f4 87 b3 sub	a5, s1, a5
0x80005a1c: 00 f7 07 b3 add	a5, a4, a5
0x80005a20: 00 07 c5 03 lbu	a0, 0(a5)
0x80005a24: fe 05 12 e3 bne	a0, zero, 0x80005a08
0x80005a08: bb 9f f0 ef jal	ra, 0x800055c0
0x800055c0: a0 00 07 b7 lui	a5, 655360
0x800055c4: 3e a7 8c 23 sb	a0, 1016(a5)
0x800055c8: 00 00 80 67 jalr	zero, 0(ra)
0x80005a0c: 00 01 27 83 lw	a5, 0(sp)
0x80005a10: 00 41 27 03 lw	a4, 4(sp)
0x80005a14: 00 14 84 93 addi	s1, s1, 1
0x80005a18: 40 f4 87 b3 sub	a5, s1, a5
0x80005a1c: 00 f7 07 b3 add	a5, a4, a5
0x80005a20: 00 07 c5 03 lbu	a0, 0(a5)
0x80005a24: fe 05 12 e3 bne	a0, zero, 0x80005a08
0x80005a08: bb 9f f0 ef jal	ra, 0x800055c0
0x800055c0: a0 00 07 b7 lui	a5, 655360
0x800055c4: 3e a7 8c 23 sb	a0, 1016(a5)
0x800055c8: 00 00 80 67 jalr	zero, 0(ra)
0x80005a0c: 00 01 27 83 lw	a5, 0(sp)
0x80005a10: 00 41 27 03 lw	a4, 4(sp)
0x80005a14: 00 14 84 93 addi	s1, s1, 1
0x80005a18: 40 f4 87 b3 sub	a5, s1, a5
0x80005a1c: 00 f7 07 b3 add	a5, a4, a5
0x80005a20: 00 07 c5 03 lbu	a0, 0(a5)
0x80005a24: fe 05 12 e3 bne	a0, zero, 0x80005a08
0x80005a08: bb 9f f0 ef jal	ra, 0x800055c0
0x800055c0: a0 00 07 b7 lui	a5, 655360
0x800055c4: 3e a7 8c 23 sb	a0, 1016(a5)
0x800055c8: 00 00 80 67 jalr	zero, 0(ra)
0x80005a0c: 00 01 27 83 lw	a5, 0(sp)
0x80005a10: 00 41 27 03 lw	a4, 4(sp)
0x80005a14: 00 14 84 93 addi	s1, s1, 1
0x80005a18: 40 f4 87 b3 sub	a5, s1, a5
0x80005a1c: 00 f7 07 b3 add	a5, a4, a5
0x80005a20: 00 07 c5 03 lbu	a0, 0(a5)
0x80005a24: fe 05 12 e3 bne	a0, zero, 0x80005a08
0x80005a08: bb 9f f0 ef jal	ra, 0x800055c0
0x800055c0: a0 00 07 b7 lui	a5, 655360
0x800055c4: 3e a7 8c 23 sb	a0, 1016(a5)
0x800055c8: 00 00 80 67 jalr	zero, 0(ra)
0x80005a0c: 00 01 27 83 lw	a5, 0(sp)
0x80005a10: 00 41 27 03 lw	a4, 4(sp)
0x80005a14: 00 14 84 93 addi	s1, s1, 1
0x80005a18: 40 f4 87 b3 sub	a5, s1, a5
0x80005a1c: 00 f7 07 b3 add	a5, a4, a5
0x80005a20: 00 07 c5 03 lbu	a0, 0(a5)
0x80005a24: fe 05 12 e3 bne	a0, zero, 0x80005a08
0x80005a08: bb 9f f0 ef jal	ra, 0x800055c0
0x800055c0: a0 00 07 b7 lui	a5, 655360
0x800055c4: 3e a7 8c 23 sb	a0, 1016(a5)
0x800055c8: 00 00 80 67 jalr	zero, 0(ra)
0x80005a0c: 00 01 27 83 lw	a5, 0(sp)
0x80005a10: 00 41 27 03 lw	a4, 4(sp)
0x80005a14: 00 14 84 93 addi	s1, s1, 1
0x80005a18: 40 f4 87 b3 sub	a5, s1, a5
0x80005a1c: 00 f7 07 b3 add	a5, a4, a5
0x80005a20: 00 07 c5 03 lbu	a0, 0(a5)
0x80005a24: fe 05 12 e3 bne	a0, zero, 0x80005a08
0x80005a28: 00 91 20 23 sw	s1, 0(sp)
0x80005a2c: ef df f0 6f jal	zero, 0x80005928
0x80005928: 00 14 45 03 lbu	a0, 1(s0)
0x8000592c: 00 14 03 13 addi	t1, s0, 1
0x80005930: 0a 05 00 63 beq	a0, zero, 0x800059d0
0x80005934: 02 50 07 93 addi	a5, zero, 37
0x80005938: fc f5 1a e3 bne	a0, a5, 0x8000590c
0x8000590c: 00 61 22 23 sw	t1, 4(sp)
0x80005910: cb 1f f0 ef jal	ra, 0x800055c0
0x800055c0: a0 00 07 b7 lui	a5, 655360
0x800055c4: 3e a7 8c 23 sb	a0, 1016(a5)
0x800055c8: 00 00 80 67 jalr	zero, 0(ra)
0x80005914: 00 01 27 83 lw	a5, 0(sp)
0x80005918: 00 41 23 03 lw	t1, 4(sp)
0x8000591c: 00 17 87 93 addi	a5, a5, 1
0x80005920: 00 f1 20 23 sw	a5, 0(sp)
0x80005924: 00 03 04 13 addi	s0, t1, 0
0x80005928: 00 14 45 03 lbu	a0, 1(s0)
0x8000592c: 00 14 03 13 addi	t1, s0, 1
0x80005930: 0a 05 00 63 beq	a0, zero, 0x800059d0
0x80005934: 02 50 07 93 addi	a5, zero, 37
0x80005938: fc f5 1a e3 bne	a0, a5, 0x8000590c
0x8000590c: 00 61 22 23 sw	t1, 4(sp)
0x80005910: cb 1f f0 ef jal	ra, 0x800055c0
0x800055c0: a0 00 07 b7 lui	a5, 655360
0x800055c4: 3e a7 8c 23 sb	a0, 1016(a5)
0x800055c8: 00 00 80 67 jalr	zero, 0(ra)
0x80005914: 00 01 27 83 lw	a5, 0(sp)
0x80005918: 00 41 23 03 lw	t1, 4(sp)
0x8000591c: 00 17 87 93 addi	a5, a5, 1
0x80005920: 00 f1 20 23 sw	a5, 0(sp)
0x80005924: 00 03 04 13 addi	s0, t1, 0
0x80005928: 00 14 45 03 lbu	a0, 1(s0)
0x8000592c: 00 14 03 13 addi	t1, s0, 1
0x80005930: 0a 05 00 63 beq	a0, zero, 0x800059d0
0x800059d0: 40 81 20 83 lw	ra, 1032(sp)
0x800059d4: 40 41 24 03 lw	s0, 1028(sp)
0x800059d8: 00 01 25 03 lw	a0, 0(sp)
0x800059dc: 40 01 24 83 lw	s1, 1024(sp)
0x800059e0: 42 01 01 13 addi	sp, sp, 1056
0x800059e4: 00 00 80 67 jalr	zero, 0(ra)
0x80001020: 00 00 65 17 auipc	a0, 6
0x80001024: 2c 05 05 13 addi	a0, a0, 704
0x80001028: 00 05 26 83 lw	a3, 0(a0)
0x8000102c: 00 04 27 03 lw	a4, 0(s0)
0x80001030: 00 00 67 97 auipc	a5, 6
0x80001034: 2b 47 87 93 addi	a5, a5, 692
0x80001038: 00 06 a6 83 lw	a3, 0(a3)
0x8000103c: 00 77 07 13 addi	a4, a4, 7
0x80001040: ff 87 77 13 andi	a4, a4, -8
0x80001044: 00 e7 a0 23 sw	a4, 0(a5)
0x80001048: 00 06 80 e7 jalr	ra, 0(a3)
0x80003348: ff 41 01 13 addi	sp, sp, -12
0x8000334c: 00 10 05 13 addi	a0, zero, 1
0x80003350: 00 11 24 23 sw	ra, 8(sp)
0x80003354: 00 81 22 23 sw	s0, 4(sp)
0x80003358: 00 91 20 23 sw	s1, 0(sp)
0x8000335c: 8f 0f e0 ef jal	ra, 0x8000144c
0x8000144c: 01 15 15 13 slli	a0, a0, 17
0x80001450: 01 15 55 13 srli	a0, a0, 17
0x80001454: 00 00 67 97 auipc	a5, 6
0x80001458: b0 a7 ae 23 sw	a0, -1252(a5)
0x8000145c: 00 00 80 67 jalr	zero, 0(ra)
0x80003360: 00 00 47 97 auipc	a5, 4
0x80003364: f8 87 a7 83 lw	a5, -120(a5)
0x80003368: 00 07 a7 83 lw	a5, 0(a5)
0x8000336c: 00 00 46 97 auipc	a3, 4
0x80003370: f9 86 86 93 addi	a3, a3, -104
0x80003374: 00 27 95 13 slli	a0, a5, 2
0x80003378: 00 f6 a0 23 sw	a5, 0(a3)
0x8000337c: 82 8f e0 ef jal	ra, 0x800013a4
0x800013a4: 00 00 65 97 auipc	a1, 6
0x800013a8: f4 05 85 93 addi	a1, a1, -192
0x800013ac: 00 05 a6 83 lw	a3, 0(a1)
0x800013b0: 00 75 07 13 addi	a4, a0, 7
0x800013b4: 00 00 67 97 auipc	a5, 6
0x800013b8: cc 07 87 93 addi	a5, a5, -832
0x800013bc: ff 41 01 13 addi	sp, sp, -12
0x800013c0: ff 87 77 13 andi	a4, a4, -8
0x800013c4: 00 07 a6 03 lw	a2, 0(a5)
0x800013c8: 00 11 24 23 sw	ra, 8(sp)
0x800013cc: 00 e6 87 33 add	a4, a3, a4
0x800013d0: 00 e5 a0 23 sw	a4, 0(a1)
0x800013d4: 04 c7 68 63 bltu	a4, a2, 0x80001424
0x800013d8: 00 47 a7 83 lw	a5, 4(a5)
0x800013dc: 04 f7 74 63 bgeu	a4, a5, 0x80001424
0x800013e0: 00 06 87 93 addi	a5, a3, 0
0x800013e4: 00 d7 0e 63 beq	a4, a3, 0x80001400
0x800013e8: 00 00 05 13 addi	a0, zero, 0
0x800013ec: 00 00 05 93 addi	a1, zero, 0
0x800013f0: 00 a7 a0 23 sw	a0, 0(a5)
0x800013f4: 00 b7 a2 23 sw	a1, 4(a5)
0x800013f8: 00 87 87 93 addi	a5, a5, 8
0x800013fc: fe f7 16 e3 bne	a4, a5, 0x800013e8
0x800013e8: 00 00 05 13 addi	a0, zero, 0
0x800013ec: 00 00 05 93 addi	a1, zero, 0
0x800013f0: 00 a7 a0 23 sw	a0, 0(a5)
0x800013f4: 00 b7 a2 23 sw	a1, 4(a5)
0x800013f8: 00 87 87 93 addi	a5, a5, 8
0x800013fc: fe f7 16 e3 bne	a4, a5, 0x800013e8
0x800013e8: 00 00 05 13 addi	a0, zero, 0
0x800013ec: 00 00 05 93 addi	a1, zero, 0
0x800013f0: 00 a7 a0 23 sw	a0, 0(a5)
0x800013f4: 00 b7 a2 23 sw	a1, 4(a5)
0x800013f8: 00 87 87 93 addi	a5, a5, 8
0x800013fc: fe f7 16 e3 bne	a4, a5, 0x800013e8
0x800013e8: 00 00 05 13 addi	a0, zero, 0
0x800013ec: 00 00 05 93 addi	a1, zero, 0
0x800013f0: 00 a7 a0 23 sw	a0, 0(a5)
0x800013f4: 00 b7 a2 23 sw	a1, 4(a5)
0x800013f8: 00 87 87 93 addi	a5, a5, 8
0x800013fc: fe f7 16 e3 bne	a4, a5, 0x800013e8
0x800013e8: 00 00 05 13 addi	a0, zero, 0
0x800013ec: 00 00 05 93 addi	a1, zero, 0
0x800013f0: 00 a7 a0 23 sw	a0, 0(a5)
0x800013f4: 00 b7 a2 23 sw	a1, 4(a5)
0x800013f8: 00 87 87 93 addi	a5, a5, 8
0x800013fc: fe f7 16 e3 bne	a4, a5, 0x800013e8
0x800013e8: 00 00 05 13 addi	a0, zero, 0
0x800013ec: 00 00 05 93 addi	a1, zero, 0
0x800013f0: 00 a7 a0 23 sw	a0, 0(a5)
0x800013f4: 00 b7 a2 23 sw	a1, 4(a5)
0x800013f8: 00 87 87 93 addi	a5, a5, 8
0x800013fc: fe f7 16 e3 bne	a4, a5, 0x800013e8
0x800013e8: 00 00 05 13 addi	a0, zero, 0
0x800013ec: 00 00 05 93 addi	a1, zero, 0
0x800013f0: 00 a7 a0 23 sw	a0, 0(a5)
0x800013f4: 00 b7 a2 23 sw	a1, 4(a5)
0x800013f8: 00 87 87 93 addi	a5, a5, 8
0x800013fc: fe f7 16 e3 bne	a4, a5, 0x800013e8
0x800013e8: 00 00 05 13 addi	a0, zero, 0
0x800013ec: 00 00 05 93 addi	a1, zero, 0
0x800013f0: 00 a7 a0 23 sw	a0, 0(a5)
0x800013f4: 00 b7 a2 23 sw	a1, 4(a5)
0x800013f8: 00 87 87 93 addi	a5, a5, 8
0x800013fc: fe f7 16 e3 bne	a4, a5, 0x800013e8
0x800013e8: 00 00 05 13 addi	a0, zero, 0
0x800013ec: 00 00 05 93 addi	a1, zero, 0
0x800013f0: 00 a7 a0 23 sw	a0, 0(a5)
0x800013f4: 00 b7 a2 23 sw	a1, 4(a5)
0x800013f8: 00 87 87 93 addi	a5, a5, 8
0x800013fc: fe f7 16 e3 bne	a4, a5, 0x800013e8
0x800013e8: 00 00 05 13 addi	a0, zero, 0
0x800013ec: 00 00 05 93 addi	a1, zero, 0
0x800013f0: 00 a7 a0 23 sw	a0, 0(a5)
0x800013f4: 00 b7 a2 23 sw	a1, 4(a5)
0x800013f8: 00 87 87 93 addi	a5, a5, 8
0x800013fc: fe f7 16 e3 bne	a4, a5, 0x800013e8
0x800013e8: 00 00 05 13 addi	a0, zero, 0
0x800013ec: 00 00 05 93 addi	a1, zero, 0
0x800013f0: 00 a7 a0 23 sw	a0, 0(a5)
0x800013f4: 00 b7 a2 23 sw	a1, 4(a5)
0x800013f8: 00 87 87 93 addi	a5, a5, 8
0x800013fc: fe f7 16 e3 bne	a4, a5, 0x800013e8
0x800013e8: 00 00 05 13 addi	a0, zero, 0
0x800013ec: 00 00 05 93 addi	a1, zero, 0
0x800013f0: 00 a7 a0 23 sw	a0, 0(a5)
0x800013f4: 00 b7 a2 23 sw	a1, 4(a5)
0x800013f8: 00 87 87 93 addi	a5, a5, 8
0x800013fc: fe f7 16 e3 bne	a4, a5, 0x800013e8
0x800013e8: 00 00 05 13 addi	a0, zero, 0
0x800013ec: 00 00 05 93 addi	a1, zero, 0
0x800013f0: 00 a7 a0 23 sw	a0, 0(a5)
0x800013f4: 00 b7 a2 23 sw	a1, 4(a5)
0x800013f8: 00 87 87 93 addi	a5, a5, 8
0x800013fc: fe f7 16 e3 bne	a4, a5, 0x800013e8
0x800013e8: 00 00 05 13 addi	a0, zero, 0
0x800013ec: 00 00 05 93 addi	a1, zero, 0
0x800013f0: 00 a7 a0 23 sw	a0, 0(a5)
0x800013f4: 00 b7 a2 23 sw	a1, 4(a5)
0x800013f8: 00 87 87 93 addi	a5, a5, 8
0x800013fc: fe f7 16 e3 bne	a4, a5, 0x800013e8
0x800013e8: 00 00 05 13 addi	a0, zero, 0
0x800013ec: 00 00 05 93 addi	a1, zero, 0
0x800013f0: 00 a7 a0 23 sw	a0, 0(a5)
0x800013f4: 00 b7 a2 23 sw	a1, 4(a5)
0x800013f8: 00 87 87 93 addi	a5, a5, 8
0x800013fc: fe f7 16 e3 bne	a4, a5, 0x800013e8
0x800013e8: 00 00 05 13 addi	a0, zero, 0
0x800013ec: 00 00 05 93 addi	a1, zero, 0
0x800013f0: 00 a7 a0 23 sw	a0, 0(a5)
0x800013f4: 00 b7 a2 23 sw	a1, 4(a5)
0x800013f8: 00 87 87 93 addi	a5, a5, 8
0x800013fc: fe f7 16 e3 bne	a4, a5, 0x800013e8
0x800013e8: 00 00 05 13 addi	a0, zero, 0
0x800013ec: 00 00 05 93 addi	a1, zero, 0
0x800013f0: 00 a7 a0 23 sw	a0, 0(a5)
0x800013f4: 00 b7 a2 23 sw	a1, 4(a5)
0x800013f8: 00 87 87 93 addi	a5, a5, 8
0x800013fc: fe f7 16 e3 bne	a4, a5, 0x800013e8
0x800013e8: 00 00 05 13 addi	a0, zero, 0
0x800013ec: 00 00 05 93 addi	a1, zero, 0
0x800013f0: 00 a7 a0 23 sw	a0, 0(a5)
0x800013f4: 00 b7 a2 23 sw	a1, 4(a5)
0x800013f8: 00 87 87 93 addi	a5, a5, 8
0x800013fc: fe f7 16 e3 bne	a4, a5, 0x800013e8
0x800013e8: 00 00 05 13 addi	a0, zero, 0
0x800013ec: 00 00 05 93 addi	a1, zero, 0
0x800013f0: 00 a7 a0 23 sw	a0, 0(a5)
0x800013f4: 00 b7 a2 23 sw	a1, 4(a5)
0x800013f8: 00 87 87 93 addi	a5, a5, 8
0x800013fc: fe f7 16 e3 bne	a4, a5, 0x800013e8
0x800013e8: 00 00 05 13 addi	a0, zero, 0
0x800013ec: 00 00 05 93 addi	a1, zero, 0
0x800013f0: 00 a7 a0 23 sw	a0, 0(a5)
0x800013f4: 00 b7 a2 23 sw	a1, 4(a5)
0x800013f8: 00 87 87 93 addi	a5, a5, 8
0x800013fc: fe f7 16 e3 bne	a4, a5, 0x800013e8
0x800013e8: 00 00 05 13 addi	a0, zero, 0
0x800013ec: 00 00 05 93 addi	a1, zero, 0
0x800013f0: 00 a7 a0 23 sw	a0, 0(a5)
0x800013f4: 00 b7 a2 23 sw	a1, 4(a5)
0x800013f8: 00 87 87 93 addi	a5, a5, 8
0x800013fc: fe f7 16 e3 bne	a4, a5, 0x800013e8
0x800013e8: 00 00 05 13 addi	a0, zero, 0
0x800013ec: 00 00 05 93 addi	a1, zero, 0
0x800013f0: 00 a7 a0 23 sw	a0, 0(a5)
0x800013f4: 00 b7 a2 23 sw	a1, 4(a5)
0x800013f8: 00 87 87 93 addi	a5, a5, 8
0x800013fc: fe f7 16 e3 bne	a4, a5, 0x800013e8
0x800013e8: 00 00 05 13 addi	a0, zero, 0
0x800013ec: 00 00 05 93 addi	a1, zero, 0
0x800013f0: 00 a7 a0 23 sw	a0, 0(a5)
0x800013f4: 00 b7 a2 23 sw	a1, 4(a5)
0x800013f8: 00 87 87 93 addi	a5, a5, 8
0x800013fc: fe f7 16 e3 bne	a4, a5, 0x800013e8
0x800013e8: 00 00 05 13 addi	a0, zero, 0
0x800013ec: 00 00 05 93 addi	a1, zero, 0
0x800013f0: 00 a7 a0 23 sw	a0, 0(a5)
0x800013f4: 00 b7 a2 23 sw	a1, 4(a5)
0x800013f8: 00 87 87 93 addi	a5, a5, 8
0x800013fc: fe f7 16 e3 bne	a4, a5, 0x800013e8
0x800013e8: 00 00 05 13 addi	a0, zero, 0
0x800013ec: 00 00 05 93 addi	a1, zero, 0
0x800013f0: 00 a7 a0 23 sw	a0, 0(a5)
0x800013f4: 00 b7 a2 23 sw	a1, 4(a5)
0x800013f8: 00 87 87 93 addi	a5, a5, 8
0x800013fc: fe f7 16 e3 bne	a4, a5, 0x800013e8
0x800013e8: 00 00 05 13 addi	a0, zero, 0
0x800013ec: 00 00 05 93 addi	a1, zero, 0
0x800013f0: 00 a7 a0 23 sw	a0, 0(a5)
0x800013f4: 00 b7 a2 23 sw	a1, 4(a5)
0x800013f8: 00 87 87 93 addi	a5, a5, 8
0x800013fc: fe f7 16 e3 bne	a4, a5, 0x800013e8
0x800013e8: 00 00 05 13 addi	a0, zero, 0
0x800013ec: 00 00 05 93 addi	a1, zero, 0
0x800013f0: 00 a7 a0 23 sw	a0, 0(a5)
0x800013f4: 00 b7 a2 23 sw	a1, 4(a5)
0x800013f8: 00 87 87 93 addi	a5, a5, 8
0x800013fc: fe f7 16 e3 bne	a4, a5, 0x800013e8
0x800013e8: 00 00 05 13 addi	a0, zero, 0
0x800013ec: 00 00 05 93 addi	a1, zero, 0
0x800013f0: 00 a7 a0 23 sw	a0, 0(a5)
0x800013f4: 00 b7 a2 23 sw	a1, 4(a5)
0x800013f8: 00 87 87 93 addi	a5, a5, 8
0x800013fc: fe f7 16 e3 bne	a4, a5, 0x800013e8
0x800013e8: 00 00 05 13 addi	a0, zero, 0
0x800013ec: 00 00 05 93 addi	a1, zero, 0
0x800013f0: 00 a7 a0 23 sw	a0, 0(a5)
0x800013f4: 00 b7 a2 23 sw	a1, 4(a5)
0x800013f8: 00 87 87 93 addi	a5, a5, 8
0x800013fc: fe f7 16 e3 bne	a4, a5, 0x800013e8
0x800013e8: 00 00 05 13 addi	a0, zero, 0
0x800013ec: 00 00 05 93 addi	a1, zero, 0
0x800013f0: 00 a7 a0 23 sw	a0, 0(a5)
0x800013f4: 00 b7 a2 23 sw	a1, 4(a5)
0x800013f8: 00 87 87 93 addi	a5, a5, 8
0x800013fc: fe f7 16 e3 bne	a4, a5, 0x800013e8
0x800013e8: 00 00 05 13 addi	a0, zero, 0
0x800013ec: 00 00 05 93 addi	a1, zero, 0
0x800013f0: 00 a7 a0 23 sw	a0, 0(a5)
0x800013f4: 00 b7 a2 23 sw	a1, 4(a5)
0x800013f8: 00 87 87 93 addi	a5, a5, 8
0x800013fc: fe f7 16 e3 bne	a4, a5, 0x800013e8
0x800013e8: 00 00 05 13 addi	a0, zero, 0
0x800013ec: 00 00 05 93 addi	a1, zero, 0
0x800013f0: 00 a7 a0 23 sw	a0, 0(a5)
0x800013f4: 00 b7 a2 23 sw	a1, 4(a5)
0x800013f8: 00 87 87 93 addi	a5, a5, 8
0x800013fc: fe f7 16 e3 bne	a4, a5, 0x800013e8
0x800013e8: 00 00 05 13 addi	a0, zero, 0
0x800013ec: 00 00 05 93 addi	a1, zero, 0
0x800013f0: 00 a7 a0 23 sw	a0, 0(a5)
0x800013f4: 00 b7 a2 23 sw	a1, 4(a5)
0x800013f8: 00 87 87 93 addi	a5, a5, 8
0x800013fc: fe f7 16 e3 bne	a4, a5, 0x800013e8
0x800013e8: 00 00 05 13 addi	a0, zero, 0
0x800013ec: 00 00 05 93 addi	a1, zero, 0
0x800013f0: 00 a7 a0 23 sw	a0, 0(a5)
0x800013f4: 00 b7 a2 23 sw	a1, 4(a5)
0x800013f8: 00 87 87 93 addi	a5, a5, 8
0x800013fc: fe f7 16 e3 bne	a4, a5, 0x800013e8
0x800013e8: 00 00 05 13 addi	a0, zero, 0
0x800013ec: 00 00 05 93 addi	a1, zero, 0
0x800013f0: 00 a7 a0 23 sw	a0, 0(a5)
0x800013f4: 00 b7 a2 23 sw	a1, 4(a5)
0x800013f8: 00 87 87 93 addi	a5, a5, 8
0x800013fc: fe f7 16 e3 bne	a4, a5, 0x800013e8
0x800013e8: 00 00 05 13 addi	a0, zero, 0
0x800013ec: 00 00 05 93 addi	a1, zero, 0
0x800013f0: 00 a7 a0 23 sw	a0, 0(a5)
0x800013f4: 00 b7 a2 23 sw	a1, 4(a5)
0x800013f8: 00 87 87 93 addi	a5, a5, 8
0x800013fc: fe f7 16 e3 bne	a4, a5, 0x800013e8
0x800013e8: 00 00 05 13 addi	a0, zero, 0
0x800013ec: 00 00 05 93 addi	a1, zero, 0
0x800013f0: 00 a7 a0 23 sw	a0, 0(a5)
0x800013f4: 00 b7 a2 23 sw	a1, 4(a5)
0x800013f8: 00 87 87 93 addi	a5, a5, 8
0x800013fc: fe f7 16 e3 bne	a4, a5, 0x800013e8
0x800013e8: 00 00 05 13 addi	a0, zero, 0
0x800013ec: 00 00 05 93 addi	a1, zero, 0
0x800013f0: 00 a7 a0 23 sw	a0, 0(a5)
0x800013f4: 00 b7 a2 23 sw	a1, 4(a5)
0x800013f8: 00 87 87 93 addi	a5, a5, 8
0x800013fc: fe f7 16 e3 bne	a4, a5, 0x800013e8
0x800013e8: 00 00 05 13 addi	a0, zero, 0
0x800013ec: 00 00 05 93 addi	a1, zero, 0
0x800013f0: 00 a7 a0 23 sw	a0, 0(a5)
0x800013f4: 00 b7 a2 23 sw	a1, 4(a5)
0x800013f8: 00 87 87 93 addi	a5, a5, 8
0x800013fc: fe f7 16 e3 bne	a4, a5, 0x800013e8
0x800013e8: 00 00 05 13 addi	a0, zero, 0
0x800013ec: 00 00 05 93 addi	a1, zero, 0
0x800013f0: 00 a7 a0 23 sw	a0, 0(a5)
0x800013f4: 00 b7 a2 23 sw	a1, 4(a5)
0x800013f8: 00 87 87 93 addi	a5, a5, 8
0x800013fc: fe f7 16 e3 bne	a4, a5, 0x800013e8
0x800013e8: 00 00 05 13 addi	a0, zero, 0
0x800013ec: 00 00 05 93 addi	a1, zero, 0
0x800013f0: 00 a7 a0 23 sw	a0, 0(a5)
0x800013f4: 00 b7 a2 23 sw	a1, 4(a5)
0x800013f8: 00 87 87 93 addi	a5, a5, 8
0x800013fc: fe f7 16 e3 bne	a4, a5, 0x800013e8
0x800013e8: 00 00 05 13 addi	a0, zero, 0
0x800013ec: 00 00 05 93 addi	a1, zero, 0
0x800013f0: 00 a7 a0 23 sw	a0, 0(a5)
0x800013f4: 00 b7 a2 23 sw	a1, 4(a5)
0x800013f8: 00 87 87 93 addi	a5, a5, 8
0x800013fc: fe f7 16 e3 bne	a4, a5, 0x800013e8
0x800013e8: 00 00 05 13 addi	a0, zero, 0
0x800013ec: 00 00 05 93 addi	a1, zero, 0
0x800013f0: 00 a7 a0 23 sw	a0, 0(a5)
0x800013f4: 00 b7 a2 23 sw	a1, 4(a5)
0x800013f8: 00 87 87 93 addi	a5, a5, 8
0x800013fc: fe f7 16 e3 bne	a4, a5, 0x800013e8
0x800013e8: 00 00 05 13 addi	a0, zero, 0
0x800013ec: 00 00 05 93 addi	a1, zero, 0
0x800013f0: 00 a7 a0 23 sw	a0, 0(a5)
0x800013f4: 00 b7 a2 23 sw	a1, 4(a5)
0x800013f8: 00 87 87 93 addi	a5, a5, 8
0x800013fc: fe f7 16 e3 bne	a4, a5, 0x800013e8
0x800013e8: 00 00 05 13 addi	a0, zero, 0
0x800013ec: 00 00 05 93 addi	a1, zero, 0
0x800013f0: 00 a7 a0 23 sw	a0, 0(a5)
0x800013f4: 00 b7 a2 23 sw	a1, 4(a5)
0x800013f8: 00 87 87 93 addi	a5, a5, 8
0x800013fc: fe f7 16 e3 bne	a4, a5, 0x800013e8
0x800013e8: 00 00 05 13 addi	a0, zero, 0
0x800013ec: 00 00 05 93 addi	a1, zero, 0
0x800013f0: 00 a7 a0 23 sw	a0, 0(a5)
0x800013f4: 00 b7 a2 23 sw	a1, 4(a5)
0x800013f8: 00 87 87 93 addi	a5, a5, 8
0x800013fc: fe f7 16 e3 bne	a4, a5, 0x800013e8
0x800013e8: 00 00 05 13 addi	a0, zero, 0
0x800013ec: 00 00 05 93 addi	a1, zero, 0
0x800013f0: 00 a7 a0 23 sw	a0, 0(a5)
0x800013f4: 00 b7 a2 23 sw	a1, 4(a5)
0x800013f8: 00 87 87 93 addi	a5, a5, 8
0x800013fc: fe f7 16 e3 bne	a4, a5, 0x800013e8
0x800013e8: 00 00 05 13 addi	a0, zero, 0
0x800013ec: 00 00 05 93 addi	a1, zero, 0
0x800013f0: 00 a7 a0 23 sw	a0, 0(a5)
0x800013f4: 00 b7 a2 23 sw	a1, 4(a5)
0x800013f8: 00 87 87 93 addi	a5, a5, 8
0x800013fc: fe f7 16 e3 bne	a4, a5, 0x800013e8
0x800013e8: 00 00 05 13 addi	a0, zero, 0
0x800013ec: 00 00 05 93 addi	a1, zero, 0
0x800013f0: 00 a7 a0 23 sw	a0, 0(a5)
0x800013f4: 00 b7 a2 23 sw	a1, 4(a5)
0x800013f8: 00 87 87 93 addi	a5, a5, 8
0x800013fc: fe f7 16 e3 bne	a4, a5, 0x800013e8
0x800013e8: 00 00 05 13 addi	a0, zero, 0
0x800013ec: 00 00 05 93 addi	a1, zero, 0
0x800013f0: 00 a7 a0 23 sw	a0, 0(a5)
0x800013f4: 00 b7 a2 23 sw	a1, 4(a5)
0x800013f8: 00 87 87 93 addi	a5, a5, 8
0x800013fc: fe f7 16 e3 bne	a4, a5, 0x800013e8
0x80001400: 00 00 67 97 auipc	a5, 6
0x80001404: ee 87 a7 83 lw	a5, -280(a5)
0x80001408: 00 47 a7 83 lw	a5, 4(a5)
0x8000140c: 40 c7 07 33 sub	a4, a4, a2
0x80001410: 02 e7 ea 63 bltu	a5, a4, 0x80001444
0x80001414: 00 81 20 83 lw	ra, 8(sp)
0x80001418: 00 06 85 13 addi	a0, a3, 0
0x8000141c: 00 c1 01 13 addi	sp, sp, 12
0x80001420: 00 00 80 67 jalr	zero, 0(ra)
0x80003380: 00 00 46 97 auipc	a3, 4
0x80003384: f8 46 86 93 addi	a3, a3, -124
0x80003388: 00 06 a7 83 lw	a5, 0(a3)
0x8000338c: 00 00 46 17 auipc	a2, 4
0x80003390: f7 c6 06 13 addi	a2, a2, -132
0x80003394: 00 a6 20 23 sw	a0, 0(a2)
0x80003398: 04 f0 54 63 bge	zero, a5, 0x800033e0
0x8000339c: 00 00 04 93 addi	s1, zero, 0
0x800033a0: 8c 0f e0 ef jal	ra, 0x80001460
0x80001460: 00 00 67 17 auipc	a4, 6
0x80001464: b1 07 07 13 addi	a4, a4, -1264
0x80001468: 00 07 26 83 lw	a3, 0(a4)
0x8000146c: 00 16 97 93 slli	a5, a3, 1
0x80001470: 00 d7 87 b3 add	a5, a5, a3
0x80001474: 00 27 97 93 slli	a5, a5, 2
0x80001478: 00 d7 87 b3 add	a5, a5, a3
0x8000147c: 00 47 97 93 slli	a5, a5, 4
0x80001480: 00 d7 87 b3 add	a5, a5, a3
0x80001484: 00 87 97 93 slli	a5, a5, 8
0x80001488: 40 d7 87 b3 sub	a5, a5, a3
0x8000148c: 00 27 97 93 slli	a5, a5, 2
0x80001490: 00 d7 87 b3 add	a5, a5, a3
0x80001494: 00 26 a6 b7 lui	a3, 618
0x80001498: ec 36 86 93 addi	a3, a3, -317
0x8000149c: 00 d7 87 b3 add	a5, a5, a3
0x800014a0: 00 17 95 13 slli	a0, a5, 1
0x800014a4: 00 f7 20 23 sw	a5, 0(a4)
0x800014a8: 01 15 55 13 srli	a0, a0, 17
0x800014ac: 00 00 80 67 jalr	zero, 0(ra)
0x800033a4: 00 05 04 13 addi	s0, a0, 0
0x800033a8: 8b 8f e0 ef jal	ra, 0x80001460
0x80001460: 00 00 67 17 auipc	a4, 6
0x80001464: b1 07 07 13 addi	a4, a4, -1264
0x80001468: 00 07 26 83 lw	a3, 0(a4)
0x8000146c: 00 16 97 93 slli	a5, a3, 1
0x80001470: 00 d7 87 b3 add	a5, a5, a3
0x80001474: 00 27 97 93 slli	a5, a5, 2
0x80001478: 00 d7 87 b3 add	a5, a5, a3
0x8000147c: 00 47 97 93 slli	a5, a5, 4
0x80001480: 00 d7 87 b3 add	a5, a5, a3
0x80001484: 00 87 97 93 slli	a5, a5, 8
0x80001488: 40 d7 87 b3 sub	a5, a5, a3
0x8000148c: 00 27 97 93 slli	a5, a5, 2
0x80001490: 00 d7 87 b3 add	a5, a5, a3
0x80001494: 00 26 a6 b7 lui	a3, 618
0x80001498: ec 36 86 93 addi	a3, a3, -317
0x8000149c: 00 d7 87 b3 add	a5, a5, a3
0x800014a0: 00 17 95 13 slli	a0, a5, 1
0x800014a4: 00 f7 20 23 sw	a5, 0(a4)
0x800014a8: 01 15 55 13 srli	a0, a0, 17
0x800014ac: 00 00 80 67 jalr	zero, 0(ra)
0x800033ac: 00 00 46 17 auipc	a2, 4
0x800033b0: f5 c6 06 13 addi	a2, a2, -164
0x800033b4: 00 06 27 83 lw	a5, 0(a2)
0x800033b8: 00 00 46 97 auipc	a3, 4
0x800033bc: f4 c6 86 93 addi	a3, a3, -180
0x800033c0: 00 24 95 93 slli	a1, s1, 2
0x800033c4: 01 04 14 13 slli	s0, s0, 16
0x800033c8: 00 06 a7 03 lw	a4, 0(a3)
0x800033cc: 00 b7 87 b3 add	a5, a5, a1
0x800033d0: 00 a4 64 33 or	s0, s0, a0
0x800033d4: 00 87 a0 23 sw	s0, 0(a5)
0x800033d8: 00 14 84 93 addi	s1, s1, 1
0x800033dc: fc e4 c2 e3 blt	s1, a4, 0x800033a0
0x800033a0: 8c 0f e0 ef jal	ra, 0x80001460
0x80001460: 00 00 67 17 auipc	a4, 6
0x80001464: b1 07 07 13 addi	a4, a4, -1264
0x80001468: 00 07 26 83 lw	a3, 0(a4)
0x8000146c: 00 16 97 93 slli	a5, a3, 1
0x80001470: 00 d7 87 b3 add	a5, a5, a3
0x80001474: 00 27 97 93 slli	a5, a5, 2
0x80001478: 00 d7 87 b3 add	a5, a5, a3
0x8000147c: 00 47 97 93 slli	a5, a5, 4
0x80001480: 00 d7 87 b3 add	a5, a5, a3
0x80001484: 00 87 97 93 slli	a5, a5, 8
0x80001488: 40 d7 87 b3 sub	a5, a5, a3
0x8000148c: 00 27 97 93 slli	a5, a5, 2
0x80001490: 00 d7 87 b3 add	a5, a5, a3
0x80001494: 00 26 a6 b7 lui	a3, 618
0x80001498: ec 36 86 93 addi	a3, a3, -317
0x8000149c: 00 d7 87 b3 add	a5, a5, a3
0x800014a0: 00 17 95 13 slli	a0, a5, 1
0x800014a4: 00 f7 20 23 sw	a5, 0(a4)
0x800014a8: 01 15 55 13 srli	a0, a0, 17
0x800014ac: 00 00 80 67 jalr	zero, 0(ra)
0x800033a4: 00 05 04 13 addi	s0, a0, 0
0x800033a8: 8b 8f e0 ef jal	ra, 0x80001460
0x80001460: 00 00 67 17 auipc	a4, 6
0x80001464: b1 07 07 13 addi	a4, a4, -1264
0x80001468: 00 07 26 83 lw	a3, 0(a4)
0x8000146c: 00 16 97 93 slli	a5, a3, 1
0x80001470: 00 d7 87 b3 add	a5, a5, a3
0x80001474: 00 27 97 93 slli	a5, a5, 2
0x80001478: 00 d7 87 b3 add	a5, a5, a3
0x8000147c: 00 47 97 93 slli	a5, a5, 4
0x80001480: 00 d7 87 b3 add	a5, a5, a3
0x80001484: 00 87 97 93 slli	a5, a5, 8
0x80001488: 40 d7 87 b3 sub	a5, a5, a3
0x8000148c: 00 27 97 93 slli	a5, a5, 2
0x80001490: 00 d7 87 b3 add	a5, a5, a3
0x80001494: 00 26 a6 b7 lui	a3, 618
0x80001498: ec 36 86 93 addi	a3, a3, -317
0x8000149c: 00 d7 87 b3 add	a5, a5, a3
0x800014a0: 00 17 95 13 slli	a0, a5, 1
0x800014a4: 00 f7 20 23 sw	a5, 0(a4)
0x800014a8: 01 15 55 13 srli	a0, a0, 17
0x800014ac: 00 00 80 67 jalr	zero, 0(ra)
0x800033ac: 00 00 46 17 auipc	a2, 4
0x800033b0: f5 c6 06 13 addi	a2, a2, -164
0x800033b4: 00 06 27 83 lw	a5, 0(a2)
0x800033b8: 00 00 46 97 auipc	a3, 4
0x800033bc: f4 c6 86 93 addi	a3, a3, -180
0x800033c0: 00 24 95 93 slli	a1, s1, 2
0x800033c4: 01 04 14 13 slli	s0, s0, 16
0x800033c8: 00 06 a7 03 lw	a4, 0(a3)
0x800033cc: 00 b7 87 b3 add	a5, a5, a1
0x800033d0: 00 a4 64 33 or	s0, s0, a0
0x800033d4: 00 87 a0 23 sw	s0, 0(a5)
0x800033d8: 00 14 84 93 addi	s1, s1, 1
0x800033dc: fc e4 c2 e3 blt	s1, a4, 0x800033a0
0x800033a0: 8c 0f e0 ef jal	ra, 0x80001460
0x80001460: 00 00 67 17 auipc	a4, 6
0x80001464: b1 07 07 13 addi	a4, a4, -1264
0x80001468: 00 07 26 83 lw	a3, 0(a4)
0x8000146c: 00 16 97 93 slli	a5, a3, 1
0x80001470: 00 d7 87 b3 add	a5, a5, a3
0x80001474: 00 27 97 93 slli	a5, a5, 2
0x80001478: 00 d7 87 b3 add	a5, a5, a3
0x8000147c: 00 47 97 93 slli	a5, a5, 4
0x80001480: 00 d7 87 b3 add	a5, a5, a3
0x80001484: 00 87 97 93 slli	a5, a5, 8
0x80001488: 40 d7 87 b3 sub	a5, a5, a3
0x8000148c: 00 27 97 93 slli	a5, a5, 2
0x80001490: 00 d7 87 b3 add	a5, a5, a3
0x80001494: 00 26 a6 b7 lui	a3, 618
0x80001498: ec 36 86 93 addi	a3, a3, -317
0x8000149c: 00 d7 87 b3 add	a5, a5, a3
0x800014a0: 00 17 95 13 slli	a0, a5, 1
0x800014a4: 00 f7 20 23 sw	a5, 0(a4)
0x800014a8: 01 15 55 13 srli	a0, a0, 17
0x800014ac: 00 00 80 67 jalr	zero, 0(ra)
0x800033a4: 00 05 04 13 addi	s0, a0, 0
0x800033a8: 8b 8f e0 ef jal	ra, 0x80001460
0x80001460: 00 00 67 17 auipc	a4, 6
0x80001464: b1 07 07 13 addi	a4, a4, -1264
0x80001468: 00 07 26 83 lw	a3, 0(a4)
0x8000146c: 00 16 97 93 slli	a5, a3, 1
0x80001470: 00 d7 87 b3 add	a5, a5, a3
0x80001474: 00 27 97 93 slli	a5, a5, 2
0x80001478: 00 d7 87 b3 add	a5, a5, a3
0x8000147c: 00 47 97 93 slli	a5, a5, 4
0x80001480: 00 d7 87 b3 add	a5, a5, a3
0x80001484: 00 87 97 93 slli	a5, a5, 8
0x80001488: 40 d7 87 b3 sub	a5, a5, a3
0x8000148c: 00 27 97 93 slli	a5, a5, 2
0x80001490: 00 d7 87 b3 add	a5, a5, a3
0x80001494: 00 26 a6 b7 lui	a3, 618
0x80001498: ec 36 86 93 addi	a3, a3, -317
0x8000149c: 00 d7 87 b3 add	a5, a5, a3
0x800014a0: 00 17 95 13 slli	a0, a5, 1
0x800014a4: 00 f7 20 23 sw	a5, 0(a4)
0x800014a8: 01 15 55 13 srli	a0, a0, 17
0x800014ac: 00 00 80 67 jalr	zero, 0(ra)
0x800033ac: 00 00 46 17 auipc	a2, 4
0x800033b0: f5 c6 06 13 addi	a2, a2, -164
0x800033b4: 00 06 27 83 lw	a5, 0(a2)
0x800033b8: 00 00 46 97 auipc	a3, 4
0x800033bc: f4 c6 86 93 addi	a3, a3, -180
0x800033c0: 00 24 95 93 slli	a1, s1, 2
0x800033c4: 01 04 14 13 slli	s0, s0, 16
0x800033c8: 00 06 a7 03 lw	a4, 0(a3)
0x800033cc: 00 b7 87 b3 add	a5, a5, a1
0x800033d0: 00 a4 64 33 or	s0, s0, a0
0x800033d4: 00 87 a0 23 sw	s0, 0(a5)
0x800033d8: 00 14 84 93 addi	s1, s1, 1
0x800033dc: fc e4 c2 e3 blt	s1, a4, 0x800033a0
0x800033a0: 8c 0f e0 ef jal	ra, 0x80001460
0x80001460: 00 00 67 17 auipc	a4, 6
0x80001464: b1 07 07 13 addi	a4, a4, -1264
0x80001468: 00 07 26 83 lw	a3, 0(a4)
0x8000146c: 00 16 97 93 slli	a5, a3, 1
0x80001470: 00 d7 87 b3 add	a5, a5, a3
0x80001474: 00 27 97 93 slli	a5, a5, 2
0x80001478: 00 d7 87 b3 add	a5, a5, a3
0x8000147c: 00 47 97 93 slli	a5, a5, 4
0x80001480: 00 d7 87 b3 add	a5, a5, a3
0x80001484: 00 87 97 93 slli	a5, a5, 8
0x80001488: 40 d7 87 b3 sub	a5, a5, a3
0x8000148c: 00 27 97 93 slli	a5, a5, 2
0x80001490: 00 d7 87 b3 add	a5, a5, a3
0x80001494: 00 26 a6 b7 lui	a3, 618
0x80001498: ec 36 86 93 addi	a3, a3, -317
0x8000149c: 00 d7 87 b3 add	a5, a5, a3
0x800014a0: 00 17 95 13 slli	a0, a5, 1
0x800014a4: 00 f7 20 23 sw	a5, 0(a4)
0x800014a8: 01 15 55 13 srli	a0, a0, 17
0x800014ac: 00 00 80 67 jalr	zero, 0(ra)
0x800033a4: 00 05 04 13 addi	s0, a0, 0
0x800033a8: 8b 8f e0 ef jal	ra, 0x80001460
0x80001460: 00 00 67 17 auipc	a4, 6
0x80001464: b1 07 07 13 addi	a4, a4, -1264
0x80001468: 00 07 26 83 lw	a3, 0(a4)
0x8000146c: 00 16 97 93 slli	a5, a3, 1
0x80001470: 00 d7 87 b3 add	a5, a5, a3
0x80001474: 00 27 97 93 slli	a5, a5, 2
0x80001478: 00 d7 87 b3 add	a5, a5, a3
0x8000147c: 00 47 97 93 slli	a5, a5, 4
0x80001480: 00 d7 87 b3 add	a5, a5, a3
0x80001484: 00 87 97 93 slli	a5, a5, 8
0x80001488: 40 d7 87 b3 sub	a5, a5, a3
0x8000148c: 00 27 97 93 slli	a5, a5, 2
0x80001490: 00 d7 87 b3 add	a5, a5, a3
0x80001494: 00 26 a6 b7 lui	a3, 618
0x80001498: ec 36 86 93 addi	a3, a3, -317
0x8000149c: 00 d7 87 b3 add	a5, a5, a3
0x800014a0: 00 17 95 13 slli	a0, a5, 1
0x800014a4: 00 f7 20 23 sw	a5, 0(a4)
0x800014a8: 01 15 55 13 srli	a0, a0, 17
0x800014ac: 00 00 80 67 jalr	zero, 0(ra)
0x800033ac: 00 00 46 17 auipc	a2, 4
0x800033b0: f5 c6 06 13 addi	a2, a2, -164
0x800033b4: 00 06 27 83 lw	a5, 0(a2)
0x800033b8: 00 00 46 97 auipc	a3, 4
0x800033bc: f4 c6 86 93 addi	a3, a3, -180
0x800033c0: 00 24 95 93 slli	a1, s1, 2
0x800033c4: 01 04 14 13 slli	s0, s0, 16
0x800033c8: 00 06 a7 03 lw	a4, 0(a3)
0x800033cc: 00 b7 87 b3 add	a5, a5, a1
0x800033d0: 00 a4 64 33 or	s0, s0, a0
0x800033d4: 00 87 a0 23 sw	s0, 0(a5)
0x800033d8: 00 14 84 93 addi	s1, s1, 1
0x800033dc: fc e4 c2 e3 blt	s1, a4, 0x800033a0
0x800033a0: 8c 0f e0 ef jal	ra, 0x80001460
0x80001460: 00 00 67 17 auipc	a4, 6
0x80001464: b1 07 07 13 addi	a4, a4, -1264
0x80001468: 00 07 26 83 lw	a3, 0(a4)
0x8000146c: 00 16 97 93 slli	a5, a3, 1
0x80001470: 00 d7 87 b3 add	a5, a5, a3
0x80001474: 00 27 97 93 slli	a5, a5, 2
0x80001478: 00 d7 87 b3 add	a5, a5, a3
0x8000147c: 00 47 97 93 slli	a5, a5, 4
0x80001480: 00 d7 87 b3 add	a5, a5, a3
0x80001484: 00 87 97 93 slli	a5, a5, 8
0x80001488: 40 d7 87 b3 sub	a5, a5, a3
0x8000148c: 00 27 97 93 slli	a5, a5, 2
0x80001490: 00 d7 87 b3 add	a5, a5, a3
0x80001494: 00 26 a6 b7 lui	a3, 618
0x80001498: ec 36 86 93 addi	a3, a3, -317
0x8000149c: 00 d7 87 b3 add	a5, a5, a3
0x800014a0: 00 17 95 13 slli	a0, a5, 1
0x800014a4: 00 f7 20 23 sw	a5, 0(a4)
0x800014a8: 01 15 55 13 srli	a0, a0, 17
0x800014ac: 00 00 80 67 jalr	zero, 0(ra)
0x800033a4: 00 05 04 13 addi	s0, a0, 0
0x800033a8: 8b 8f e0 ef jal	ra, 0x80001460
0x80001460: 00 00 67 17 auipc	a4, 6
0x80001464: b1 07 07 13 addi	a4, a4, -1264
0x80001468: 00 07 26 83 lw	a3, 0(a4)
0x8000146c: 00 16 97 93 slli	a5, a3, 1
0x80001470: 00 d7 87 b3 add	a5, a5, a3
0x80001474: 00 27 97 93 slli	a5, a5, 2
0x80001478: 00 d7 87 b3 add	a5, a5, a3
0x8000147c: 00 47 97 93 slli	a5, a5, 4
0x80001480: 00 d7 87 b3 add	a5, a5, a3
0x80001484: 00 87 97 93 slli	a5, a5, 8
0x80001488: 40 d7 87 b3 sub	a5, a5, a3
0x8000148c: 00 27 97 93 slli	a5, a5, 2
0x80001490: 00 d7 87 b3 add	a5, a5, a3
0x80001494: 00 26 a6 b7 lui	a3, 618
0x80001498: ec 36 86 93 addi	a3, a3, -317
0x8000149c: 00 d7 87 b3 add	a5, a5, a3
0x800014a0: 00 17 95 13 slli	a0, a5, 1
0x800014a4: 00 f7 20 23 sw	a5, 0(a4)
0x800014a8: 01 15 55 13 srli	a0, a0, 17
0x800014ac: 00 00 80 67 jalr	zero, 0(ra)
0x800033ac: 00 00 46 17 auipc	a2, 4
0x800033b0: f5 c6 06 13 addi	a2, a2, -164
0x800033b4: 00 06 27 83 lw	a5, 0(a2)
0x800033b8: 00 00 46 97 auipc	a3, 4
0x800033bc: f4 c6 86 93 addi	a3, a3, -180
0x800033c0: 00 24 95 93 slli	a1, s1, 2
0x800033c4: 01 04 14 13 slli	s0, s0, 16
0x800033c8: 00 06 a7 03 lw	a4, 0(a3)
0x800033cc: 00 b7 87 b3 add	a5, a5, a1
0x800033d0: 00 a4 64 33 or	s0, s0, a0
0x800033d4: 00 87 a0 23 sw	s0, 0(a5)
0x800033d8: 00 14 84 93 addi	s1, s1, 1
0x800033dc: fc e4 c2 e3 blt	s1, a4, 0x800033a0
0x800033a0: 8c 0f e0 ef jal	ra, 0x80001460
0x80001460: 00 00 67 17 auipc	a4, 6
0x80001464: b1 07 07 13 addi	a4, a4, -1264
0x80001468: 00 07 26 83 lw	a3, 0(a4)
0x8000146c: 00 16 97 93 slli	a5, a3, 1
0x80001470: 00 d7 87 b3 add	a5, a5, a3
0x80001474: 00 27 97 93 slli	a5, a5, 2
0x80001478: 00 d7 87 b3 add	a5, a5, a3
0x8000147c: 00 47 97 93 slli	a5, a5, 4
0x80001480: 00 d7 87 b3 add	a5, a5, a3
0x80001484: 00 87 97 93 slli	a5, a5, 8
0x80001488: 40 d7 87 b3 sub	a5, a5, a3
0x8000148c: 00 27 97 93 slli	a5, a5, 2
0x80001490: 00 d7 87 b3 add	a5, a5, a3
0x80001494: 00 26 a6 b7 lui	a3, 618
0x80001498: ec 36 86 93 addi	a3, a3, -317
0x8000149c: 00 d7 87 b3 add	a5, a5, a3
0x800014a0: 00 17 95 13 slli	a0, a5, 1
0x800014a4: 00 f7 20 23 sw	a5, 0(a4)
0x800014a8: 01 15 55 13 srli	a0, a0, 17
0x800014ac: 00 00 80 67 jalr	zero, 0(ra)
0x800033a4: 00 05 04 13 addi	s0, a0, 0
0x800033a8: 8b 8f e0 ef jal	ra, 0x80001460
0x80001460: 00 00 67 17 auipc	a4, 6
0x80001464: b1 07 07 13 addi	a4, a4, -1264
0x80001468: 00 07 26 83 lw	a3, 0(a4)
0x8000146c: 00 16 97 93 slli	a5, a3, 1
0x80001470: 00 d7 87 b3 add	a5, a5, a3
0x80001474: 00 27 97 93 slli	a5, a5, 2
0x80001478: 00 d7 87 b3 add	a5, a5, a3
0x8000147c: 00 47 97 93 slli	a5, a5, 4
0x80001480: 00 d7 87 b3 add	a5, a5, a3
0x80001484: 00 87 97 93 slli	a5, a5, 8
0x80001488: 40 d7 87 b3 sub	a5, a5, a3
0x8000148c: 00 27 97 93 slli	a5, a5, 2
0x80001490: 00 d7 87 b3 add	a5, a5, a3
0x80001494: 00 26 a6 b7 lui	a3, 618
0x80001498: ec 36 86 93 addi	a3, a3, -317
0x8000149c: 00 d7 87 b3 add	a5, a5, a3
0x800014a0: 00 17 95 13 slli	a0, a5, 1
0x800014a4: 00 f7 20 23 sw	a5, 0(a4)
0x800014a8: 01 15 55 13 srli	a0, a0, 17
0x800014ac: 00 00 80 67 jalr	zero, 0(ra)
0x800033ac: 00 00 46 17 auipc	a2, 4
0x800033b0: f5 c6 06 13 addi	a2, a2, -164
0x800033b4: 00 06 27 83 lw	a5, 0(a2)
0x800033b8: 00 00 46 97 auipc	a3, 4
0x800033bc: f4 c6 86 93 addi	a3, a3, -180
0x800033c0: 00 24 95 93 slli	a1, s1, 2
0x800033c4: 01 04 14 13 slli	s0, s0, 16
0x800033c8: 00 06 a7 03 lw	a4, 0(a3)
0x800033cc: 00 b7 87 b3 add	a5, a5, a1
0x800033d0: 00 a4 64 33 or	s0, s0, a0
0x800033d4: 00 87 a0 23 sw	s0, 0(a5)
0x800033d8: 00 14 84 93 addi	s1, s1, 1
0x800033dc: fc e4 c2 e3 blt	s1, a4, 0x800033a0
0x800033a0: 8c 0f e0 ef jal	ra, 0x80001460
0x80001460: 00 00 67 17 auipc	a4, 6
0x80001464: b1 07 07 13 addi	a4, a4, -1264
0x80001468: 00 07 26 83 lw	a3, 0(a4)
0x8000146c: 00 16 97 93 slli	a5, a3, 1
0x80001470: 00 d7 87 b3 add	a5, a5, a3
0x80001474: 00 27 97 93 slli	a5, a5, 2
0x80001478: 00 d7 87 b3 add	a5, a5, a3
0x8000147c: 00 47 97 93 slli	a5, a5, 4
0x80001480: 00 d7 87 b3 add	a5, a5, a3
0x80001484: 00 87 97 93 slli	a5, a5, 8
0x80001488: 40 d7 87 b3 sub	a5, a5, a3
0x8000148c: 00 27 97 93 slli	a5, a5, 2
0x80001490: 00 d7 87 b3 add	a5, a5, a3
0x80001494: 00 26 a6 b7 lui	a3, 618
0x80001498: ec 36 86 93 addi	a3, a3, -317
0x8000149c: 00 d7 87 b3 add	a5, a5, a3
0x800014a0: 00 17 95 13 slli	a0, a5, 1
0x800014a4: 00 f7 20 23 sw	a5, 0(a4)
0x800014a8: 01 15 55 13 srli	a0, a0, 17
0x800014ac: 00 00 80 67 jalr	zero, 0(ra)
0x800033a4: 00 05 04 13 addi	s0, a0, 0
0x800033a8: 8b 8f e0 ef jal	ra, 0x80001460
0x80001460: 00 00 67 17 auipc	a4, 6
0x80001464: b1 07 07 13 addi	a4, a4, -1264
0x80001468: 00 07 26 83 lw	a3, 0(a4)
0x8000146c: 00 16 97 93 slli	a5, a3, 1
0x80001470: 00 d7 87 b3 add	a5, a5, a3
0x80001474: 00 27 97 93 slli	a5, a5, 2
0x80001478: 00 d7 87 b3 add	a5, a5, a3
0x8000147c: 00 47 97 93 slli	a5, a5, 4
0x80001480: 00 d7 87 b3 add	a5, a5, a3
0x80001484: 00 87 97 93 slli	a5, a5, 8
0x80001488: 40 d7 87 b3 sub	a5, a5, a3
0x8000148c: 00 27 97 93 slli	a5, a5, 2
0x80001490: 00 d7 87 b3 add	a5, a5, a3
0x80001494: 00 26 a6 b7 lui	a3, 618
0x80001498: ec 36 86 93 addi	a3, a3, -317
0x8000149c: 00 d7 87 b3 add	a5, a5, a3
0x800014a0: 00 17 95 13 slli	a0, a5, 1
0x800014a4: 00 f7 20 23 sw	a5, 0(a4)
0x800014a8: 01 15 55 13 srli	a0, a0, 17
0x800014ac: 00 00 80 67 jalr	zero, 0(ra)
0x800033ac: 00 00 46 17 auipc	a2, 4
0x800033b0: f5 c6 06 13 addi	a2, a2, -164
0x800033b4: 00 06 27 83 lw	a5, 0(a2)
0x800033b8: 00 00 46 97 auipc	a3, 4
0x800033bc: f4 c6 86 93 addi	a3, a3, -180
0x800033c0: 00 24 95 93 slli	a1, s1, 2
0x800033c4: 01 04 14 13 slli	s0, s0, 16
0x800033c8: 00 06 a7 03 lw	a4, 0(a3)
0x800033cc: 00 b7 87 b3 add	a5, a5, a1
0x800033d0: 00 a4 64 33 or	s0, s0, a0
0x800033d4: 00 87 a0 23 sw	s0, 0(a5)
0x800033d8: 00 14 84 93 addi	s1, s1, 1
0x800033dc: fc e4 c2 e3 blt	s1, a4, 0x800033a0
0x800033a0: 8c 0f e0 ef jal	ra, 0x80001460
0x80001460: 00 00 67 17 auipc	a4, 6
0x80001464: b1 07 07 13 addi	a4, a4, -1264
0x80001468: 00 07 26 83 lw	a3, 0(a4)
0x8000146c: 00 16 97 93 slli	a5, a3, 1
0x80001470: 00 d7 87 b3 add	a5, a5, a3
0x80001474: 00 27 97 93 slli	a5, a5, 2
0x80001478: 00 d7 87 b3 add	a5, a5, a3
0x8000147c: 00 47 97 93 slli	a5, a5, 4
0x80001480: 00 d7 87 b3 add	a5, a5, a3
0x80001484: 00 87 97 93 slli	a5, a5, 8
0x80001488: 40 d7 87 b3 sub	a5, a5, a3
0x8000148c: 00 27 97 93 slli	a5, a5, 2
0x80001490: 00 d7 87 b3 add	a5, a5, a3
0x80001494: 00 26 a6 b7 lui	a3, 618
0x80001498: ec 36 86 93 addi	a3, a3, -317
0x8000149c: 00 d7 87 b3 add	a5, a5, a3
0x800014a0: 00 17 95 13 slli	a0, a5, 1
0x800014a4: 00 f7 20 23 sw	a5, 0(a4)
0x800014a8: 01 15 55 13 srli	a0, a0, 17
0x800014ac: 00 00 80 67 jalr	zero, 0(ra)
0x800033a4: 00 05 04 13 addi	s0, a0, 0
0x800033a8: 8b 8f e0 ef jal	ra, 0x80001460
0x80001460: 00 00 67 17 auipc	a4, 6
0x80001464: b1 07 07 13 addi	a4, a4, -1264
0x80001468: 00 07 26 83 lw	a3, 0(a4)
0x8000146c: 00 16 97 93 slli	a5, a3, 1
0x80001470: 00 d7 87 b3 add	a5, a5, a3
0x80001474: 00 27 97 93 slli	a5, a5, 2
0x80001478: 00 d7 87 b3 add	a5, a5, a3
0x8000147c: 00 47 97 93 slli	a5, a5, 4
0x80001480: 00 d7 87 b3 add	a5, a5, a3
0x80001484: 00 87 97 93 slli	a5, a5, 8
0x80001488: 40 d7 87 b3 sub	a5, a5, a3
0x8000148c: 00 27 97 93 slli	a5, a5, 2
0x80001490: 00 d7 87 b3 add	a5, a5, a3
0x80001494: 00 26 a6 b7 lui	a3, 618
0x80001498: ec 36 86 93 addi	a3, a3, -317
0x8000149c: 00 d7 87 b3 add	a5, a5, a3
0x800014a0: 00 17 95 13 slli	a0, a5, 1
0x800014a4: 00 f7 20 23 sw	a5, 0(a4)
0x800014a8: 01 15 55 13 srli	a0, a0, 17
0x800014ac: 00 00 80 67 jalr	zero, 0(ra)
0x800033ac: 00 00 46 17 auipc	a2, 4
0x800033b0: f5 c6 06 13 addi	a2, a2, -164
0x800033b4: 00 06 27 83 lw	a5, 0(a2)
0x800033b8: 00 00 46 97 auipc	a3, 4
0x800033bc: f4 c6 86 93 addi	a3, a3, -180
0x800033c0: 00 24 95 93 slli	a1, s1, 2
0x800033c4: 01 04 14 13 slli	s0, s0, 16
0x800033c8: 00 06 a7 03 lw	a4, 0(a3)
0x800033cc: 00 b7 87 b3 add	a5, a5, a1
0x800033d0: 00 a4 64 33 or	s0, s0, a0
0x800033d4: 00 87 a0 23 sw	s0, 0(a5)
0x800033d8: 00 14 84 93 addi	s1, s1, 1
0x800033dc: fc e4 c2 e3 blt	s1, a4, 0x800033a0
0x800033a0: 8c 0f e0 ef jal	ra, 0x80001460
0x80001460: 00 00 67 17 auipc	a4, 6
0x80001464: b1 07 07 13 addi	a4, a4, -1264
0x80001468: 00 07 26 83 lw	a3, 0(a4)
0x8000146c: 00 16 97 93 slli	a5, a3, 1
0x80001470: 00 d7 87 b3 add	a5, a5, a3
0x80001474: 00 27 97 93 slli	a5, a5, 2
0x80001478: 00 d7 87 b3 add	a5, a5, a3
0x8000147c: 00 47 97 93 slli	a5, a5, 4
0x80001480: 00 d7 87 b3 add	a5, a5, a3
0x80001484: 00 87 97 93 slli	a5, a5, 8
0x80001488: 40 d7 87 b3 sub	a5, a5, a3
0x8000148c: 00 27 97 93 slli	a5, a5, 2
0x80001490: 00 d7 87 b3 add	a5, a5, a3
0x80001494: 00 26 a6 b7 lui	a3, 618
0x80001498: ec 36 86 93 addi	a3, a3, -317
0x8000149c: 00 d7 87 b3 add	a5, a5, a3
0x800014a0: 00 17 95 13 slli	a0, a5, 1
0x800014a4: 00 f7 20 23 sw	a5, 0(a4)
0x800014a8: 01 15 55 13 srli	a0, a0, 17
0x800014ac: 00 00 80 67 jalr	zero, 0(ra)
0x800033a4: 00 05 04 13 addi	s0, a0, 0
0x800033a8: 8b 8f e0 ef jal	ra, 0x80001460
0x80001460: 00 00 67 17 auipc	a4, 6
0x80001464: b1 07 07 13 addi	a4, a4, -1264
0x80001468: 00 07 26 83 lw	a3, 0(a4)
0x8000146c: 00 16 97 93 slli	a5, a3, 1
0x80001470: 00 d7 87 b3 add	a5, a5, a3
0x80001474: 00 27 97 93 slli	a5, a5, 2
0x80001478: 00 d7 87 b3 add	a5, a5, a3
0x8000147c: 00 47 97 93 slli	a5, a5, 4
0x80001480: 00 d7 87 b3 add	a5, a5, a3
0x80001484: 00 87 97 93 slli	a5, a5, 8
0x80001488: 40 d7 87 b3 sub	a5, a5, a3
0x8000148c: 00 27 97 93 slli	a5, a5, 2
0x80001490: 00 d7 87 b3 add	a5, a5, a3
0x80001494: 00 26 a6 b7 lui	a3, 618
0x80001498: ec 36 86 93 addi	a3, a3, -317
0x8000149c: 00 d7 87 b3 add	a5, a5, a3
0x800014a0: 00 17 95 13 slli	a0, a5, 1
0x800014a4: 00 f7 20 23 sw	a5, 0(a4)
0x800014a8: 01 15 55 13 srli	a0, a0, 17
0x800014ac: 00 00 80 67 jalr	zero, 0(ra)
0x800033ac: 00 00 46 17 auipc	a2, 4
0x800033b0: f5 c6 06 13 addi	a2, a2, -164
0x800033b4: 00 06 27 83 lw	a5, 0(a2)
0x800033b8: 00 00 46 97 auipc	a3, 4
0x800033bc: f4 c6 86 93 addi	a3, a3, -180
0x800033c0: 00 24 95 93 slli	a1, s1, 2
0x800033c4: 01 04 14 13 slli	s0, s0, 16
0x800033c8: 00 06 a7 03 lw	a4, 0(a3)
0x800033cc: 00 b7 87 b3 add	a5, a5, a1
0x800033d0: 00 a4 64 33 or	s0, s0, a0
0x800033d4: 00 87 a0 23 sw	s0, 0(a5)
0x800033d8: 00 14 84 93 addi	s1, s1, 1
0x800033dc: fc e4 c2 e3 blt	s1, a4, 0x800033a0
0x800033a0: 8c 0f e0 ef jal	ra, 0x80001460
0x80001460: 00 00 67 17 auipc	a4, 6
0x80001464: b1 07 07 13 addi	a4, a4, -1264
0x80001468: 00 07 26 83 lw	a3, 0(a4)
0x8000146c: 00 16 97 93 slli	a5, a3, 1
0x80001470: 00 d7 87 b3 add	a5, a5, a3
0x80001474: 00 27 97 93 slli	a5, a5, 2
0x80001478: 00 d7 87 b3 add	a5, a5, a3
0x8000147c: 00 47 97 93 slli	a5, a5, 4
0x80001480: 00 d7 87 b3 add	a5, a5, a3
0x80001484: 00 87 97 93 slli	a5, a5, 8
0x80001488: 40 d7 87 b3 sub	a5, a5, a3
0x8000148c: 00 27 97 93 slli	a5, a5, 2
0x80001490: 00 d7 87 b3 add	a5, a5, a3
0x80001494: 00 26 a6 b7 lui	a3, 618
0x80001498: ec 36 86 93 addi	a3, a3, -317
0x8000149c: 00 d7 87 b3 add	a5, a5, a3
0x800014a0: 00 17 95 13 slli	a0, a5, 1
0x800014a4: 00 f7 20 23 sw	a5, 0(a4)
0x800014a8: 01 15 55 13 srli	a0, a0, 17
0x800014ac: 00 00 80 67 jalr	zero, 0(ra)
0x800033a4: 00 05 04 13 addi	s0, a0, 0
0x800033a8: 8b 8f e0 ef jal	ra, 0x80001460
0x80001460: 00 00 67 17 auipc	a4, 6
0x80001464: b1 07 07 13 addi	a4, a4, -1264
0x80001468: 00 07 26 83 lw	a3, 0(a4)
0x8000146c: 00 16 97 93 slli	a5, a3, 1
0x80001470: 00 d7 87 b3 add	a5, a5, a3
0x80001474: 00 27 97 93 slli	a5, a5, 2
0x80001478: 00 d7 87 b3 add	a5, a5, a3
0x8000147c: 00 47 97 93 slli	a5, a5, 4
0x80001480: 00 d7 87 b3 add	a5, a5, a3
0x80001484: 00 87 97 93 slli	a5, a5, 8
0x80001488: 40 d7 87 b3 sub	a5, a5, a3
0x8000148c: 00 27 97 93 slli	a5, a5, 2
0x80001490: 00 d7 87 b3 add	a5, a5, a3
0x80001494: 00 26 a6 b7 lui	a3, 618
0x80001498: ec 36 86 93 addi	a3, a3, -317
0x8000149c: 00 d7 87 b3 add	a5, a5, a3
0x800014a0: 00 17 95 13 slli	a0, a5, 1
0x800014a4: 00 f7 20 23 sw	a5, 0(a4)
0x800014a8: 01 15 55 13 srli	a0, a0, 17
0x800014ac: 00 00 80 67 jalr	zero, 0(ra)
0x800033ac: 00 00 46 17 auipc	a2, 4
0x800033b0: f5 c6 06 13 addi	a2, a2, -164
0x800033b4: 00 06 27 83 lw	a5, 0(a2)
0x800033b8: 00 00 46 97 auipc	a3, 4
0x800033bc: f4 c6 86 93 addi	a3, a3, -180
0x800033c0: 00 24 95 93 slli	a1, s1, 2
0x800033c4: 01 04 14 13 slli	s0, s0, 16
0x800033c8: 00 06 a7 03 lw	a4, 0(a3)
0x800033cc: 00 b7 87 b3 add	a5, a5, a1
0x800033d0: 00 a4 64 33 or	s0, s0, a0
0x800033d4: 00 87 a0 23 sw	s0, 0(a5)
0x800033d8: 00 14 84 93 addi	s1, s1, 1
0x800033dc: fc e4 c2 e3 blt	s1, a4, 0x800033a0
0x800033a0: 8c 0f e0 ef jal	ra, 0x80001460
0x80001460: 00 00 67 17 auipc	a4, 6
0x80001464: b1 07 07 13 addi	a4, a4, -1264
0x80001468: 00 07 26 83 lw	a3, 0(a4)
0x8000146c: 00 16 97 93 slli	a5, a3, 1
0x80001470: 00 d7 87 b3 add	a5, a5, a3
0x80001474: 00 27 97 93 slli	a5, a5, 2
0x80001478: 00 d7 87 b3 add	a5, a5, a3
0x8000147c: 00 47 97 93 slli	a5, a5, 4
0x80001480: 00 d7 87 b3 add	a5, a5, a3
0x80001484: 00 87 97 93 slli	a5, a5, 8
0x80001488: 40 d7 87 b3 sub	a5, a5, a3
0x8000148c: 00 27 97 93 slli	a5, a5, 2
0x80001490: 00 d7 87 b3 add	a5, a5, a3
0x80001494: 00 26 a6 b7 lui	a3, 618
0x80001498: ec 36 86 93 addi	a3, a3, -317
0x8000149c: 00 d7 87 b3 add	a5, a5, a3
0x800014a0: 00 17 95 13 slli	a0, a5, 1
0x800014a4: 00 f7 20 23 sw	a5, 0(a4)
0x800014a8: 01 15 55 13 srli	a0, a0, 17
0x800014ac: 00 00 80 67 jalr	zero, 0(ra)
0x800033a4: 00 05 04 13 addi	s0, a0, 0
0x800033a8: 8b 8f e0 ef jal	ra, 0x80001460
0x80001460: 00 00 67 17 auipc	a4, 6
0x80001464: b1 07 07 13 addi	a4, a4, -1264
0x80001468: 00 07 26 83 lw	a3, 0(a4)
0x8000146c: 00 16 97 93 slli	a5, a3, 1
0x80001470: 00 d7 87 b3 add	a5, a5, a3
0x80001474: 00 27 97 93 slli	a5, a5, 2
0x80001478: 00 d7 87 b3 add	a5, a5, a3
0x8000147c: 00 47 97 93 slli	a5, a5, 4
0x80001480: 00 d7 87 b3 add	a5, a5, a3
0x80001484: 00 87 97 93 slli	a5, a5, 8
0x80001488: 40 d7 87 b3 sub	a5, a5, a3
0x8000148c: 00 27 97 93 slli	a5, a5, 2
0x80001490: 00 d7 87 b3 add	a5, a5, a3
0x80001494: 00 26 a6 b7 lui	a3, 618
0x80001498: ec 36 86 93 addi	a3, a3, -317
0x8000149c: 00 d7 87 b3 add	a5, a5, a3
0x800014a0: 00 17 95 13 slli	a0, a5, 1
0x800014a4: 00 f7 20 23 sw	a5, 0(a4)
0x800014a8: 01 15 55 13 srli	a0, a0, 17
0x800014ac: 00 00 80 67 jalr	zero, 0(ra)
0x800033ac: 00 00 46 17 auipc	a2, 4
0x800033b0: f5 c6 06 13 addi	a2, a2, -164
0x800033b4: 00 06 27 83 lw	a5, 0(a2)
0x800033b8: 00 00 46 97 auipc	a3, 4
0x800033bc: f4 c6 86 93 addi	a3, a3, -180
0x800033c0: 00 24 95 93 slli	a1, s1, 2
0x800033c4: 01 04 14 13 slli	s0, s0, 16
0x800033c8: 00 06 a7 03 lw	a4, 0(a3)
0x800033cc: 00 b7 87 b3 add	a5, a5, a1
0x800033d0: 00 a4 64 33 or	s0, s0, a0
0x800033d4: 00 87 a0 23 sw	s0, 0(a5)
0x800033d8: 00 14 84 93 addi	s1, s1, 1
0x800033dc: fc e4 c2 e3 blt	s1, a4, 0x800033a0
0x800033a0: 8c 0f e0 ef jal	ra, 0x80001460
0x80001460: 00 00 67 17 auipc	a4, 6
0x80001464: b1 07 07 13 addi	a4, a4, -1264
0x80001468: 00 07 26 83 lw	a3, 0(a4)
0x8000146c: 00 16 97 93 slli	a5, a3, 1
0x80001470: 00 d7 87 b3 add	a5, a5, a3
0x80001474: 00 27 97 93 slli	a5, a5, 2
0x80001478: 00 d7 87 b3 add	a5, a5, a3
0x8000147c: 00 47 97 93 slli	a5, a5, 4
0x80001480: 00 d7 87 b3 add	a5, a5, a3
0x80001484: 00 87 97 93 slli	a5, a5, 8
0x80001488: 40 d7 87 b3 sub	a5, a5, a3
0x8000148c: 00 27 97 93 slli	a5, a5, 2
0x80001490: 00 d7 87 b3 add	a5, a5, a3
0x80001494: 00 26 a6 b7 lui	a3, 618
0x80001498: ec 36 86 93 addi	a3, a3, -317
0x8000149c: 00 d7 87 b3 add	a5, a5, a3
0x800014a0: 00 17 95 13 slli	a0, a5, 1
0x800014a4: 00 f7 20 23 sw	a5, 0(a4)
0x800014a8: 01 15 55 13 srli	a0, a0, 17
0x800014ac: 00 00 80 67 jalr	zero, 0(ra)
0x800033a4: 00 05 04 13 addi	s0, a0, 0
0x800033a8: 8b 8f e0 ef jal	ra, 0x80001460
0x80001460: 00 00 67 17 auipc	a4, 6
0x80001464: b1 07 07 13 addi	a4, a4, -1264
0x80001468: 00 07 26 83 lw	a3, 0(a4)
0x8000146c: 00 16 97 93 slli	a5, a3, 1
0x80001470: 00 d7 87 b3 add	a5, a5, a3
0x80001474: 00 27 97 93 slli	a5, a5, 2
0x80001478: 00 d7 87 b3 add	a5, a5, a3
0x8000147c: 00 47 97 93 slli	a5, a5, 4
0x80001480: 00 d7 87 b3 add	a5, a5, a3
0x80001484: 00 87 97 93 slli	a5, a5, 8
0x80001488: 40 d7 87 b3 sub	a5, a5, a3
0x8000148c: 00 27 97 93 slli	a5, a5, 2
0x80001490: 00 d7 87 b3 add	a5, a5, a3
0x80001494: 00 26 a6 b7 lui	a3, 618
0x80001498: ec 36 86 93 addi	a3, a3, -317
0x8000149c: 00 d7 87 b3 add	a5, a5, a3
0x800014a0: 00 17 95 13 slli	a0, a5, 1
0x800014a4: 00 f7 20 23 sw	a5, 0(a4)
0x800014a8: 01 15 55 13 srli	a0, a0, 17
0x800014ac: 00 00 80 67 jalr	zero, 0(ra)
0x800033ac: 00 00 46 17 auipc	a2, 4
0x800033b0: f5 c6 06 13 addi	a2, a2, -164
0x800033b4: 00 06 27 83 lw	a5, 0(a2)
0x800033b8: 00 00 46 97 auipc	a3, 4
0x800033bc: f4 c6 86 93 addi	a3, a3, -180
0x800033c0: 00 24 95 93 slli	a1, s1, 2
0x800033c4: 01 04 14 13 slli	s0, s0, 16
0x800033c8: 00 06 a7 03 lw	a4, 0(a3)
0x800033cc: 00 b7 87 b3 add	a5, a5, a1
0x800033d0: 00 a4 64 33 or	s0, s0, a0
0x800033d4: 00 87 a0 23 sw	s0, 0(a5)
0x800033d8: 00 14 84 93 addi	s1, s1, 1
0x800033dc: fc e4 c2 e3 blt	s1, a4, 0x800033a0
0x800033a0: 8c 0f e0 ef jal	ra, 0x80001460
0x80001460: 00 00 67 17 auipc	a4, 6
0x80001464: b1 07 07 13 addi	a4, a4, -1264
0x80001468: 00 07 26 83 lw	a3, 0(a4)
0x8000146c: 00 16 97 93 slli	a5, a3, 1
0x80001470: 00 d7 87 b3 add	a5, a5, a3
0x80001474: 00 27 97 93 slli	a5, a5, 2
0x80001478: 00 d7 87 b3 add	a5, a5, a3
0x8000147c: 00 47 97 93 slli	a5, a5, 4
0x80001480: 00 d7 87 b3 add	a5, a5, a3
0x80001484: 00 87 97 93 slli	a5, a5, 8
0x80001488: 40 d7 87 b3 sub	a5, a5, a3
0x8000148c: 00 27 97 93 slli	a5, a5, 2
0x80001490: 00 d7 87 b3 add	a5, a5, a3
0x80001494: 00 26 a6 b7 lui	a3, 618
0x80001498: ec 36 86 93 addi	a3, a3, -317
0x8000149c: 00 d7 87 b3 add	a5, a5, a3
0x800014a0: 00 17 95 13 slli	a0, a5, 1
0x800014a4: 00 f7 20 23 sw	a5, 0(a4)
0x800014a8: 01 15 55 13 srli	a0, a0, 17
0x800014ac: 00 00 80 67 jalr	zero, 0(ra)
0x800033a4: 00 05 04 13 addi	s0, a0, 0
0x800033a8: 8b 8f e0 ef jal	ra, 0x80001460
0x80001460: 00 00 67 17 auipc	a4, 6
0x80001464: b1 07 07 13 addi	a4, a4, -1264
0x80001468: 00 07 26 83 lw	a3, 0(a4)
0x8000146c: 00 16 97 93 slli	a5, a3, 1
0x80001470: 00 d7 87 b3 add	a5, a5, a3
0x80001474: 00 27 97 93 slli	a5, a5, 2
0x80001478: 00 d7 87 b3 add	a5, a5, a3
0x8000147c: 00 47 97 93 slli	a5, a5, 4
0x80001480: 00 d7 87 b3 add	a5, a5, a3
0x80001484: 00 87 97 93 slli	a5, a5, 8
0x80001488: 40 d7 87 b3 sub	a5, a5, a3
0x8000148c: 00 27 97 93 slli	a5, a5, 2
0x80001490: 00 d7 87 b3 add	a5, a5, a3
0x80001494: 00 26 a6 b7 lui	a3, 618
0x80001498: ec 36 86 93 addi	a3, a3, -317
0x8000149c: 00 d7 87 b3 add	a5, a5, a3
0x800014a0: 00 17 95 13 slli	a0, a5, 1
0x800014a4: 00 f7 20 23 sw	a5, 0(a4)
0x800014a8: 01 15 55 13 srli	a0, a0, 17
0x800014ac: 00 00 80 67 jalr	zero, 0(ra)
0x800033ac: 00 00 46 17 auipc	a2, 4
0x800033b0: f5 c6 06 13 addi	a2, a2, -164
0x800033b4: 00 06 27 83 lw	a5, 0(a2)
0x800033b8: 00 00 46 97 auipc	a3, 4
0x800033bc: f4 c6 86 93 addi	a3, a3, -180
0x800033c0: 00 24 95 93 slli	a1, s1, 2
0x800033c4: 01 04 14 13 slli	s0, s0, 16
0x800033c8: 00 06 a7 03 lw	a4, 0(a3)
0x800033cc: 00 b7 87 b3 add	a5, a5, a1
0x800033d0: 00 a4 64 33 or	s0, s0, a0
0x800033d4: 00 87 a0 23 sw	s0, 0(a5)
0x800033d8: 00 14 84 93 addi	s1, s1, 1
0x800033dc: fc e4 c2 e3 blt	s1, a4, 0x800033a0
0x800033a0: 8c 0f e0 ef jal	ra, 0x80001460
0x80001460: 00 00 67 17 auipc	a4, 6
0x80001464: b1 07 07 13 addi	a4, a4, -1264
0x80001468: 00 07 26 83 lw	a3, 0(a4)
0x8000146c: 00 16 97 93 slli	a5, a3, 1
0x80001470: 00 d7 87 b3 add	a5, a5, a3
0x80001474: 00 27 97 93 slli	a5, a5, 2
0x80001478: 00 d7 87 b3 add	a5, a5, a3
0x8000147c: 00 47 97 93 slli	a5, a5, 4
0x80001480: 00 d7 87 b3 add	a5, a5, a3
0x80001484: 00 87 97 93 slli	a5, a5, 8
0x80001488: 40 d7 87 b3 sub	a5, a5, a3
0x8000148c: 00 27 97 93 slli	a5, a5, 2
0x80001490: 00 d7 87 b3 add	a5, a5, a3
0x80001494: 00 26 a6 b7 lui	a3, 618
0x80001498: ec 36 86 93 addi	a3, a3, -317
0x8000149c: 00 d7 87 b3 add	a5, a5, a3
0x800014a0: 00 17 95 13 slli	a0, a5, 1
0x800014a4: 00 f7 20 23 sw	a5, 0(a4)
0x800014a8: 01 15 55 13 srli	a0, a0, 17
0x800014ac: 00 00 80 67 jalr	zero, 0(ra)
0x800033a4: 00 05 04 13 addi	s0, a0, 0
0x800033a8: 8b 8f e0 ef jal	ra, 0x80001460
0x80001460: 00 00 67 17 auipc	a4, 6
0x80001464: b1 07 07 13 addi	a4, a4, -1264
0x80001468: 00 07 26 83 lw	a3, 0(a4)
0x8000146c: 00 16 97 93 slli	a5, a3, 1
0x80001470: 00 d7 87 b3 add	a5, a5, a3
0x80001474: 00 27 97 93 slli	a5, a5, 2
0x80001478: 00 d7 87 b3 add	a5, a5, a3
0x8000147c: 00 47 97 93 slli	a5, a5, 4
0x80001480: 00 d7 87 b3 add	a5, a5, a3
0x80001484: 00 87 97 93 slli	a5, a5, 8
0x80001488: 40 d7 87 b3 sub	a5, a5, a3
0x8000148c: 00 27 97 93 slli	a5, a5, 2
0x80001490: 00 d7 87 b3 add	a5, a5, a3
0x80001494: 00 26 a6 b7 lui	a3, 618
0x80001498: ec 36 86 93 addi	a3, a3, -317
0x8000149c: 00 d7 87 b3 add	a5, a5, a3
0x800014a0: 00 17 95 13 slli	a0, a5, 1
0x800014a4: 00 f7 20 23 sw	a5, 0(a4)
0x800014a8: 01 15 55 13 srli	a0, a0, 17
0x800014ac: 00 00 80 67 jalr	zero, 0(ra)
0x800033ac: 00 00 46 17 auipc	a2, 4
0x800033b0: f5 c6 06 13 addi	a2, a2, -164
0x800033b4: 00 06 27 83 lw	a5, 0(a2)
0x800033b8: 00 00 46 97 auipc	a3, 4
0x800033bc: f4 c6 86 93 addi	a3, a3, -180
0x800033c0: 00 24 95 93 slli	a1, s1, 2
0x800033c4: 01 04 14 13 slli	s0, s0, 16
0x800033c8: 00 06 a7 03 lw	a4, 0(a3)
0x800033cc: 00 b7 87 b3 add	a5, a5, a1
0x800033d0: 00 a4 64 33 or	s0, s0, a0
0x800033d4: 00 87 a0 23 sw	s0, 0(a5)
0x800033d8: 00 14 84 93 addi	s1, s1, 1
0x800033dc: fc e4 c2 e3 blt	s1, a4, 0x800033a0
0x800033a0: 8c 0f e0 ef jal	ra, 0x80001460
0x80001460: 00 00 67 17 auipc	a4, 6
0x80001464: b1 07 07 13 addi	a4, a4, -1264
0x80001468: 00 07 26 83 lw	a3, 0(a4)
0x8000146c: 00 16 97 93 slli	a5, a3, 1
0x80001470: 00 d7 87 b3 add	a5, a5, a3
0x80001474: 00 27 97 93 slli	a5, a5, 2
0x80001478: 00 d7 87 b3 add	a5, a5, a3
0x8000147c: 00 47 97 93 slli	a5, a5, 4
0x80001480: 00 d7 87 b3 add	a5, a5, a3
0x80001484: 00 87 97 93 slli	a5, a5, 8
0x80001488: 40 d7 87 b3 sub	a5, a5, a3
0x8000148c: 00 27 97 93 slli	a5, a5, 2
0x80001490: 00 d7 87 b3 add	a5, a5, a3
0x80001494: 00 26 a6 b7 lui	a3, 618
0x80001498: ec 36 86 93 addi	a3, a3, -317
0x8000149c: 00 d7 87 b3 add	a5, a5, a3
0x800014a0: 00 17 95 13 slli	a0, a5, 1
0x800014a4: 00 f7 20 23 sw	a5, 0(a4)
0x800014a8: 01 15 55 13 srli	a0, a0, 17
0x800014ac: 00 00 80 67 jalr	zero, 0(ra)
0x800033a4: 00 05 04 13 addi	s0, a0, 0
0x800033a8: 8b 8f e0 ef jal	ra, 0x80001460
0x80001460: 00 00 67 17 auipc	a4, 6
0x80001464: b1 07 07 13 addi	a4, a4, -1264
0x80001468: 00 07 26 83 lw	a3, 0(a4)
0x8000146c: 00 16 97 93 slli	a5, a3, 1
0x80001470: 00 d7 87 b3 add	a5, a5, a3
0x80001474: 00 27 97 93 slli	a5, a5, 2
0x80001478: 00 d7 87 b3 add	a5, a5, a3
0x8000147c: 00 47 97 93 slli	a5, a5, 4
0x80001480: 00 d7 87 b3 add	a5, a5, a3
0x80001484: 00 87 97 93 slli	a5, a5, 8
0x80001488: 40 d7 87 b3 sub	a5, a5, a3
0x8000148c: 00 27 97 93 slli	a5, a5, 2
0x80001490: 00 d7 87 b3 add	a5, a5, a3
0x80001494: 00 26 a6 b7 lui	a3, 618
0x80001498: ec 36 86 93 addi	a3, a3, -317
0x8000149c: 00 d7 87 b3 add	a5, a5, a3
0x800014a0: 00 17 95 13 slli	a0, a5, 1
0x800014a4: 00 f7 20 23 sw	a5, 0(a4)
0x800014a8: 01 15 55 13 srli	a0, a0, 17
0x800014ac: 00 00 80 67 jalr	zero, 0(ra)
0x800033ac: 00 00 46 17 auipc	a2, 4
0x800033b0: f5 c6 06 13 addi	a2, a2, -164
0x800033b4: 00 06 27 83 lw	a5, 0(a2)
0x800033b8: 00 00 46 97 auipc	a3, 4
0x800033bc: f4 c6 86 93 addi	a3, a3, -180
0x800033c0: 00 24 95 93 slli	a1, s1, 2
0x800033c4: 01 04 14 13 slli	s0, s0, 16
0x800033c8: 00 06 a7 03 lw	a4, 0(a3)
0x800033cc: 00 b7 87 b3 add	a5, a5, a1
0x800033d0: 00 a4 64 33 or	s0, s0, a0
0x800033d4: 00 87 a0 23 sw	s0, 0(a5)
0x800033d8: 00 14 84 93 addi	s1, s1, 1
0x800033dc: fc e4 c2 e3 blt	s1, a4, 0x800033a0
0x800033a0: 8c 0f e0 ef jal	ra, 0x80001460
0x80001460: 00 00 67 17 auipc	a4, 6
0x80001464: b1 07 07 13 addi	a4, a4, -1264
0x80001468: 00 07 26 83 lw	a3, 0(a4)
0x8000146c: 00 16 97 93 slli	a5, a3, 1
0x80001470: 00 d7 87 b3 add	a5, a5, a3
0x80001474: 00 27 97 93 slli	a5, a5, 2
0x80001478: 00 d7 87 b3 add	a5, a5, a3
0x8000147c: 00 47 97 93 slli	a5, a5, 4
0x80001480: 00 d7 87 b3 add	a5, a5, a3
0x80001484: 00 87 97 93 slli	a5, a5, 8
0x80001488: 40 d7 87 b3 sub	a5, a5, a3
0x8000148c: 00 27 97 93 slli	a5, a5, 2
0x80001490: 00 d7 87 b3 add	a5, a5, a3
0x80001494: 00 26 a6 b7 lui	a3, 618
0x80001498: ec 36 86 93 addi	a3, a3, -317
0x8000149c: 00 d7 87 b3 add	a5, a5, a3
0x800014a0: 00 17 95 13 slli	a0, a5, 1
0x800014a4: 00 f7 20 23 sw	a5, 0(a4)
0x800014a8: 01 15 55 13 srli	a0, a0, 17
0x800014ac: 00 00 80 67 jalr	zero, 0(ra)
0x800033a4: 00 05 04 13 addi	s0, a0, 0
0x800033a8: 8b 8f e0 ef jal	ra, 0x80001460
0x80001460: 00 00 67 17 auipc	a4, 6
0x80001464: b1 07 07 13 addi	a4, a4, -1264
0x80001468: 00 07 26 83 lw	a3, 0(a4)
0x8000146c: 00 16 97 93 slli	a5, a3, 1
0x80001470: 00 d7 87 b3 add	a5, a5, a3
0x80001474: 00 27 97 93 slli	a5, a5, 2
0x80001478: 00 d7 87 b3 add	a5, a5, a3
0x8000147c: 00 47 97 93 slli	a5, a5, 4
0x80001480: 00 d7 87 b3 add	a5, a5, a3
0x80001484: 00 87 97 93 slli	a5, a5, 8
0x80001488: 40 d7 87 b3 sub	a5, a5, a3
0x8000148c: 00 27 97 93 slli	a5, a5, 2
0x80001490: 00 d7 87 b3 add	a5, a5, a3
0x80001494: 00 26 a6 b7 lui	a3, 618
0x80001498: ec 36 86 93 addi	a3, a3, -317
0x8000149c: 00 d7 87 b3 add	a5, a5, a3
0x800014a0: 00 17 95 13 slli	a0, a5, 1
0x800014a4: 00 f7 20 23 sw	a5, 0(a4)
0x800014a8: 01 15 55 13 srli	a0, a0, 17
0x800014ac: 00 00 80 67 jalr	zero, 0(ra)
0x800033ac: 00 00 46 17 auipc	a2, 4
0x800033b0: f5 c6 06 13 addi	a2, a2, -164
0x800033b4: 00 06 27 83 lw	a5, 0(a2)
0x800033b8: 00 00 46 97 auipc	a3, 4
0x800033bc: f4 c6 86 93 addi	a3, a3, -180
0x800033c0: 00 24 95 93 slli	a1, s1, 2
0x800033c4: 01 04 14 13 slli	s0, s0, 16
0x800033c8: 00 06 a7 03 lw	a4, 0(a3)
0x800033cc: 00 b7 87 b3 add	a5, a5, a1
0x800033d0: 00 a4 64 33 or	s0, s0, a0
0x800033d4: 00 87 a0 23 sw	s0, 0(a5)
0x800033d8: 00 14 84 93 addi	s1, s1, 1
0x800033dc: fc e4 c2 e3 blt	s1, a4, 0x800033a0
0x800033a0: 8c 0f e0 ef jal	ra, 0x80001460
0x80001460: 00 00 67 17 auipc	a4, 6
0x80001464: b1 07 07 13 addi	a4, a4, -1264
0x80001468: 00 07 26 83 lw	a3, 0(a4)
0x8000146c: 00 16 97 93 slli	a5, a3, 1
0x80001470: 00 d7 87 b3 add	a5, a5, a3
0x80001474: 00 27 97 93 slli	a5, a5, 2
0x80001478: 00 d7 87 b3 add	a5, a5, a3
0x8000147c: 00 47 97 93 slli	a5, a5, 4
0x80001480: 00 d7 87 b3 add	a5, a5, a3
0x80001484: 00 87 97 93 slli	a5, a5, 8
0x80001488: 40 d7 87 b3 sub	a5, a5, a3
0x8000148c: 00 27 97 93 slli	a5, a5, 2
0x80001490: 00 d7 87 b3 add	a5, a5, a3
0x80001494: 00 26 a6 b7 lui	a3, 618
0x80001498: ec 36 86 93 addi	a3, a3, -317
0x8000149c: 00 d7 87 b3 add	a5, a5, a3
0x800014a0: 00 17 95 13 slli	a0, a5, 1
0x800014a4: 00 f7 20 23 sw	a5, 0(a4)
0x800014a8: 01 15 55 13 srli	a0, a0, 17
0x800014ac: 00 00 80 67 jalr	zero, 0(ra)
0x800033a4: 00 05 04 13 addi	s0, a0, 0
0x800033a8: 8b 8f e0 ef jal	ra, 0x80001460
0x80001460: 00 00 67 17 auipc	a4, 6
0x80001464: b1 07 07 13 addi	a4, a4, -1264
0x80001468: 00 07 26 83 lw	a3, 0(a4)
0x8000146c: 00 16 97 93 slli	a5, a3, 1
0x80001470: 00 d7 87 b3 add	a5, a5, a3
0x80001474: 00 27 97 93 slli	a5, a5, 2
0x80001478: 00 d7 87 b3 add	a5, a5, a3
0x8000147c: 00 47 97 93 slli	a5, a5, 4
0x80001480: 00 d7 87 b3 add	a5, a5, a3
0x80001484: 00 87 97 93 slli	a5, a5, 8
0x80001488: 40 d7 87 b3 sub	a5, a5, a3
0x8000148c: 00 27 97 93 slli	a5, a5, 2
0x80001490: 00 d7 87 b3 add	a5, a5, a3
0x80001494: 00 26 a6 b7 lui	a3, 618
0x80001498: ec 36 86 93 addi	a3, a3, -317
0x8000149c: 00 d7 87 b3 add	a5, a5, a3
0x800014a0: 00 17 95 13 slli	a0, a5, 1
0x800014a4: 00 f7 20 23 sw	a5, 0(a4)
0x800014a8: 01 15 55 13 srli	a0, a0, 17
0x800014ac: 00 00 80 67 jalr	zero, 0(ra)
0x800033ac: 00 00 46 17 auipc	a2, 4
0x800033b0: f5 c6 06 13 addi	a2, a2, -164
0x800033b4: 00 06 27 83 lw	a5, 0(a2)
0x800033b8: 00 00 46 97 auipc	a3, 4
0x800033bc: f4 c6 86 93 addi	a3, a3, -180
0x800033c0: 00 24 95 93 slli	a1, s1, 2
0x800033c4: 01 04 14 13 slli	s0, s0, 16
0x800033c8: 00 06 a7 03 lw	a4, 0(a3)
0x800033cc: 00 b7 87 b3 add	a5, a5, a1
0x800033d0: 00 a4 64 33 or	s0, s0, a0
0x800033d4: 00 87 a0 23 sw	s0, 0(a5)
0x800033d8: 00 14 84 93 addi	s1, s1, 1
0x800033dc: fc e4 c2 e3 blt	s1, a4, 0x800033a0
0x800033a0: 8c 0f e0 ef jal	ra, 0x80001460
0x80001460: 00 00 67 17 auipc	a4, 6
0x80001464: b1 07 07 13 addi	a4, a4, -1264
0x80001468: 00 07 26 83 lw	a3, 0(a4)
0x8000146c: 00 16 97 93 slli	a5, a3, 1
0x80001470: 00 d7 87 b3 add	a5, a5, a3
0x80001474: 00 27 97 93 slli	a5, a5, 2
0x80001478: 00 d7 87 b3 add	a5, a5, a3
0x8000147c: 00 47 97 93 slli	a5, a5, 4
0x80001480: 00 d7 87 b3 add	a5, a5, a3
0x80001484: 00 87 97 93 slli	a5, a5, 8
0x80001488: 40 d7 87 b3 sub	a5, a5, a3
0x8000148c: 00 27 97 93 slli	a5, a5, 2
0x80001490: 00 d7 87 b3 add	a5, a5, a3
0x80001494: 00 26 a6 b7 lui	a3, 618
0x80001498: ec 36 86 93 addi	a3, a3, -317
0x8000149c: 00 d7 87 b3 add	a5, a5, a3
0x800014a0: 00 17 95 13 slli	a0, a5, 1
0x800014a4: 00 f7 20 23 sw	a5, 0(a4)
0x800014a8: 01 15 55 13 srli	a0, a0, 17
0x800014ac: 00 00 80 67 jalr	zero, 0(ra)
0x800033a4: 00 05 04 13 addi	s0, a0, 0
0x800033a8: 8b 8f e0 ef jal	ra, 0x80001460
0x80001460: 00 00 67 17 auipc	a4, 6
0x80001464: b1 07 07 13 addi	a4, a4, -1264
0x80001468: 00 07 26 83 lw	a3, 0(a4)
0x8000146c: 00 16 97 93 slli	a5, a3, 1
0x80001470: 00 d7 87 b3 add	a5, a5, a3
0x80001474: 00 27 97 93 slli	a5, a5, 2
0x80001478: 00 d7 87 b3 add	a5, a5, a3
0x8000147c: 00 47 97 93 slli	a5, a5, 4
0x80001480: 00 d7 87 b3 add	a5, a5, a3
0x80001484: 00 87 97 93 slli	a5, a5, 8
0x80001488: 40 d7 87 b3 sub	a5, a5, a3
0x8000148c: 00 27 97 93 slli	a5, a5, 2
0x80001490: 00 d7 87 b3 add	a5, a5, a3
0x80001494: 00 26 a6 b7 lui	a3, 618
0x80001498: ec 36 86 93 addi	a3, a3, -317
0x8000149c: 00 d7 87 b3 add	a5, a5, a3
0x800014a0: 00 17 95 13 slli	a0, a5, 1
0x800014a4: 00 f7 20 23 sw	a5, 0(a4)
0x800014a8: 01 15 55 13 srli	a0, a0, 17
0x800014ac: 00 00 80 67 jalr	zero, 0(ra)
0x800033ac: 00 00 46 17 auipc	a2, 4
0x800033b0: f5 c6 06 13 addi	a2, a2, -164
0x800033b4: 00 06 27 83 lw	a5, 0(a2)
0x800033b8: 00 00 46 97 auipc	a3, 4
0x800033bc: f4 c6 86 93 addi	a3, a3, -180
0x800033c0: 00 24 95 93 slli	a1, s1, 2
0x800033c4: 01 04 14 13 slli	s0, s0, 16
0x800033c8: 00 06 a7 03 lw	a4, 0(a3)
0x800033cc: 00 b7 87 b3 add	a5, a5, a1
0x800033d0: 00 a4 64 33 or	s0, s0, a0
0x800033d4: 00 87 a0 23 sw	s0, 0(a5)
0x800033d8: 00 14 84 93 addi	s1, s1, 1
0x800033dc: fc e4 c2 e3 blt	s1, a4, 0x800033a0
0x800033a0: 8c 0f e0 ef jal	ra, 0x80001460
0x80001460: 00 00 67 17 auipc	a4, 6
0x80001464: b1 07 07 13 addi	a4, a4, -1264
0x80001468: 00 07 26 83 lw	a3, 0(a4)
0x8000146c: 00 16 97 93 slli	a5, a3, 1
0x80001470: 00 d7 87 b3 add	a5, a5, a3
0x80001474: 00 27 97 93 slli	a5, a5, 2
0x80001478: 00 d7 87 b3 add	a5, a5, a3
0x8000147c: 00 47 97 93 slli	a5, a5, 4
0x80001480: 00 d7 87 b3 add	a5, a5, a3
0x80001484: 00 87 97 93 slli	a5, a5, 8
0x80001488: 40 d7 87 b3 sub	a5, a5, a3
0x8000148c: 00 27 97 93 slli	a5, a5, 2
0x80001490: 00 d7 87 b3 add	a5, a5, a3
0x80001494: 00 26 a6 b7 lui	a3, 618
0x80001498: ec 36 86 93 addi	a3, a3, -317
0x8000149c: 00 d7 87 b3 add	a5, a5, a3
0x800014a0: 00 17 95 13 slli	a0, a5, 1
0x800014a4: 00 f7 20 23 sw	a5, 0(a4)
0x800014a8: 01 15 55 13 srli	a0, a0, 17
0x800014ac: 00 00 80 67 jalr	zero, 0(ra)
0x800033a4: 00 05 04 13 addi	s0, a0, 0
0x800033a8: 8b 8f e0 ef jal	ra, 0x80001460
0x80001460: 00 00 67 17 auipc	a4, 6
0x80001464: b1 07 07 13 addi	a4, a4, -1264
0x80001468: 00 07 26 83 lw	a3, 0(a4)
0x8000146c: 00 16 97 93 slli	a5, a3, 1
0x80001470: 00 d7 87 b3 add	a5, a5, a3
0x80001474: 00 27 97 93 slli	a5, a5, 2
0x80001478: 00 d7 87 b3 add	a5, a5, a3
0x8000147c: 00 47 97 93 slli	a5, a5, 4
0x80001480: 00 d7 87 b3 add	a5, a5, a3
0x80001484: 00 87 97 93 slli	a5, a5, 8
0x80001488: 40 d7 87 b3 sub	a5, a5, a3
0x8000148c: 00 27 97 93 slli	a5, a5, 2
0x80001490: 00 d7 87 b3 add	a5, a5, a3
0x80001494: 00 26 a6 b7 lui	a3, 618
0x80001498: ec 36 86 93 addi	a3, a3, -317
0x8000149c: 00 d7 87 b3 add	a5, a5, a3
0x800014a0: 00 17 95 13 slli	a0, a5, 1
0x800014a4: 00 f7 20 23 sw	a5, 0(a4)
0x800014a8: 01 15 55 13 srli	a0, a0, 17
0x800014ac: 00 00 80 67 jalr	zero, 0(ra)
0x800033ac: 00 00 46 17 auipc	a2, 4
0x800033b0: f5 c6 06 13 addi	a2, a2, -164
0x800033b4: 00 06 27 83 lw	a5, 0(a2)
0x800033b8: 00 00 46 97 auipc	a3, 4
0x800033bc: f4 c6 86 93 addi	a3, a3, -180
0x800033c0: 00 24 95 93 slli	a1, s1, 2
0x800033c4: 01 04 14 13 slli	s0, s0, 16
0x800033c8: 00 06 a7 03 lw	a4, 0(a3)
0x800033cc: 00 b7 87 b3 add	a5, a5, a1
0x800033d0: 00 a4 64 33 or	s0, s0, a0
0x800033d4: 00 87 a0 23 sw	s0, 0(a5)
0x800033d8: 00 14 84 93 addi	s1, s1, 1
0x800033dc: fc e4 c2 e3 blt	s1, a4, 0x800033a0
0x800033a0: 8c 0f e0 ef jal	ra, 0x80001460
0x80001460: 00 00 67 17 auipc	a4, 6
0x80001464: b1 07 07 13 addi	a4, a4, -1264
0x80001468: 00 07 26 83 lw	a3, 0(a4)
0x8000146c: 00 16 97 93 slli	a5, a3, 1
0x80001470: 00 d7 87 b3 add	a5, a5, a3
0x80001474: 00 27 97 93 slli	a5, a5, 2
0x80001478: 00 d7 87 b3 add	a5, a5, a3
0x8000147c: 00 47 97 93 slli	a5, a5, 4
0x80001480: 00 d7 87 b3 add	a5, a5, a3
0x80001484: 00 87 97 93 slli	a5, a5, 8
0x80001488: 40 d7 87 b3 sub	a5, a5, a3
0x8000148c: 00 27 97 93 slli	a5, a5, 2
0x80001490: 00 d7 87 b3 add	a5, a5, a3
0x80001494: 00 26 a6 b7 lui	a3, 618
0x80001498: ec 36 86 93 addi	a3, a3, -317
0x8000149c: 00 d7 87 b3 add	a5, a5, a3
0x800014a0: 00 17 95 13 slli	a0, a5, 1
0x800014a4: 00 f7 20 23 sw	a5, 0(a4)
0x800014a8: 01 15 55 13 srli	a0, a0, 17
0x800014ac: 00 00 80 67 jalr	zero, 0(ra)
0x800033a4: 00 05 04 13 addi	s0, a0, 0
0x800033a8: 8b 8f e0 ef jal	ra, 0x80001460
0x80001460: 00 00 67 17 auipc	a4, 6
0x80001464: b1 07 07 13 addi	a4, a4, -1264
0x80001468: 00 07 26 83 lw	a3, 0(a4)
0x8000146c: 00 16 97 93 slli	a5, a3, 1
0x80001470: 00 d7 87 b3 add	a5, a5, a3
0x80001474: 00 27 97 93 slli	a5, a5, 2
0x80001478: 00 d7 87 b3 add	a5, a5, a3
0x8000147c: 00 47 97 93 slli	a5, a5, 4
0x80001480: 00 d7 87 b3 add	a5, a5, a3
0x80001484: 00 87 97 93 slli	a5, a5, 8
0x80001488: 40 d7 87 b3 sub	a5, a5, a3
0x8000148c: 00 27 97 93 slli	a5, a5, 2
0x80001490: 00 d7 87 b3 add	a5, a5, a3
0x80001494: 00 26 a6 b7 lui	a3, 618
0x80001498: ec 36 86 93 addi	a3, a3, -317
0x8000149c: 00 d7 87 b3 add	a5, a5, a3
0x800014a0: 00 17 95 13 slli	a0, a5, 1
0x800014a4: 00 f7 20 23 sw	a5, 0(a4)
0x800014a8: 01 15 55 13 srli	a0, a0, 17
0x800014ac: 00 00 80 67 jalr	zero, 0(ra)
0x800033ac: 00 00 46 17 auipc	a2, 4
0x800033b0: f5 c6 06 13 addi	a2, a2, -164
0x800033b4: 00 06 27 83 lw	a5, 0(a2)
0x800033b8: 00 00 46 97 auipc	a3, 4
0x800033bc: f4 c6 86 93 addi	a3, a3, -180
0x800033c0: 00 24 95 93 slli	a1, s1, 2
0x800033c4: 01 04 14 13 slli	s0, s0, 16
0x800033c8: 00 06 a7 03 lw	a4, 0(a3)
0x800033cc: 00 b7 87 b3 add	a5, a5, a1
0x800033d0: 00 a4 64 33 or	s0, s0, a0
0x800033d4: 00 87 a0 23 sw	s0, 0(a5)
0x800033d8: 00 14 84 93 addi	s1, s1, 1
0x800033dc: fc e4 c2 e3 blt	s1, a4, 0x800033a0
0x800033a0: 8c 0f e0 ef jal	ra, 0x80001460
0x80001460: 00 00 67 17 auipc	a4, 6
0x80001464: b1 07 07 13 addi	a4, a4, -1264
0x80001468: 00 07 26 83 lw	a3, 0(a4)
0x8000146c: 00 16 97 93 slli	a5, a3, 1
0x80001470: 00 d7 87 b3 add	a5, a5, a3
0x80001474: 00 27 97 93 slli	a5, a5, 2
0x80001478: 00 d7 87 b3 add	a5, a5, a3
0x8000147c: 00 47 97 93 slli	a5, a5, 4
0x80001480: 00 d7 87 b3 add	a5, a5, a3
0x80001484: 00 87 97 93 slli	a5, a5, 8
0x80001488: 40 d7 87 b3 sub	a5, a5, a3
0x8000148c: 00 27 97 93 slli	a5, a5, 2
0x80001490: 00 d7 87 b3 add	a5, a5, a3
0x80001494: 00 26 a6 b7 lui	a3, 618
0x80001498: ec 36 86 93 addi	a3, a3, -317
0x8000149c: 00 d7 87 b3 add	a5, a5, a3
0x800014a0: 00 17 95 13 slli	a0, a5, 1
0x800014a4: 00 f7 20 23 sw	a5, 0(a4)
0x800014a8: 01 15 55 13 srli	a0, a0, 17
0x800014ac: 00 00 80 67 jalr	zero, 0(ra)
0x800033a4: 00 05 04 13 addi	s0, a0, 0
0x800033a8: 8b 8f e0 ef jal	ra, 0x80001460
0x80001460: 00 00 67 17 auipc	a4, 6
0x80001464: b1 07 07 13 addi	a4, a4, -1264
0x80001468: 00 07 26 83 lw	a3, 0(a4)
0x8000146c: 00 16 97 93 slli	a5, a3, 1
0x80001470: 00 d7 87 b3 add	a5, a5, a3
0x80001474: 00 27 97 93 slli	a5, a5, 2
0x80001478: 00 d7 87 b3 add	a5, a5, a3
0x8000147c: 00 47 97 93 slli	a5, a5, 4
0x80001480: 00 d7 87 b3 add	a5, a5, a3
0x80001484: 00 87 97 93 slli	a5, a5, 8
0x80001488: 40 d7 87 b3 sub	a5, a5, a3
0x8000148c: 00 27 97 93 slli	a5, a5, 2
0x80001490: 00 d7 87 b3 add	a5, a5, a3
0x80001494: 00 26 a6 b7 lui	a3, 618
0x80001498: ec 36 86 93 addi	a3, a3, -317
0x8000149c: 00 d7 87 b3 add	a5, a5, a3
0x800014a0: 00 17 95 13 slli	a0, a5, 1
0x800014a4: 00 f7 20 23 sw	a5, 0(a4)
0x800014a8: 01 15 55 13 srli	a0, a0, 17
0x800014ac: 00 00 80 67 jalr	zero, 0(ra)
0x800033ac: 00 00 46 17 auipc	a2, 4
0x800033b0: f5 c6 06 13 addi	a2, a2, -164
0x800033b4: 00 06 27 83 lw	a5, 0(a2)
0x800033b8: 00 00 46 97 auipc	a3, 4
0x800033bc: f4 c6 86 93 addi	a3, a3, -180
0x800033c0: 00 24 95 93 slli	a1, s1, 2
0x800033c4: 01 04 14 13 slli	s0, s0, 16
0x800033c8: 00 06 a7 03 lw	a4, 0(a3)
0x800033cc: 00 b7 87 b3 add	a5, a5, a1
0x800033d0: 00 a4 64 33 or	s0, s0, a0
0x800033d4: 00 87 a0 23 sw	s0, 0(a5)
0x800033d8: 00 14 84 93 addi	s1, s1, 1
0x800033dc: fc e4 c2 e3 blt	s1, a4, 0x800033a0
0x800033a0: 8c 0f e0 ef jal	ra, 0x80001460
0x80001460: 00 00 67 17 auipc	a4, 6
0x80001464: b1 07 07 13 addi	a4, a4, -1264
0x80001468: 00 07 26 83 lw	a3, 0(a4)
0x8000146c: 00 16 97 93 slli	a5, a3, 1
0x80001470: 00 d7 87 b3 add	a5, a5, a3
0x80001474: 00 27 97 93 slli	a5, a5, 2
0x80001478: 00 d7 87 b3 add	a5, a5, a3
0x8000147c: 00 47 97 93 slli	a5, a5, 4
0x80001480: 00 d7 87 b3 add	a5, a5, a3
0x80001484: 00 87 97 93 slli	a5, a5, 8
0x80001488: 40 d7 87 b3 sub	a5, a5, a3
0x8000148c: 00 27 97 93 slli	a5, a5, 2
0x80001490: 00 d7 87 b3 add	a5, a5, a3
0x80001494: 00 26 a6 b7 lui	a3, 618
0x80001498: ec 36 86 93 addi	a3, a3, -317
0x8000149c: 00 d7 87 b3 add	a5, a5, a3
0x800014a0: 00 17 95 13 slli	a0, a5, 1
0x800014a4: 00 f7 20 23 sw	a5, 0(a4)
0x800014a8: 01 15 55 13 srli	a0, a0, 17
0x800014ac: 00 00 80 67 jalr	zero, 0(ra)
0x800033a4: 00 05 04 13 addi	s0, a0, 0
0x800033a8: 8b 8f e0 ef jal	ra, 0x80001460
0x80001460: 00 00 67 17 auipc	a4, 6
0x80001464: b1 07 07 13 addi	a4, a4, -1264
0x80001468: 00 07 26 83 lw	a3, 0(a4)
0x8000146c: 00 16 97 93 slli	a5, a3, 1
0x80001470: 00 d7 87 b3 add	a5, a5, a3
0x80001474: 00 27 97 93 slli	a5, a5, 2
0x80001478: 00 d7 87 b3 add	a5, a5, a3
0x8000147c: 00 47 97 93 slli	a5, a5, 4
0x80001480: 00 d7 87 b3 add	a5, a5, a3
0x80001484: 00 87 97 93 slli	a5, a5, 8
0x80001488: 40 d7 87 b3 sub	a5, a5, a3
0x8000148c: 00 27 97 93 slli	a5, a5, 2
0x80001490: 00 d7 87 b3 add	a5, a5, a3
0x80001494: 00 26 a6 b7 lui	a3, 618
0x80001498: ec 36 86 93 addi	a3, a3, -317
0x8000149c: 00 d7 87 b3 add	a5, a5, a3
0x800014a0: 00 17 95 13 slli	a0, a5, 1
0x800014a4: 00 f7 20 23 sw	a5, 0(a4)
0x800014a8: 01 15 55 13 srli	a0, a0, 17
0x800014ac: 00 00 80 67 jalr	zero, 0(ra)
0x800033ac: 00 00 46 17 auipc	a2, 4
0x800033b0: f5 c6 06 13 addi	a2, a2, -164
0x800033b4: 00 06 27 83 lw	a5, 0(a2)
0x800033b8: 00 00 46 97 auipc	a3, 4
0x800033bc: f4 c6 86 93 addi	a3, a3, -180
0x800033c0: 00 24 95 93 slli	a1, s1, 2
0x800033c4: 01 04 14 13 slli	s0, s0, 16
0x800033c8: 00 06 a7 03 lw	a4, 0(a3)
0x800033cc: 00 b7 87 b3 add	a5, a5, a1
0x800033d0: 00 a4 64 33 or	s0, s0, a0
0x800033d4: 00 87 a0 23 sw	s0, 0(a5)
0x800033d8: 00 14 84 93 addi	s1, s1, 1
0x800033dc: fc e4 c2 e3 blt	s1, a4, 0x800033a0
0x800033a0: 8c 0f e0 ef jal	ra, 0x80001460
0x80001460: 00 00 67 17 auipc	a4, 6
0x80001464: b1 07 07 13 addi	a4, a4, -1264
0x80001468: 00 07 26 83 lw	a3, 0(a4)
0x8000146c: 00 16 97 93 slli	a5, a3, 1
0x80001470: 00 d7 87 b3 add	a5, a5, a3
0x80001474: 00 27 97 93 slli	a5, a5, 2
0x80001478: 00 d7 87 b3 add	a5, a5, a3
0x8000147c: 00 47 97 93 slli	a5, a5, 4
0x80001480: 00 d7 87 b3 add	a5, a5, a3
0x80001484: 00 87 97 93 slli	a5, a5, 8
0x80001488: 40 d7 87 b3 sub	a5, a5, a3
0x8000148c: 00 27 97 93 slli	a5, a5, 2
0x80001490: 00 d7 87 b3 add	a5, a5, a3
0x80001494: 00 26 a6 b7 lui	a3, 618
0x80001498: ec 36 86 93 addi	a3, a3, -317
0x8000149c: 00 d7 87 b3 add	a5, a5, a3
0x800014a0: 00 17 95 13 slli	a0, a5, 1
0x800014a4: 00 f7 20 23 sw	a5, 0(a4)
0x800014a8: 01 15 55 13 srli	a0, a0, 17
0x800014ac: 00 00 80 67 jalr	zero, 0(ra)
0x800033a4: 00 05 04 13 addi	s0, a0, 0
0x800033a8: 8b 8f e0 ef jal	ra, 0x80001460
0x80001460: 00 00 67 17 auipc	a4, 6
0x80001464: b1 07 07 13 addi	a4, a4, -1264
0x80001468: 00 07 26 83 lw	a3, 0(a4)
0x8000146c: 00 16 97 93 slli	a5, a3, 1
0x80001470: 00 d7 87 b3 add	a5, a5, a3
0x80001474: 00 27 97 93 slli	a5, a5, 2
0x80001478: 00 d7 87 b3 add	a5, a5, a3
0x8000147c: 00 47 97 93 slli	a5, a5, 4
0x80001480: 00 d7 87 b3 add	a5, a5, a3
0x80001484: 00 87 97 93 slli	a5, a5, 8
0x80001488: 40 d7 87 b3 sub	a5, a5, a3
0x8000148c: 00 27 97 93 slli	a5, a5, 2
0x80001490: 00 d7 87 b3 add	a5, a5, a3
0x80001494: 00 26 a6 b7 lui	a3, 618
0x80001498: ec 36 86 93 addi	a3, a3, -317
0x8000149c: 00 d7 87 b3 add	a5, a5, a3
0x800014a0: 00 17 95 13 slli	a0, a5, 1
0x800014a4: 00 f7 20 23 sw	a5, 0(a4)
0x800014a8: 01 15 55 13 srli	a0, a0, 17
0x800014ac: 00 00 80 67 jalr	zero, 0(ra)
0x800033ac: 00 00 46 17 auipc	a2, 4
0x800033b0: f5 c6 06 13 addi	a2, a2, -164
0x800033b4: 00 06 27 83 lw	a5, 0(a2)
0x800033b8: 00 00 46 97 auipc	a3, 4
0x800033bc: f4 c6 86 93 addi	a3, a3, -180
0x800033c0: 00 24 95 93 slli	a1, s1, 2
0x800033c4: 01 04 14 13 slli	s0, s0, 16
0x800033c8: 00 06 a7 03 lw	a4, 0(a3)
0x800033cc: 00 b7 87 b3 add	a5, a5, a1
0x800033d0: 00 a4 64 33 or	s0, s0, a0
0x800033d4: 00 87 a0 23 sw	s0, 0(a5)
0x800033d8: 00 14 84 93 addi	s1, s1, 1
0x800033dc: fc e4 c2 e3 blt	s1, a4, 0x800033a0
0x800033a0: 8c 0f e0 ef jal	ra, 0x80001460
0x80001460: 00 00 67 17 auipc	a4, 6
0x80001464: b1 07 07 13 addi	a4, a4, -1264
0x80001468: 00 07 26 83 lw	a3, 0(a4)
0x8000146c: 00 16 97 93 slli	a5, a3, 1
0x80001470: 00 d7 87 b3 add	a5, a5, a3
0x80001474: 00 27 97 93 slli	a5, a5, 2
0x80001478: 00 d7 87 b3 add	a5, a5, a3
0x8000147c: 00 47 97 93 slli	a5, a5, 4
0x80001480: 00 d7 87 b3 add	a5, a5, a3
0x80001484: 00 87 97 93 slli	a5, a5, 8
0x80001488: 40 d7 87 b3 sub	a5, a5, a3
0x8000148c: 00 27 97 93 slli	a5, a5, 2
0x80001490: 00 d7 87 b3 add	a5, a5, a3
0x80001494: 00 26 a6 b7 lui	a3, 618
0x80001498: ec 36 86 93 addi	a3, a3, -317
0x8000149c: 00 d7 87 b3 add	a5, a5, a3
0x800014a0: 00 17 95 13 slli	a0, a5, 1
0x800014a4: 00 f7 20 23 sw	a5, 0(a4)
0x800014a8: 01 15 55 13 srli	a0, a0, 17
0x800014ac: 00 00 80 67 jalr	zero, 0(ra)
0x800033a4: 00 05 04 13 addi	s0, a0, 0
0x800033a8: 8b 8f e0 ef jal	ra, 0x80001460
0x80001460: 00 00 67 17 auipc	a4, 6
0x80001464: b1 07 07 13 addi	a4, a4, -1264
0x80001468: 00 07 26 83 lw	a3, 0(a4)
0x8000146c: 00 16 97 93 slli	a5, a3, 1
0x80001470: 00 d7 87 b3 add	a5, a5, a3
0x80001474: 00 27 97 93 slli	a5, a5, 2
0x80001478: 00 d7 87 b3 add	a5, a5, a3
0x8000147c: 00 47 97 93 slli	a5, a5, 4
0x80001480: 00 d7 87 b3 add	a5, a5, a3
0x80001484: 00 87 97 93 slli	a5, a5, 8
0x80001488: 40 d7 87 b3 sub	a5, a5, a3
0x8000148c: 00 27 97 93 slli	a5, a5, 2
0x80001490: 00 d7 87 b3 add	a5, a5, a3
0x80001494: 00 26 a6 b7 lui	a3, 618
0x80001498: ec 36 86 93 addi	a3, a3, -317
0x8000149c: 00 d7 87 b3 add	a5, a5, a3
0x800014a0: 00 17 95 13 slli	a0, a5, 1
0x800014a4: 00 f7 20 23 sw	a5, 0(a4)
0x800014a8: 01 15 55 13 srli	a0, a0, 17
0x800014ac: 00 00 80 67 jalr	zero, 0(ra)
0x800033ac: 00 00 46 17 auipc	a2, 4
0x800033b0: f5 c6 06 13 addi	a2, a2, -164
0x800033b4: 00 06 27 83 lw	a5, 0(a2)
0x800033b8: 00 00 46 97 auipc	a3, 4
0x800033bc: f4 c6 86 93 addi	a3, a3, -180
0x800033c0: 00 24 95 93 slli	a1, s1, 2
0x800033c4: 01 04 14 13 slli	s0, s0, 16
0x800033c8: 00 06 a7 03 lw	a4, 0(a3)
0x800033cc: 00 b7 87 b3 add	a5, a5, a1
0x800033d0: 00 a4 64 33 or	s0, s0, a0
0x800033d4: 00 87 a0 23 sw	s0, 0(a5)
0x800033d8: 00 14 84 93 addi	s1, s1, 1
0x800033dc: fc e4 c2 e3 blt	s1, a4, 0x800033a0
0x800033a0: 8c 0f e0 ef jal	ra, 0x80001460
0x80001460: 00 00 67 17 auipc	a4, 6
0x80001464: b1 07 07 13 addi	a4, a4, -1264
0x80001468: 00 07 26 83 lw	a3, 0(a4)
0x8000146c: 00 16 97 93 slli	a5, a3, 1
0x80001470: 00 d7 87 b3 add	a5, a5, a3
0x80001474: 00 27 97 93 slli	a5, a5, 2
0x80001478: 00 d7 87 b3 add	a5, a5, a3
0x8000147c: 00 47 97 93 slli	a5, a5, 4
0x80001480: 00 d7 87 b3 add	a5, a5, a3
0x80001484: 00 87 97 93 slli	a5, a5, 8
0x80001488: 40 d7 87 b3 sub	a5, a5, a3
0x8000148c: 00 27 97 93 slli	a5, a5, 2
0x80001490: 00 d7 87 b3 add	a5, a5, a3
0x80001494: 00 26 a6 b7 lui	a3, 618
0x80001498: ec 36 86 93 addi	a3, a3, -317
0x8000149c: 00 d7 87 b3 add	a5, a5, a3
0x800014a0: 00 17 95 13 slli	a0, a5, 1
0x800014a4: 00 f7 20 23 sw	a5, 0(a4)
0x800014a8: 01 15 55 13 srli	a0, a0, 17
0x800014ac: 00 00 80 67 jalr	zero, 0(ra)
0x800033a4: 00 05 04 13 addi	s0, a0, 0
0x800033a8: 8b 8f e0 ef jal	ra, 0x80001460
0x80001460: 00 00 67 17 auipc	a4, 6
0x80001464: b1 07 07 13 addi	a4, a4, -1264
0x80001468: 00 07 26 83 lw	a3, 0(a4)
0x8000146c: 00 16 97 93 slli	a5, a3, 1
0x80001470: 00 d7 87 b3 add	a5, a5, a3
0x80001474: 00 27 97 93 slli	a5, a5, 2
0x80001478: 00 d7 87 b3 add	a5, a5, a3
0x8000147c: 00 47 97 93 slli	a5, a5, 4
0x80001480: 00 d7 87 b3 add	a5, a5, a3
0x80001484: 00 87 97 93 slli	a5, a5, 8
0x80001488: 40 d7 87 b3 sub	a5, a5, a3
0x8000148c: 00 27 97 93 slli	a5, a5, 2
0x80001490: 00 d7 87 b3 add	a5, a5, a3
0x80001494: 00 26 a6 b7 lui	a3, 618
0x80001498: ec 36 86 93 addi	a3, a3, -317
0x8000149c: 00 d7 87 b3 add	a5, a5, a3
0x800014a0: 00 17 95 13 slli	a0, a5, 1
0x800014a4: 00 f7 20 23 sw	a5, 0(a4)
0x800014a8: 01 15 55 13 srli	a0, a0, 17
0x800014ac: 00 00 80 67 jalr	zero, 0(ra)
0x800033ac: 00 00 46 17 auipc	a2, 4
0x800033b0: f5 c6 06 13 addi	a2, a2, -164
0x800033b4: 00 06 27 83 lw	a5, 0(a2)
0x800033b8: 00 00 46 97 auipc	a3, 4
0x800033bc: f4 c6 86 93 addi	a3, a3, -180
0x800033c0: 00 24 95 93 slli	a1, s1, 2
0x800033c4: 01 04 14 13 slli	s0, s0, 16
0x800033c8: 00 06 a7 03 lw	a4, 0(a3)
0x800033cc: 00 b7 87 b3 add	a5, a5, a1
0x800033d0: 00 a4 64 33 or	s0, s0, a0
0x800033d4: 00 87 a0 23 sw	s0, 0(a5)
0x800033d8: 00 14 84 93 addi	s1, s1, 1
0x800033dc: fc e4 c2 e3 blt	s1, a4, 0x800033a0
0x800033a0: 8c 0f e0 ef jal	ra, 0x80001460
0x80001460: 00 00 67 17 auipc	a4, 6
0x80001464: b1 07 07 13 addi	a4, a4, -1264
0x80001468: 00 07 26 83 lw	a3, 0(a4)
0x8000146c: 00 16 97 93 slli	a5, a3, 1
0x80001470: 00 d7 87 b3 add	a5, a5, a3
0x80001474: 00 27 97 93 slli	a5, a5, 2
0x80001478: 00 d7 87 b3 add	a5, a5, a3
0x8000147c: 00 47 97 93 slli	a5, a5, 4
0x80001480: 00 d7 87 b3 add	a5, a5, a3
0x80001484: 00 87 97 93 slli	a5, a5, 8
0x80001488: 40 d7 87 b3 sub	a5, a5, a3
0x8000148c: 00 27 97 93 slli	a5, a5, 2
0x80001490: 00 d7 87 b3 add	a5, a5, a3
0x80001494: 00 26 a6 b7 lui	a3, 618
0x80001498: ec 36 86 93 addi	a3, a3, -317
0x8000149c: 00 d7 87 b3 add	a5, a5, a3
0x800014a0: 00 17 95 13 slli	a0, a5, 1
0x800014a4: 00 f7 20 23 sw	a5, 0(a4)
0x800014a8: 01 15 55 13 srli	a0, a0, 17
0x800014ac: 00 00 80 67 jalr	zero, 0(ra)
0x800033a4: 00 05 04 13 addi	s0, a0, 0
0x800033a8: 8b 8f e0 ef jal	ra, 0x80001460
0x80001460: 00 00 67 17 auipc	a4, 6
0x80001464: b1 07 07 13 addi	a4, a4, -1264
0x80001468: 00 07 26 83 lw	a3, 0(a4)
0x8000146c: 00 16 97 93 slli	a5, a3, 1
0x80001470: 00 d7 87 b3 add	a5, a5, a3
0x80001474: 00 27 97 93 slli	a5, a5, 2
0x80001478: 00 d7 87 b3 add	a5, a5, a3
0x8000147c: 00 47 97 93 slli	a5, a5, 4
0x80001480: 00 d7 87 b3 add	a5, a5, a3
0x80001484: 00 87 97 93 slli	a5, a5, 8
0x80001488: 40 d7 87 b3 sub	a5, a5, a3
0x8000148c: 00 27 97 93 slli	a5, a5, 2
0x80001490: 00 d7 87 b3 add	a5, a5, a3
0x80001494: 00 26 a6 b7 lui	a3, 618
0x80001498: ec 36 86 93 addi	a3, a3, -317
0x8000149c: 00 d7 87 b3 add	a5, a5, a3
0x800014a0: 00 17 95 13 slli	a0, a5, 1
0x800014a4: 00 f7 20 23 sw	a5, 0(a4)
0x800014a8: 01 15 55 13 srli	a0, a0, 17
0x800014ac: 00 00 80 67 jalr	zero, 0(ra)
0x800033ac: 00 00 46 17 auipc	a2, 4
0x800033b0: f5 c6 06 13 addi	a2, a2, -164
0x800033b4: 00 06 27 83 lw	a5, 0(a2)
0x800033b8: 00 00 46 97 auipc	a3, 4
0x800033bc: f4 c6 86 93 addi	a3, a3, -180
0x800033c0: 00 24 95 93 slli	a1, s1, 2
0x800033c4: 01 04 14 13 slli	s0, s0, 16
0x800033c8: 00 06 a7 03 lw	a4, 0(a3)
0x800033cc: 00 b7 87 b3 add	a5, a5, a1
0x800033d0: 00 a4 64 33 or	s0, s0, a0
0x800033d4: 00 87 a0 23 sw	s0, 0(a5)
0x800033d8: 00 14 84 93 addi	s1, s1, 1
0x800033dc: fc e4 c2 e3 blt	s1, a4, 0x800033a0
0x800033a0: 8c 0f e0 ef jal	ra, 0x80001460
0x80001460: 00 00 67 17 auipc	a4, 6
0x80001464: b1 07 07 13 addi	a4, a4, -1264
0x80001468: 00 07 26 83 lw	a3, 0(a4)
0x8000146c: 00 16 97 93 slli	a5, a3, 1
0x80001470: 00 d7 87 b3 add	a5, a5, a3
0x80001474: 00 27 97 93 slli	a5, a5, 2
0x80001478: 00 d7 87 b3 add	a5, a5, a3
0x8000147c: 00 47 97 93 slli	a5, a5, 4
0x80001480: 00 d7 87 b3 add	a5, a5, a3
0x80001484: 00 87 97 93 slli	a5, a5, 8
0x80001488: 40 d7 87 b3 sub	a5, a5, a3
0x8000148c: 00 27 97 93 slli	a5, a5, 2
0x80001490: 00 d7 87 b3 add	a5, a5, a3
0x80001494: 00 26 a6 b7 lui	a3, 618
0x80001498: ec 36 86 93 addi	a3, a3, -317
0x8000149c: 00 d7 87 b3 add	a5, a5, a3
0x800014a0: 00 17 95 13 slli	a0, a5, 1
0x800014a4: 00 f7 20 23 sw	a5, 0(a4)
0x800014a8: 01 15 55 13 srli	a0, a0, 17
0x800014ac: 00 00 80 67 jalr	zero, 0(ra)
0x800033a4: 00 05 04 13 addi	s0, a0, 0
0x800033a8: 8b 8f e0 ef jal	ra, 0x80001460
0x80001460: 00 00 67 17 auipc	a4, 6
0x80001464: b1 07 07 13 addi	a4, a4, -1264
0x80001468: 00 07 26 83 lw	a3, 0(a4)
0x8000146c: 00 16 97 93 slli	a5, a3, 1
0x80001470: 00 d7 87 b3 add	a5, a5, a3
0x80001474: 00 27 97 93 slli	a5, a5, 2
0x80001478: 00 d7 87 b3 add	a5, a5, a3
0x8000147c: 00 47 97 93 slli	a5, a5, 4
0x80001480: 00 d7 87 b3 add	a5, a5, a3
0x80001484: 00 87 97 93 slli	a5, a5, 8
0x80001488: 40 d7 87 b3 sub	a5, a5, a3
0x8000148c: 00 27 97 93 slli	a5, a5, 2
0x80001490: 00 d7 87 b3 add	a5, a5, a3
0x80001494: 00 26 a6 b7 lui	a3, 618
0x80001498: ec 36 86 93 addi	a3, a3, -317
0x8000149c: 00 d7 87 b3 add	a5, a5, a3
0x800014a0: 00 17 95 13 slli	a0, a5, 1
0x800014a4: 00 f7 20 23 sw	a5, 0(a4)
0x800014a8: 01 15 55 13 srli	a0, a0, 17
0x800014ac: 00 00 80 67 jalr	zero, 0(ra)
0x800033ac: 00 00 46 17 auipc	a2, 4
0x800033b0: f5 c6 06 13 addi	a2, a2, -164
0x800033b4: 00 06 27 83 lw	a5, 0(a2)
0x800033b8: 00 00 46 97 auipc	a3, 4
0x800033bc: f4 c6 86 93 addi	a3, a3, -180
0x800033c0: 00 24 95 93 slli	a1, s1, 2
0x800033c4: 01 04 14 13 slli	s0, s0, 16
0x800033c8: 00 06 a7 03 lw	a4, 0(a3)
0x800033cc: 00 b7 87 b3 add	a5, a5, a1
0x800033d0: 00 a4 64 33 or	s0, s0, a0
0x800033d4: 00 87 a0 23 sw	s0, 0(a5)
0x800033d8: 00 14 84 93 addi	s1, s1, 1
0x800033dc: fc e4 c2 e3 blt	s1, a4, 0x800033a0
0x800033a0: 8c 0f e0 ef jal	ra, 0x80001460
0x80001460: 00 00 67 17 auipc	a4, 6
0x80001464: b1 07 07 13 addi	a4, a4, -1264
0x80001468: 00 07 26 83 lw	a3, 0(a4)
0x8000146c: 00 16 97 93 slli	a5, a3, 1
0x80001470: 00 d7 87 b3 add	a5, a5, a3
0x80001474: 00 27 97 93 slli	a5, a5, 2
0x80001478: 00 d7 87 b3 add	a5, a5, a3
0x8000147c: 00 47 97 93 slli	a5, a5, 4
0x80001480: 00 d7 87 b3 add	a5, a5, a3
0x80001484: 00 87 97 93 slli	a5, a5, 8
0x80001488: 40 d7 87 b3 sub	a5, a5, a3
0x8000148c: 00 27 97 93 slli	a5, a5, 2
0x80001490: 00 d7 87 b3 add	a5, a5, a3
0x80001494: 00 26 a6 b7 lui	a3, 618
0x80001498: ec 36 86 93 addi	a3, a3, -317
0x8000149c: 00 d7 87 b3 add	a5, a5, a3
0x800014a0: 00 17 95 13 slli	a0, a5, 1
0x800014a4: 00 f7 20 23 sw	a5, 0(a4)
0x800014a8: 01 15 55 13 srli	a0, a0, 17
0x800014ac: 00 00 80 67 jalr	zero, 0(ra)
0x800033a4: 00 05 04 13 addi	s0, a0, 0
0x800033a8: 8b 8f e0 ef jal	ra, 0x80001460
0x80001460: 00 00 67 17 auipc	a4, 6
0x80001464: b1 07 07 13 addi	a4, a4, -1264
0x80001468: 00 07 26 83 lw	a3, 0(a4)
0x8000146c: 00 16 97 93 slli	a5, a3, 1
0x80001470: 00 d7 87 b3 add	a5, a5, a3
0x80001474: 00 27 97 93 slli	a5, a5, 2
0x80001478: 00 d7 87 b3 add	a5, a5, a3
0x8000147c: 00 47 97 93 slli	a5, a5, 4
0x80001480: 00 d7 87 b3 add	a5, a5, a3
0x80001484: 00 87 97 93 slli	a5, a5, 8
0x80001488: 40 d7 87 b3 sub	a5, a5, a3
0x8000148c: 00 27 97 93 slli	a5, a5, 2
0x80001490: 00 d7 87 b3 add	a5, a5, a3
0x80001494: 00 26 a6 b7 lui	a3, 618
0x80001498: ec 36 86 93 addi	a3, a3, -317
0x8000149c: 00 d7 87 b3 add	a5, a5, a3
0x800014a0: 00 17 95 13 slli	a0, a5, 1
0x800014a4: 00 f7 20 23 sw	a5, 0(a4)
0x800014a8: 01 15 55 13 srli	a0, a0, 17
0x800014ac: 00 00 80 67 jalr	zero, 0(ra)
0x800033ac: 00 00 46 17 auipc	a2, 4
0x800033b0: f5 c6 06 13 addi	a2, a2, -164
0x800033b4: 00 06 27 83 lw	a5, 0(a2)
0x800033b8: 00 00 46 97 auipc	a3, 4
0x800033bc: f4 c6 86 93 addi	a3, a3, -180
0x800033c0: 00 24 95 93 slli	a1, s1, 2
0x800033c4: 01 04 14 13 slli	s0, s0, 16
0x800033c8: 00 06 a7 03 lw	a4, 0(a3)
0x800033cc: 00 b7 87 b3 add	a5, a5, a1
0x800033d0: 00 a4 64 33 or	s0, s0, a0
0x800033d4: 00 87 a0 23 sw	s0, 0(a5)
0x800033d8: 00 14 84 93 addi	s1, s1, 1
0x800033dc: fc e4 c2 e3 blt	s1, a4, 0x800033a0
0x800033a0: 8c 0f e0 ef jal	ra, 0x80001460
0x80001460: 00 00 67 17 auipc	a4, 6
0x80001464: b1 07 07 13 addi	a4, a4, -1264
0x80001468: 00 07 26 83 lw	a3, 0(a4)
0x8000146c: 00 16 97 93 slli	a5, a3, 1
0x80001470: 00 d7 87 b3 add	a5, a5, a3
0x80001474: 00 27 97 93 slli	a5, a5, 2
0x80001478: 00 d7 87 b3 add	a5, a5, a3
0x8000147c: 00 47 97 93 slli	a5, a5, 4
0x80001480: 00 d7 87 b3 add	a5, a5, a3
0x80001484: 00 87 97 93 slli	a5, a5, 8
0x80001488: 40 d7 87 b3 sub	a5, a5, a3
0x8000148c: 00 27 97 93 slli	a5, a5, 2
0x80001490: 00 d7 87 b3 add	a5, a5, a3
0x80001494: 00 26 a6 b7 lui	a3, 618
0x80001498: ec 36 86 93 addi	a3, a3, -317
0x8000149c: 00 d7 87 b3 add	a5, a5, a3
0x800014a0: 00 17 95 13 slli	a0, a5, 1
0x800014a4: 00 f7 20 23 sw	a5, 0(a4)
0x800014a8: 01 15 55 13 srli	a0, a0, 17
0x800014ac: 00 00 80 67 jalr	zero, 0(ra)
0x800033a4: 00 05 04 13 addi	s0, a0, 0
0x800033a8: 8b 8f e0 ef jal	ra, 0x80001460
0x80001460: 00 00 67 17 auipc	a4, 6
0x80001464: b1 07 07 13 addi	a4, a4, -1264
0x80001468: 00 07 26 83 lw	a3, 0(a4)
0x8000146c: 00 16 97 93 slli	a5, a3, 1
0x80001470: 00 d7 87 b3 add	a5, a5, a3
0x80001474: 00 27 97 93 slli	a5, a5, 2
0x80001478: 00 d7 87 b3 add	a5, a5, a3
0x8000147c: 00 47 97 93 slli	a5, a5, 4
0x80001480: 00 d7 87 b3 add	a5, a5, a3
0x80001484: 00 87 97 93 slli	a5, a5, 8
0x80001488: 40 d7 87 b3 sub	a5, a5, a3
0x8000148c: 00 27 97 93 slli	a5, a5, 2
0x80001490: 00 d7 87 b3 add	a5, a5, a3
0x80001494: 00 26 a6 b7 lui	a3, 618
0x80001498: ec 36 86 93 addi	a3, a3, -317
0x8000149c: 00 d7 87 b3 add	a5, a5, a3
0x800014a0: 00 17 95 13 slli	a0, a5, 1
0x800014a4: 00 f7 20 23 sw	a5, 0(a4)
0x800014a8: 01 15 55 13 srli	a0, a0, 17
0x800014ac: 00 00 80 67 jalr	zero, 0(ra)
0x800033ac: 00 00 46 17 auipc	a2, 4
0x800033b0: f5 c6 06 13 addi	a2, a2, -164
0x800033b4: 00 06 27 83 lw	a5, 0(a2)
0x800033b8: 00 00 46 97 auipc	a3, 4
0x800033bc: f4 c6 86 93 addi	a3, a3, -180
0x800033c0: 00 24 95 93 slli	a1, s1, 2
0x800033c4: 01 04 14 13 slli	s0, s0, 16
0x800033c8: 00 06 a7 03 lw	a4, 0(a3)
0x800033cc: 00 b7 87 b3 add	a5, a5, a1
0x800033d0: 00 a4 64 33 or	s0, s0, a0
0x800033d4: 00 87 a0 23 sw	s0, 0(a5)
0x800033d8: 00 14 84 93 addi	s1, s1, 1
0x800033dc: fc e4 c2 e3 blt	s1, a4, 0x800033a0
0x800033a0: 8c 0f e0 ef jal	ra, 0x80001460
0x80001460: 00 00 67 17 auipc	a4, 6
0x80001464: b1 07 07 13 addi	a4, a4, -1264
0x80001468: 00 07 26 83 lw	a3, 0(a4)
0x8000146c: 00 16 97 93 slli	a5, a3, 1
0x80001470: 00 d7 87 b3 add	a5, a5, a3
0x80001474: 00 27 97 93 slli	a5, a5, 2
0x80001478: 00 d7 87 b3 add	a5, a5, a3
0x8000147c: 00 47 97 93 slli	a5, a5, 4
0x80001480: 00 d7 87 b3 add	a5, a5, a3
0x80001484: 00 87 97 93 slli	a5, a5, 8
0x80001488: 40 d7 87 b3 sub	a5, a5, a3
0x8000148c: 00 27 97 93 slli	a5, a5, 2
0x80001490: 00 d7 87 b3 add	a5, a5, a3
0x80001494: 00 26 a6 b7 lui	a3, 618
0x80001498: ec 36 86 93 addi	a3, a3, -317
0x8000149c: 00 d7 87 b3 add	a5, a5, a3
0x800014a0: 00 17 95 13 slli	a0, a5, 1
0x800014a4: 00 f7 20 23 sw	a5, 0(a4)
0x800014a8: 01 15 55 13 srli	a0, a0, 17
0x800014ac: 00 00 80 67 jalr	zero, 0(ra)
0x800033a4: 00 05 04 13 addi	s0, a0, 0
0x800033a8: 8b 8f e0 ef jal	ra, 0x80001460
0x80001460: 00 00 67 17 auipc	a4, 6
0x80001464: b1 07 07 13 addi	a4, a4, -1264
0x80001468: 00 07 26 83 lw	a3, 0(a4)
0x8000146c: 00 16 97 93 slli	a5, a3, 1
0x80001470: 00 d7 87 b3 add	a5, a5, a3
0x80001474: 00 27 97 93 slli	a5, a5, 2
0x80001478: 00 d7 87 b3 add	a5, a5, a3
0x8000147c: 00 47 97 93 slli	a5, a5, 4
0x80001480: 00 d7 87 b3 add	a5, a5, a3
0x80001484: 00 87 97 93 slli	a5, a5, 8
0x80001488: 40 d7 87 b3 sub	a5, a5, a3
0x8000148c: 00 27 97 93 slli	a5, a5, 2
0x80001490: 00 d7 87 b3 add	a5, a5, a3
0x80001494: 00 26 a6 b7 lui	a3, 618
0x80001498: ec 36 86 93 addi	a3, a3, -317
0x8000149c: 00 d7 87 b3 add	a5, a5, a3
0x800014a0: 00 17 95 13 slli	a0, a5, 1
0x800014a4: 00 f7 20 23 sw	a5, 0(a4)
0x800014a8: 01 15 55 13 srli	a0, a0, 17
0x800014ac: 00 00 80 67 jalr	zero, 0(ra)
0x800033ac: 00 00 46 17 auipc	a2, 4
0x800033b0: f5 c6 06 13 addi	a2, a2, -164
0x800033b4: 00 06 27 83 lw	a5, 0(a2)
0x800033b8: 00 00 46 97 auipc	a3, 4
0x800033bc: f4 c6 86 93 addi	a3, a3, -180
0x800033c0: 00 24 95 93 slli	a1, s1, 2
0x800033c4: 01 04 14 13 slli	s0, s0, 16
0x800033c8: 00 06 a7 03 lw	a4, 0(a3)
0x800033cc: 00 b7 87 b3 add	a5, a5, a1
0x800033d0: 00 a4 64 33 or	s0, s0, a0
0x800033d4: 00 87 a0 23 sw	s0, 0(a5)
0x800033d8: 00 14 84 93 addi	s1, s1, 1
0x800033dc: fc e4 c2 e3 blt	s1, a4, 0x800033a0
0x800033a0: 8c 0f e0 ef jal	ra, 0x80001460
0x80001460: 00 00 67 17 auipc	a4, 6
0x80001464: b1 07 07 13 addi	a4, a4, -1264
0x80001468: 00 07 26 83 lw	a3, 0(a4)
0x8000146c: 00 16 97 93 slli	a5, a3, 1
0x80001470: 00 d7 87 b3 add	a5, a5, a3
0x80001474: 00 27 97 93 slli	a5, a5, 2
0x80001478: 00 d7 87 b3 add	a5, a5, a3
0x8000147c: 00 47 97 93 slli	a5, a5, 4
0x80001480: 00 d7 87 b3 add	a5, a5, a3
0x80001484: 00 87 97 93 slli	a5, a5, 8
0x80001488: 40 d7 87 b3 sub	a5, a5, a3
0x8000148c: 00 27 97 93 slli	a5, a5, 2
0x80001490: 00 d7 87 b3 add	a5, a5, a3
0x80001494: 00 26 a6 b7 lui	a3, 618
0x80001498: ec 36 86 93 addi	a3, a3, -317
0x8000149c: 00 d7 87 b3 add	a5, a5, a3
0x800014a0: 00 17 95 13 slli	a0, a5, 1
0x800014a4: 00 f7 20 23 sw	a5, 0(a4)
0x800014a8: 01 15 55 13 srli	a0, a0, 17
0x800014ac: 00 00 80 67 jalr	zero, 0(ra)
0x800033a4: 00 05 04 13 addi	s0, a0, 0
0x800033a8: 8b 8f e0 ef jal	ra, 0x80001460
0x80001460: 00 00 67 17 auipc	a4, 6
0x80001464: b1 07 07 13 addi	a4, a4, -1264
0x80001468: 00 07 26 83 lw	a3, 0(a4)
0x8000146c: 00 16 97 93 slli	a5, a3, 1
0x80001470: 00 d7 87 b3 add	a5, a5, a3
0x80001474: 00 27 97 93 slli	a5, a5, 2
0x80001478: 00 d7 87 b3 add	a5, a5, a3
0x8000147c: 00 47 97 93 slli	a5, a5, 4
0x80001480: 00 d7 87 b3 add	a5, a5, a3
0x80001484: 00 87 97 93 slli	a5, a5, 8
0x80001488: 40 d7 87 b3 sub	a5, a5, a3
0x8000148c: 00 27 97 93 slli	a5, a5, 2
0x80001490: 00 d7 87 b3 add	a5, a5, a3
0x80001494: 00 26 a6 b7 lui	a3, 618
0x80001498: ec 36 86 93 addi	a3, a3, -317
0x8000149c: 00 d7 87 b3 add	a5, a5, a3
0x800014a0: 00 17 95 13 slli	a0, a5, 1
0x800014a4: 00 f7 20 23 sw	a5, 0(a4)
0x800014a8: 01 15 55 13 srli	a0, a0, 17
0x800014ac: 00 00 80 67 jalr	zero, 0(ra)
0x800033ac: 00 00 46 17 auipc	a2, 4
0x800033b0: f5 c6 06 13 addi	a2, a2, -164
0x800033b4: 00 06 27 83 lw	a5, 0(a2)
0x800033b8: 00 00 46 97 auipc	a3, 4
0x800033bc: f4 c6 86 93 addi	a3, a3, -180
0x800033c0: 00 24 95 93 slli	a1, s1, 2
0x800033c4: 01 04 14 13 slli	s0, s0, 16
0x800033c8: 00 06 a7 03 lw	a4, 0(a3)
0x800033cc: 00 b7 87 b3 add	a5, a5, a1
0x800033d0: 00 a4 64 33 or	s0, s0, a0
0x800033d4: 00 87 a0 23 sw	s0, 0(a5)
0x800033d8: 00 14 84 93 addi	s1, s1, 1
0x800033dc: fc e4 c2 e3 blt	s1, a4, 0x800033a0
0x800033a0: 8c 0f e0 ef jal	ra, 0x80001460
0x80001460: 00 00 67 17 auipc	a4, 6
0x80001464: b1 07 07 13 addi	a4, a4, -1264
0x80001468: 00 07 26 83 lw	a3, 0(a4)
0x8000146c: 00 16 97 93 slli	a5, a3, 1
0x80001470: 00 d7 87 b3 add	a5, a5, a3
0x80001474: 00 27 97 93 slli	a5, a5, 2
0x80001478: 00 d7 87 b3 add	a5, a5, a3
0x8000147c: 00 47 97 93 slli	a5, a5, 4
0x80001480: 00 d7 87 b3 add	a5, a5, a3
0x80001484: 00 87 97 93 slli	a5, a5, 8
0x80001488: 40 d7 87 b3 sub	a5, a5, a3
0x8000148c: 00 27 97 93 slli	a5, a5, 2
0x80001490: 00 d7 87 b3 add	a5, a5, a3
0x80001494: 00 26 a6 b7 lui	a3, 618
0x80001498: ec 36 86 93 addi	a3, a3, -317
0x8000149c: 00 d7 87 b3 add	a5, a5, a3
0x800014a0: 00 17 95 13 slli	a0, a5, 1
0x800014a4: 00 f7 20 23 sw	a5, 0(a4)
0x800014a8: 01 15 55 13 srli	a0, a0, 17
0x800014ac: 00 00 80 67 jalr	zero, 0(ra)
0x800033a4: 00 05 04 13 addi	s0, a0, 0
0x800033a8: 8b 8f e0 ef jal	ra, 0x80001460
0x80001460: 00 00 67 17 auipc	a4, 6
0x80001464: b1 07 07 13 addi	a4, a4, -1264
0x80001468: 00 07 26 83 lw	a3, 0(a4)
0x8000146c: 00 16 97 93 slli	a5, a3, 1
0x80001470: 00 d7 87 b3 add	a5, a5, a3
0x80001474: 00 27 97 93 slli	a5, a5, 2
0x80001478: 00 d7 87 b3 add	a5, a5, a3
0x8000147c: 00 47 97 93 slli	a5, a5, 4
0x80001480: 00 d7 87 b3 add	a5, a5, a3
0x80001484: 00 87 97 93 slli	a5, a5, 8
0x80001488: 40 d7 87 b3 sub	a5, a5, a3
0x8000148c: 00 27 97 93 slli	a5, a5, 2
0x80001490: 00 d7 87 b3 add	a5, a5, a3
0x80001494: 00 26 a6 b7 lui	a3, 618
0x80001498: ec 36 86 93 addi	a3, a3, -317
0x8000149c: 00 d7 87 b3 add	a5, a5, a3
0x800014a0: 00 17 95 13 slli	a0, a5, 1
0x800014a4: 00 f7 20 23 sw	a5, 0(a4)
0x800014a8: 01 15 55 13 srli	a0, a0, 17
0x800014ac: 00 00 80 67 jalr	zero, 0(ra)
0x800033ac: 00 00 46 17 auipc	a2, 4
0x800033b0: f5 c6 06 13 addi	a2, a2, -164
0x800033b4: 00 06 27 83 lw	a5, 0(a2)
0x800033b8: 00 00 46 97 auipc	a3, 4
0x800033bc: f4 c6 86 93 addi	a3, a3, -180
0x800033c0: 00 24 95 93 slli	a1, s1, 2
0x800033c4: 01 04 14 13 slli	s0, s0, 16
0x800033c8: 00 06 a7 03 lw	a4, 0(a3)
0x800033cc: 00 b7 87 b3 add	a5, a5, a1
0x800033d0: 00 a4 64 33 or	s0, s0, a0
0x800033d4: 00 87 a0 23 sw	s0, 0(a5)
0x800033d8: 00 14 84 93 addi	s1, s1, 1
0x800033dc: fc e4 c2 e3 blt	s1, a4, 0x800033a0
0x800033a0: 8c 0f e0 ef jal	ra, 0x80001460
0x80001460: 00 00 67 17 auipc	a4, 6
0x80001464: b1 07 07 13 addi	a4, a4, -1264
0x80001468: 00 07 26 83 lw	a3, 0(a4)
0x8000146c: 00 16 97 93 slli	a5, a3, 1
0x80001470: 00 d7 87 b3 add	a5, a5, a3
0x80001474: 00 27 97 93 slli	a5, a5, 2
0x80001478: 00 d7 87 b3 add	a5, a5, a3
0x8000147c: 00 47 97 93 slli	a5, a5, 4
0x80001480: 00 d7 87 b3 add	a5, a5, a3
0x80001484: 00 87 97 93 slli	a5, a5, 8
0x80001488: 40 d7 87 b3 sub	a5, a5, a3
0x8000148c: 00 27 97 93 slli	a5, a5, 2
0x80001490: 00 d7 87 b3 add	a5, a5, a3
0x80001494: 00 26 a6 b7 lui	a3, 618
0x80001498: ec 36 86 93 addi	a3, a3, -317
0x8000149c: 00 d7 87 b3 add	a5, a5, a3
0x800014a0: 00 17 95 13 slli	a0, a5, 1
0x800014a4: 00 f7 20 23 sw	a5, 0(a4)
0x800014a8: 01 15 55 13 srli	a0, a0, 17
0x800014ac: 00 00 80 67 jalr	zero, 0(ra)
0x800033a4: 00 05 04 13 addi	s0, a0, 0
0x800033a8: 8b 8f e0 ef jal	ra, 0x80001460
0x80001460: 00 00 67 17 auipc	a4, 6
0x80001464: b1 07 07 13 addi	a4, a4, -1264
0x80001468: 00 07 26 83 lw	a3, 0(a4)
0x8000146c: 00 16 97 93 slli	a5, a3, 1
0x80001470: 00 d7 87 b3 add	a5, a5, a3
0x80001474: 00 27 97 93 slli	a5, a5, 2
0x80001478: 00 d7 87 b3 add	a5, a5, a3
0x8000147c: 00 47 97 93 slli	a5, a5, 4
0x80001480: 00 d7 87 b3 add	a5, a5, a3
0x80001484: 00 87 97 93 slli	a5, a5, 8
0x80001488: 40 d7 87 b3 sub	a5, a5, a3
0x8000148c: 00 27 97 93 slli	a5, a5, 2
0x80001490: 00 d7 87 b3 add	a5, a5, a3
0x80001494: 00 26 a6 b7 lui	a3, 618
0x80001498: ec 36 86 93 addi	a3, a3, -317
0x8000149c: 00 d7 87 b3 add	a5, a5, a3
0x800014a0: 00 17 95 13 slli	a0, a5, 1
0x800014a4: 00 f7 20 23 sw	a5, 0(a4)
0x800014a8: 01 15 55 13 srli	a0, a0, 17
0x800014ac: 00 00 80 67 jalr	zero, 0(ra)
0x800033ac: 00 00 46 17 auipc	a2, 4
0x800033b0: f5 c6 06 13 addi	a2, a2, -164
0x800033b4: 00 06 27 83 lw	a5, 0(a2)
0x800033b8: 00 00 46 97 auipc	a3, 4
0x800033bc: f4 c6 86 93 addi	a3, a3, -180
0x800033c0: 00 24 95 93 slli	a1, s1, 2
0x800033c4: 01 04 14 13 slli	s0, s0, 16
0x800033c8: 00 06 a7 03 lw	a4, 0(a3)
0x800033cc: 00 b7 87 b3 add	a5, a5, a1
0x800033d0: 00 a4 64 33 or	s0, s0, a0
0x800033d4: 00 87 a0 23 sw	s0, 0(a5)
0x800033d8: 00 14 84 93 addi	s1, s1, 1
0x800033dc: fc e4 c2 e3 blt	s1, a4, 0x800033a0
0x800033a0: 8c 0f e0 ef jal	ra, 0x80001460
0x80001460: 00 00 67 17 auipc	a4, 6
0x80001464: b1 07 07 13 addi	a4, a4, -1264
0x80001468: 00 07 26 83 lw	a3, 0(a4)
0x8000146c: 00 16 97 93 slli	a5, a3, 1
0x80001470: 00 d7 87 b3 add	a5, a5, a3
0x80001474: 00 27 97 93 slli	a5, a5, 2
0x80001478: 00 d7 87 b3 add	a5, a5, a3
0x8000147c: 00 47 97 93 slli	a5, a5, 4
0x80001480: 00 d7 87 b3 add	a5, a5, a3
0x80001484: 00 87 97 93 slli	a5, a5, 8
0x80001488: 40 d7 87 b3 sub	a5, a5, a3
0x8000148c: 00 27 97 93 slli	a5, a5, 2
0x80001490: 00 d7 87 b3 add	a5, a5, a3
0x80001494: 00 26 a6 b7 lui	a3, 618
0x80001498: ec 36 86 93 addi	a3, a3, -317
0x8000149c: 00 d7 87 b3 add	a5, a5, a3
0x800014a0: 00 17 95 13 slli	a0, a5, 1
0x800014a4: 00 f7 20 23 sw	a5, 0(a4)
0x800014a8: 01 15 55 13 srli	a0, a0, 17
0x800014ac: 00 00 80 67 jalr	zero, 0(ra)
0x800033a4: 00 05 04 13 addi	s0, a0, 0
0x800033a8: 8b 8f e0 ef jal	ra, 0x80001460
0x80001460: 00 00 67 17 auipc	a4, 6
0x80001464: b1 07 07 13 addi	a4, a4, -1264
0x80001468: 00 07 26 83 lw	a3, 0(a4)
0x8000146c: 00 16 97 93 slli	a5, a3, 1
0x80001470: 00 d7 87 b3 add	a5, a5, a3
0x80001474: 00 27 97 93 slli	a5, a5, 2
0x80001478: 00 d7 87 b3 add	a5, a5, a3
0x8000147c: 00 47 97 93 slli	a5, a5, 4
0x80001480: 00 d7 87 b3 add	a5, a5, a3
0x80001484: 00 87 97 93 slli	a5, a5, 8
0x80001488: 40 d7 87 b3 sub	a5, a5, a3
0x8000148c: 00 27 97 93 slli	a5, a5, 2
0x80001490: 00 d7 87 b3 add	a5, a5, a3
0x80001494: 00 26 a6 b7 lui	a3, 618
0x80001498: ec 36 86 93 addi	a3, a3, -317
0x8000149c: 00 d7 87 b3 add	a5, a5, a3
0x800014a0: 00 17 95 13 slli	a0, a5, 1
0x800014a4: 00 f7 20 23 sw	a5, 0(a4)
0x800014a8: 01 15 55 13 srli	a0, a0, 17
0x800014ac: 00 00 80 67 jalr	zero, 0(ra)
0x800033ac: 00 00 46 17 auipc	a2, 4
0x800033b0: f5 c6 06 13 addi	a2, a2, -164
0x800033b4: 00 06 27 83 lw	a5, 0(a2)
0x800033b8: 00 00 46 97 auipc	a3, 4
0x800033bc: f4 c6 86 93 addi	a3, a3, -180
0x800033c0: 00 24 95 93 slli	a1, s1, 2
0x800033c4: 01 04 14 13 slli	s0, s0, 16
0x800033c8: 00 06 a7 03 lw	a4, 0(a3)
0x800033cc: 00 b7 87 b3 add	a5, a5, a1
0x800033d0: 00 a4 64 33 or	s0, s0, a0
0x800033d4: 00 87 a0 23 sw	s0, 0(a5)
0x800033d8: 00 14 84 93 addi	s1, s1, 1
0x800033dc: fc e4 c2 e3 blt	s1, a4, 0x800033a0
0x800033a0: 8c 0f e0 ef jal	ra, 0x80001460
0x80001460: 00 00 67 17 auipc	a4, 6
0x80001464: b1 07 07 13 addi	a4, a4, -1264
0x80001468: 00 07 26 83 lw	a3, 0(a4)
0x8000146c: 00 16 97 93 slli	a5, a3, 1
0x80001470: 00 d7 87 b3 add	a5, a5, a3
0x80001474: 00 27 97 93 slli	a5, a5, 2
0x80001478: 00 d7 87 b3 add	a5, a5, a3
0x8000147c: 00 47 97 93 slli	a5, a5, 4
0x80001480: 00 d7 87 b3 add	a5, a5, a3
0x80001484: 00 87 97 93 slli	a5, a5, 8
0x80001488: 40 d7 87 b3 sub	a5, a5, a3
0x8000148c: 00 27 97 93 slli	a5, a5, 2
0x80001490: 00 d7 87 b3 add	a5, a5, a3
0x80001494: 00 26 a6 b7 lui	a3, 618
0x80001498: ec 36 86 93 addi	a3, a3, -317
0x8000149c: 00 d7 87 b3 add	a5, a5, a3
0x800014a0: 00 17 95 13 slli	a0, a5, 1
0x800014a4: 00 f7 20 23 sw	a5, 0(a4)
0x800014a8: 01 15 55 13 srli	a0, a0, 17
0x800014ac: 00 00 80 67 jalr	zero, 0(ra)
0x800033a4: 00 05 04 13 addi	s0, a0, 0
0x800033a8: 8b 8f e0 ef jal	ra, 0x80001460
0x80001460: 00 00 67 17 auipc	a4, 6
0x80001464: b1 07 07 13 addi	a4, a4, -1264
0x80001468: 00 07 26 83 lw	a3, 0(a4)
0x8000146c: 00 16 97 93 slli	a5, a3, 1
0x80001470: 00 d7 87 b3 add	a5, a5, a3
0x80001474: 00 27 97 93 slli	a5, a5, 2
0x80001478: 00 d7 87 b3 add	a5, a5, a3
0x8000147c: 00 47 97 93 slli	a5, a5, 4
0x80001480: 00 d7 87 b3 add	a5, a5, a3
0x80001484: 00 87 97 93 slli	a5, a5, 8
0x80001488: 40 d7 87 b3 sub	a5, a5, a3
0x8000148c: 00 27 97 93 slli	a5, a5, 2
0x80001490: 00 d7 87 b3 add	a5, a5, a3
0x80001494: 00 26 a6 b7 lui	a3, 618
0x80001498: ec 36 86 93 addi	a3, a3, -317
0x8000149c: 00 d7 87 b3 add	a5, a5, a3
0x800014a0: 00 17 95 13 slli	a0, a5, 1
0x800014a4: 00 f7 20 23 sw	a5, 0(a4)
0x800014a8: 01 15 55 13 srli	a0, a0, 17
0x800014ac: 00 00 80 67 jalr	zero, 0(ra)
0x800033ac: 00 00 46 17 auipc	a2, 4
0x800033b0: f5 c6 06 13 addi	a2, a2, -164
0x800033b4: 00 06 27 83 lw	a5, 0(a2)
0x800033b8: 00 00 46 97 auipc	a3, 4
0x800033bc: f4 c6 86 93 addi	a3, a3, -180
0x800033c0: 00 24 95 93 slli	a1, s1, 2
0x800033c4: 01 04 14 13 slli	s0, s0, 16
0x800033c8: 00 06 a7 03 lw	a4, 0(a3)
0x800033cc: 00 b7 87 b3 add	a5, a5, a1
0x800033d0: 00 a4 64 33 or	s0, s0, a0
0x800033d4: 00 87 a0 23 sw	s0, 0(a5)
0x800033d8: 00 14 84 93 addi	s1, s1, 1
0x800033dc: fc e4 c2 e3 blt	s1, a4, 0x800033a0
0x800033a0: 8c 0f e0 ef jal	ra, 0x80001460
0x80001460: 00 00 67 17 auipc	a4, 6
0x80001464: b1 07 07 13 addi	a4, a4, -1264
0x80001468: 00 07 26 83 lw	a3, 0(a4)
0x8000146c: 00 16 97 93 slli	a5, a3, 1
0x80001470: 00 d7 87 b3 add	a5, a5, a3
0x80001474: 00 27 97 93 slli	a5, a5, 2
0x80001478: 00 d7 87 b3 add	a5, a5, a3
0x8000147c: 00 47 97 93 slli	a5, a5, 4
0x80001480: 00 d7 87 b3 add	a5, a5, a3
0x80001484: 00 87 97 93 slli	a5, a5, 8
0x80001488: 40 d7 87 b3 sub	a5, a5, a3
0x8000148c: 00 27 97 93 slli	a5, a5, 2
0x80001490: 00 d7 87 b3 add	a5, a5, a3
0x80001494: 00 26 a6 b7 lui	a3, 618
0x80001498: ec 36 86 93 addi	a3, a3, -317
0x8000149c: 00 d7 87 b3 add	a5, a5, a3
0x800014a0: 00 17 95 13 slli	a0, a5, 1
0x800014a4: 00 f7 20 23 sw	a5, 0(a4)
0x800014a8: 01 15 55 13 srli	a0, a0, 17
0x800014ac: 00 00 80 67 jalr	zero, 0(ra)
0x800033a4: 00 05 04 13 addi	s0, a0, 0
0x800033a8: 8b 8f e0 ef jal	ra, 0x80001460
0x80001460: 00 00 67 17 auipc	a4, 6
0x80001464: b1 07 07 13 addi	a4, a4, -1264
0x80001468: 00 07 26 83 lw	a3, 0(a4)
0x8000146c: 00 16 97 93 slli	a5, a3, 1
0x80001470: 00 d7 87 b3 add	a5, a5, a3
0x80001474: 00 27 97 93 slli	a5, a5, 2
0x80001478: 00 d7 87 b3 add	a5, a5, a3
0x8000147c: 00 47 97 93 slli	a5, a5, 4
0x80001480: 00 d7 87 b3 add	a5, a5, a3
0x80001484: 00 87 97 93 slli	a5, a5, 8
0x80001488: 40 d7 87 b3 sub	a5, a5, a3
0x8000148c: 00 27 97 93 slli	a5, a5, 2
0x80001490: 00 d7 87 b3 add	a5, a5, a3
0x80001494: 00 26 a6 b7 lui	a3, 618
0x80001498: ec 36 86 93 addi	a3, a3, -317
0x8000149c: 00 d7 87 b3 add	a5, a5, a3
0x800014a0: 00 17 95 13 slli	a0, a5, 1
0x800014a4: 00 f7 20 23 sw	a5, 0(a4)
0x800014a8: 01 15 55 13 srli	a0, a0, 17
0x800014ac: 00 00 80 67 jalr	zero, 0(ra)
0x800033ac: 00 00 46 17 auipc	a2, 4
0x800033b0: f5 c6 06 13 addi	a2, a2, -164
0x800033b4: 00 06 27 83 lw	a5, 0(a2)
0x800033b8: 00 00 46 97 auipc	a3, 4
0x800033bc: f4 c6 86 93 addi	a3, a3, -180
0x800033c0: 00 24 95 93 slli	a1, s1, 2
0x800033c4: 01 04 14 13 slli	s0, s0, 16
0x800033c8: 00 06 a7 03 lw	a4, 0(a3)
0x800033cc: 00 b7 87 b3 add	a5, a5, a1
0x800033d0: 00 a4 64 33 or	s0, s0, a0
0x800033d4: 00 87 a0 23 sw	s0, 0(a5)
0x800033d8: 00 14 84 93 addi	s1, s1, 1
0x800033dc: fc e4 c2 e3 blt	s1, a4, 0x800033a0
0x800033a0: 8c 0f e0 ef jal	ra, 0x80001460
0x80001460: 00 00 67 17 auipc	a4, 6
0x80001464: b1 07 07 13 addi	a4, a4, -1264
0x80001468: 00 07 26 83 lw	a3, 0(a4)
0x8000146c: 00 16 97 93 slli	a5, a3, 1
0x80001470: 00 d7 87 b3 add	a5, a5, a3
0x80001474: 00 27 97 93 slli	a5, a5, 2
0x80001478: 00 d7 87 b3 add	a5, a5, a3
0x8000147c: 00 47 97 93 slli	a5, a5, 4
0x80001480: 00 d7 87 b3 add	a5, a5, a3
0x80001484: 00 87 97 93 slli	a5, a5, 8
0x80001488: 40 d7 87 b3 sub	a5, a5, a3
0x8000148c: 00 27 97 93 slli	a5, a5, 2
0x80001490: 00 d7 87 b3 add	a5, a5, a3
0x80001494: 00 26 a6 b7 lui	a3, 618
0x80001498: ec 36 86 93 addi	a3, a3, -317
0x8000149c: 00 d7 87 b3 add	a5, a5, a3
0x800014a0: 00 17 95 13 slli	a0, a5, 1
0x800014a4: 00 f7 20 23 sw	a5, 0(a4)
0x800014a8: 01 15 55 13 srli	a0, a0, 17
0x800014ac: 00 00 80 67 jalr	zero, 0(ra)
0x800033a4: 00 05 04 13 addi	s0, a0, 0
0x800033a8: 8b 8f e0 ef jal	ra, 0x80001460
0x80001460: 00 00 67 17 auipc	a4, 6
0x80001464: b1 07 07 13 addi	a4, a4, -1264
0x80001468: 00 07 26 83 lw	a3, 0(a4)
0x8000146c: 00 16 97 93 slli	a5, a3, 1
0x80001470: 00 d7 87 b3 add	a5, a5, a3
0x80001474: 00 27 97 93 slli	a5, a5, 2
0x80001478: 00 d7 87 b3 add	a5, a5, a3
0x8000147c: 00 47 97 93 slli	a5, a5, 4
0x80001480: 00 d7 87 b3 add	a5, a5, a3
0x80001484: 00 87 97 93 slli	a5, a5, 8
0x80001488: 40 d7 87 b3 sub	a5, a5, a3
0x8000148c: 00 27 97 93 slli	a5, a5, 2
0x80001490: 00 d7 87 b3 add	a5, a5, a3
0x80001494: 00 26 a6 b7 lui	a3, 618
0x80001498: ec 36 86 93 addi	a3, a3, -317
0x8000149c: 00 d7 87 b3 add	a5, a5, a3
0x800014a0: 00 17 95 13 slli	a0, a5, 1
0x800014a4: 00 f7 20 23 sw	a5, 0(a4)
0x800014a8: 01 15 55 13 srli	a0, a0, 17
0x800014ac: 00 00 80 67 jalr	zero, 0(ra)
0x800033ac: 00 00 46 17 auipc	a2, 4
0x800033b0: f5 c6 06 13 addi	a2, a2, -164
0x800033b4: 00 06 27 83 lw	a5, 0(a2)
0x800033b8: 00 00 46 97 auipc	a3, 4
0x800033bc: f4 c6 86 93 addi	a3, a3, -180
0x800033c0: 00 24 95 93 slli	a1, s1, 2
0x800033c4: 01 04 14 13 slli	s0, s0, 16
0x800033c8: 00 06 a7 03 lw	a4, 0(a3)
0x800033cc: 00 b7 87 b3 add	a5, a5, a1
0x800033d0: 00 a4 64 33 or	s0, s0, a0
0x800033d4: 00 87 a0 23 sw	s0, 0(a5)
0x800033d8: 00 14 84 93 addi	s1, s1, 1
0x800033dc: fc e4 c2 e3 blt	s1, a4, 0x800033a0
0x800033a0: 8c 0f e0 ef jal	ra, 0x80001460
0x80001460: 00 00 67 17 auipc	a4, 6
0x80001464: b1 07 07 13 addi	a4, a4, -1264
0x80001468: 00 07 26 83 lw	a3, 0(a4)
0x8000146c: 00 16 97 93 slli	a5, a3, 1
0x80001470: 00 d7 87 b3 add	a5, a5, a3
0x80001474: 00 27 97 93 slli	a5, a5, 2
0x80001478: 00 d7 87 b3 add	a5, a5, a3
0x8000147c: 00 47 97 93 slli	a5, a5, 4
0x80001480: 00 d7 87 b3 add	a5, a5, a3
0x80001484: 00 87 97 93 slli	a5, a5, 8
0x80001488: 40 d7 87 b3 sub	a5, a5, a3
0x8000148c: 00 27 97 93 slli	a5, a5, 2
0x80001490: 00 d7 87 b3 add	a5, a5, a3
0x80001494: 00 26 a6 b7 lui	a3, 618
0x80001498: ec 36 86 93 addi	a3, a3, -317
0x8000149c: 00 d7 87 b3 add	a5, a5, a3
0x800014a0: 00 17 95 13 slli	a0, a5, 1
0x800014a4: 00 f7 20 23 sw	a5, 0(a4)
0x800014a8: 01 15 55 13 srli	a0, a0, 17
0x800014ac: 00 00 80 67 jalr	zero, 0(ra)
0x800033a4: 00 05 04 13 addi	s0, a0, 0
0x800033a8: 8b 8f e0 ef jal	ra, 0x80001460
0x80001460: 00 00 67 17 auipc	a4, 6
0x80001464: b1 07 07 13 addi	a4, a4, -1264
0x80001468: 00 07 26 83 lw	a3, 0(a4)
0x8000146c: 00 16 97 93 slli	a5, a3, 1
0x80001470: 00 d7 87 b3 add	a5, a5, a3
0x80001474: 00 27 97 93 slli	a5, a5, 2
0x80001478: 00 d7 87 b3 add	a5, a5, a3
0x8000147c: 00 47 97 93 slli	a5, a5, 4
0x80001480: 00 d7 87 b3 add	a5, a5, a3
0x80001484: 00 87 97 93 slli	a5, a5, 8
0x80001488: 40 d7 87 b3 sub	a5, a5, a3
0x8000148c: 00 27 97 93 slli	a5, a5, 2
0x80001490: 00 d7 87 b3 add	a5, a5, a3
0x80001494: 00 26 a6 b7 lui	a3, 618
0x80001498: ec 36 86 93 addi	a3, a3, -317
0x8000149c: 00 d7 87 b3 add	a5, a5, a3
0x800014a0: 00 17 95 13 slli	a0, a5, 1
0x800014a4: 00 f7 20 23 sw	a5, 0(a4)
0x800014a8: 01 15 55 13 srli	a0, a0, 17
0x800014ac: 00 00 80 67 jalr	zero, 0(ra)
0x800033ac: 00 00 46 17 auipc	a2, 4
0x800033b0: f5 c6 06 13 addi	a2, a2, -164
0x800033b4: 00 06 27 83 lw	a5, 0(a2)
0x800033b8: 00 00 46 97 auipc	a3, 4
0x800033bc: f4 c6 86 93 addi	a3, a3, -180
0x800033c0: 00 24 95 93 slli	a1, s1, 2
0x800033c4: 01 04 14 13 slli	s0, s0, 16
0x800033c8: 00 06 a7 03 lw	a4, 0(a3)
0x800033cc: 00 b7 87 b3 add	a5, a5, a1
0x800033d0: 00 a4 64 33 or	s0, s0, a0
0x800033d4: 00 87 a0 23 sw	s0, 0(a5)
0x800033d8: 00 14 84 93 addi	s1, s1, 1
0x800033dc: fc e4 c2 e3 blt	s1, a4, 0x800033a0
0x800033a0: 8c 0f e0 ef jal	ra, 0x80001460
0x80001460: 00 00 67 17 auipc	a4, 6
0x80001464: b1 07 07 13 addi	a4, a4, -1264
0x80001468: 00 07 26 83 lw	a3, 0(a4)
0x8000146c: 00 16 97 93 slli	a5, a3, 1
0x80001470: 00 d7 87 b3 add	a5, a5, a3
0x80001474: 00 27 97 93 slli	a5, a5, 2
0x80001478: 00 d7 87 b3 add	a5, a5, a3
0x8000147c: 00 47 97 93 slli	a5, a5, 4
0x80001480: 00 d7 87 b3 add	a5, a5, a3
0x80001484: 00 87 97 93 slli	a5, a5, 8
0x80001488: 40 d7 87 b3 sub	a5, a5, a3
0x8000148c: 00 27 97 93 slli	a5, a5, 2
0x80001490: 00 d7 87 b3 add	a5, a5, a3
0x80001494: 00 26 a6 b7 lui	a3, 618
0x80001498: ec 36 86 93 addi	a3, a3, -317
0x8000149c: 00 d7 87 b3 add	a5, a5, a3
0x800014a0: 00 17 95 13 slli	a0, a5, 1
0x800014a4: 00 f7 20 23 sw	a5, 0(a4)
0x800014a8: 01 15 55 13 srli	a0, a0, 17
0x800014ac: 00 00 80 67 jalr	zero, 0(ra)
0x800033a4: 00 05 04 13 addi	s0, a0, 0
0x800033a8: 8b 8f e0 ef jal	ra, 0x80001460
0x80001460: 00 00 67 17 auipc	a4, 6
0x80001464: b1 07 07 13 addi	a4, a4, -1264
0x80001468: 00 07 26 83 lw	a3, 0(a4)
0x8000146c: 00 16 97 93 slli	a5, a3, 1
0x80001470: 00 d7 87 b3 add	a5, a5, a3
0x80001474: 00 27 97 93 slli	a5, a5, 2
0x80001478: 00 d7 87 b3 add	a5, a5, a3
0x8000147c: 00 47 97 93 slli	a5, a5, 4
0x80001480: 00 d7 87 b3 add	a5, a5, a3
0x80001484: 00 87 97 93 slli	a5, a5, 8
0x80001488: 40 d7 87 b3 sub	a5, a5, a3
0x8000148c: 00 27 97 93 slli	a5, a5, 2
0x80001490: 00 d7 87 b3 add	a5, a5, a3
0x80001494: 00 26 a6 b7 lui	a3, 618
0x80001498: ec 36 86 93 addi	a3, a3, -317
0x8000149c: 00 d7 87 b3 add	a5, a5, a3
0x800014a0: 00 17 95 13 slli	a0, a5, 1
0x800014a4: 00 f7 20 23 sw	a5, 0(a4)
0x800014a8: 01 15 55 13 srli	a0, a0, 17
0x800014ac: 00 00 80 67 jalr	zero, 0(ra)
0x800033ac: 00 00 46 17 auipc	a2, 4
0x800033b0: f5 c6 06 13 addi	a2, a2, -164
0x800033b4: 00 06 27 83 lw	a5, 0(a2)
0x800033b8: 00 00 46 97 auipc	a3, 4
0x800033bc: f4 c6 86 93 addi	a3, a3, -180
0x800033c0: 00 24 95 93 slli	a1, s1, 2
0x800033c4: 01 04 14 13 slli	s0, s0, 16
0x800033c8: 00 06 a7 03 lw	a4, 0(a3)
0x800033cc: 00 b7 87 b3 add	a5, a5, a1
0x800033d0: 00 a4 64 33 or	s0, s0, a0
0x800033d4: 00 87 a0 23 sw	s0, 0(a5)
0x800033d8: 00 14 84 93 addi	s1, s1, 1
0x800033dc: fc e4 c2 e3 blt	s1, a4, 0x800033a0
0x800033a0: 8c 0f e0 ef jal	ra, 0x80001460
0x80001460: 00 00 67 17 auipc	a4, 6
0x80001464: b1 07 07 13 addi	a4, a4, -1264
0x80001468: 00 07 26 83 lw	a3, 0(a4)
0x8000146c: 00 16 97 93 slli	a5, a3, 1
0x80001470: 00 d7 87 b3 add	a5, a5, a3
0x80001474: 00 27 97 93 slli	a5, a5, 2
0x80001478: 00 d7 87 b3 add	a5, a5, a3
0x8000147c: 00 47 97 93 slli	a5, a5, 4
0x80001480: 00 d7 87 b3 add	a5, a5, a3
0x80001484: 00 87 97 93 slli	a5, a5, 8
0x80001488: 40 d7 87 b3 sub	a5, a5, a3
0x8000148c: 00 27 97 93 slli	a5, a5, 2
0x80001490: 00 d7 87 b3 add	a5, a5, a3
0x80001494: 00 26 a6 b7 lui	a3, 618
0x80001498: ec 36 86 93 addi	a3, a3, -317
0x8000149c: 00 d7 87 b3 add	a5, a5, a3
0x800014a0: 00 17 95 13 slli	a0, a5, 1
0x800014a4: 00 f7 20 23 sw	a5, 0(a4)
0x800014a8: 01 15 55 13 srli	a0, a0, 17
0x800014ac: 00 00 80 67 jalr	zero, 0(ra)
0x800033a4: 00 05 04 13 addi	s0, a0, 0
0x800033a8: 8b 8f e0 ef jal	ra, 0x80001460
0x80001460: 00 00 67 17 auipc	a4, 6
0x80001464: b1 07 07 13 addi	a4, a4, -1264
0x80001468: 00 07 26 83 lw	a3, 0(a4)
0x8000146c: 00 16 97 93 slli	a5, a3, 1
0x80001470: 00 d7 87 b3 add	a5, a5, a3
0x80001474: 00 27 97 93 slli	a5, a5, 2
0x80001478: 00 d7 87 b3 add	a5, a5, a3
0x8000147c: 00 47 97 93 slli	a5, a5, 4
0x80001480: 00 d7 87 b3 add	a5, a5, a3
0x80001484: 00 87 97 93 slli	a5, a5, 8
0x80001488: 40 d7 87 b3 sub	a5, a5, a3
0x8000148c: 00 27 97 93 slli	a5, a5, 2
0x80001490: 00 d7 87 b3 add	a5, a5, a3
0x80001494: 00 26 a6 b7 lui	a3, 618
0x80001498: ec 36 86 93 addi	a3, a3, -317
0x8000149c: 00 d7 87 b3 add	a5, a5, a3
0x800014a0: 00 17 95 13 slli	a0, a5, 1
0x800014a4: 00 f7 20 23 sw	a5, 0(a4)
0x800014a8: 01 15 55 13 srli	a0, a0, 17
0x800014ac: 00 00 80 67 jalr	zero, 0(ra)
0x800033ac: 00 00 46 17 auipc	a2, 4
0x800033b0: f5 c6 06 13 addi	a2, a2, -164
0x800033b4: 00 06 27 83 lw	a5, 0(a2)
0x800033b8: 00 00 46 97 auipc	a3, 4
0x800033bc: f4 c6 86 93 addi	a3, a3, -180
0x800033c0: 00 24 95 93 slli	a1, s1, 2
0x800033c4: 01 04 14 13 slli	s0, s0, 16
0x800033c8: 00 06 a7 03 lw	a4, 0(a3)
0x800033cc: 00 b7 87 b3 add	a5, a5, a1
0x800033d0: 00 a4 64 33 or	s0, s0, a0
0x800033d4: 00 87 a0 23 sw	s0, 0(a5)
0x800033d8: 00 14 84 93 addi	s1, s1, 1
0x800033dc: fc e4 c2 e3 blt	s1, a4, 0x800033a0
0x800033a0: 8c 0f e0 ef jal	ra, 0x80001460
0x80001460: 00 00 67 17 auipc	a4, 6
0x80001464: b1 07 07 13 addi	a4, a4, -1264
0x80001468: 00 07 26 83 lw	a3, 0(a4)
0x8000146c: 00 16 97 93 slli	a5, a3, 1
0x80001470: 00 d7 87 b3 add	a5, a5, a3
0x80001474: 00 27 97 93 slli	a5, a5, 2
0x80001478: 00 d7 87 b3 add	a5, a5, a3
0x8000147c: 00 47 97 93 slli	a5, a5, 4
0x80001480: 00 d7 87 b3 add	a5, a5, a3
0x80001484: 00 87 97 93 slli	a5, a5, 8
0x80001488: 40 d7 87 b3 sub	a5, a5, a3
0x8000148c: 00 27 97 93 slli	a5, a5, 2
0x80001490: 00 d7 87 b3 add	a5, a5, a3
0x80001494: 00 26 a6 b7 lui	a3, 618
0x80001498: ec 36 86 93 addi	a3, a3, -317
0x8000149c: 00 d7 87 b3 add	a5, a5, a3
0x800014a0: 00 17 95 13 slli	a0, a5, 1
0x800014a4: 00 f7 20 23 sw	a5, 0(a4)
0x800014a8: 01 15 55 13 srli	a0, a0, 17
0x800014ac: 00 00 80 67 jalr	zero, 0(ra)
0x800033a4: 00 05 04 13 addi	s0, a0, 0
0x800033a8: 8b 8f e0 ef jal	ra, 0x80001460
0x80001460: 00 00 67 17 auipc	a4, 6
0x80001464: b1 07 07 13 addi	a4, a4, -1264
0x80001468: 00 07 26 83 lw	a3, 0(a4)
0x8000146c: 00 16 97 93 slli	a5, a3, 1
0x80001470: 00 d7 87 b3 add	a5, a5, a3
0x80001474: 00 27 97 93 slli	a5, a5, 2
0x80001478: 00 d7 87 b3 add	a5, a5, a3
0x8000147c: 00 47 97 93 slli	a5, a5, 4
0x80001480: 00 d7 87 b3 add	a5, a5, a3
0x80001484: 00 87 97 93 slli	a5, a5, 8
0x80001488: 40 d7 87 b3 sub	a5, a5, a3
0x8000148c: 00 27 97 93 slli	a5, a5, 2
0x80001490: 00 d7 87 b3 add	a5, a5, a3
0x80001494: 00 26 a6 b7 lui	a3, 618
0x80001498: ec 36 86 93 addi	a3, a3, -317
0x8000149c: 00 d7 87 b3 add	a5, a5, a3
0x800014a0: 00 17 95 13 slli	a0, a5, 1
0x800014a4: 00 f7 20 23 sw	a5, 0(a4)
0x800014a8: 01 15 55 13 srli	a0, a0, 17
0x800014ac: 00 00 80 67 jalr	zero, 0(ra)
0x800033ac: 00 00 46 17 auipc	a2, 4
0x800033b0: f5 c6 06 13 addi	a2, a2, -164
0x800033b4: 00 06 27 83 lw	a5, 0(a2)
0x800033b8: 00 00 46 97 auipc	a3, 4
0x800033bc: f4 c6 86 93 addi	a3, a3, -180
0x800033c0: 00 24 95 93 slli	a1, s1, 2
0x800033c4: 01 04 14 13 slli	s0, s0, 16
0x800033c8: 00 06 a7 03 lw	a4, 0(a3)
0x800033cc: 00 b7 87 b3 add	a5, a5, a1
0x800033d0: 00 a4 64 33 or	s0, s0, a0
0x800033d4: 00 87 a0 23 sw	s0, 0(a5)
0x800033d8: 00 14 84 93 addi	s1, s1, 1
0x800033dc: fc e4 c2 e3 blt	s1, a4, 0x800033a0
0x800033a0: 8c 0f e0 ef jal	ra, 0x80001460
0x80001460: 00 00 67 17 auipc	a4, 6
0x80001464: b1 07 07 13 addi	a4, a4, -1264
0x80001468: 00 07 26 83 lw	a3, 0(a4)
0x8000146c: 00 16 97 93 slli	a5, a3, 1
0x80001470: 00 d7 87 b3 add	a5, a5, a3
0x80001474: 00 27 97 93 slli	a5, a5, 2
0x80001478: 00 d7 87 b3 add	a5, a5, a3
0x8000147c: 00 47 97 93 slli	a5, a5, 4
0x80001480: 00 d7 87 b3 add	a5, a5, a3
0x80001484: 00 87 97 93 slli	a5, a5, 8
0x80001488: 40 d7 87 b3 sub	a5, a5, a3
0x8000148c: 00 27 97 93 slli	a5, a5, 2
0x80001490: 00 d7 87 b3 add	a5, a5, a3
0x80001494: 00 26 a6 b7 lui	a3, 618
0x80001498: ec 36 86 93 addi	a3, a3, -317
0x8000149c: 00 d7 87 b3 add	a5, a5, a3
0x800014a0: 00 17 95 13 slli	a0, a5, 1
0x800014a4: 00 f7 20 23 sw	a5, 0(a4)
0x800014a8: 01 15 55 13 srli	a0, a0, 17
0x800014ac: 00 00 80 67 jalr	zero, 0(ra)
0x800033a4: 00 05 04 13 addi	s0, a0, 0
0x800033a8: 8b 8f e0 ef jal	ra, 0x80001460
0x80001460: 00 00 67 17 auipc	a4, 6
0x80001464: b1 07 07 13 addi	a4, a4, -1264
0x80001468: 00 07 26 83 lw	a3, 0(a4)
0x8000146c: 00 16 97 93 slli	a5, a3, 1
0x80001470: 00 d7 87 b3 add	a5, a5, a3
0x80001474: 00 27 97 93 slli	a5, a5, 2
0x80001478: 00 d7 87 b3 add	a5, a5, a3
0x8000147c: 00 47 97 93 slli	a5, a5, 4
0x80001480: 00 d7 87 b3 add	a5, a5, a3
0x80001484: 00 87 97 93 slli	a5, a5, 8
0x80001488: 40 d7 87 b3 sub	a5, a5, a3
0x8000148c: 00 27 97 93 slli	a5, a5, 2
0x80001490: 00 d7 87 b3 add	a5, a5, a3
0x80001494: 00 26 a6 b7 lui	a3, 618
0x80001498: ec 36 86 93 addi	a3, a3, -317
0x8000149c: 00 d7 87 b3 add	a5, a5, a3
0x800014a0: 00 17 95 13 slli	a0, a5, 1
0x800014a4: 00 f7 20 23 sw	a5, 0(a4)
0x800014a8: 01 15 55 13 srli	a0, a0, 17
0x800014ac: 00 00 80 67 jalr	zero, 0(ra)
0x800033ac: 00 00 46 17 auipc	a2, 4
0x800033b0: f5 c6 06 13 addi	a2, a2, -164
0x800033b4: 00 06 27 83 lw	a5, 0(a2)
0x800033b8: 00 00 46 97 auipc	a3, 4
0x800033bc: f4 c6 86 93 addi	a3, a3, -180
0x800033c0: 00 24 95 93 slli	a1, s1, 2
0x800033c4: 01 04 14 13 slli	s0, s0, 16
0x800033c8: 00 06 a7 03 lw	a4, 0(a3)
0x800033cc: 00 b7 87 b3 add	a5, a5, a1
0x800033d0: 00 a4 64 33 or	s0, s0, a0
0x800033d4: 00 87 a0 23 sw	s0, 0(a5)
0x800033d8: 00 14 84 93 addi	s1, s1, 1
0x800033dc: fc e4 c2 e3 blt	s1, a4, 0x800033a0
0x800033a0: 8c 0f e0 ef jal	ra, 0x80001460
0x80001460: 00 00 67 17 auipc	a4, 6
0x80001464: b1 07 07 13 addi	a4, a4, -1264
0x80001468: 00 07 26 83 lw	a3, 0(a4)
0x8000146c: 00 16 97 93 slli	a5, a3, 1
0x80001470: 00 d7 87 b3 add	a5, a5, a3
0x80001474: 00 27 97 93 slli	a5, a5, 2
0x80001478: 00 d7 87 b3 add	a5, a5, a3
0x8000147c: 00 47 97 93 slli	a5, a5, 4
0x80001480: 00 d7 87 b3 add	a5, a5, a3
0x80001484: 00 87 97 93 slli	a5, a5, 8
0x80001488: 40 d7 87 b3 sub	a5, a5, a3
0x8000148c: 00 27 97 93 slli	a5, a5, 2
0x80001490: 00 d7 87 b3 add	a5, a5, a3
0x80001494: 00 26 a6 b7 lui	a3, 618
0x80001498: ec 36 86 93 addi	a3, a3, -317
0x8000149c: 00 d7 87 b3 add	a5, a5, a3
0x800014a0: 00 17 95 13 slli	a0, a5, 1
0x800014a4: 00 f7 20 23 sw	a5, 0(a4)
0x800014a8: 01 15 55 13 srli	a0, a0, 17
0x800014ac: 00 00 80 67 jalr	zero, 0(ra)
0x800033a4: 00 05 04 13 addi	s0, a0, 0
0x800033a8: 8b 8f e0 ef jal	ra, 0x80001460
0x80001460: 00 00 67 17 auipc	a4, 6
0x80001464: b1 07 07 13 addi	a4, a4, -1264
0x80001468: 00 07 26 83 lw	a3, 0(a4)
0x8000146c: 00 16 97 93 slli	a5, a3, 1
0x80001470: 00 d7 87 b3 add	a5, a5, a3
0x80001474: 00 27 97 93 slli	a5, a5, 2
0x80001478: 00 d7 87 b3 add	a5, a5, a3
0x8000147c: 00 47 97 93 slli	a5, a5, 4
0x80001480: 00 d7 87 b3 add	a5, a5, a3
0x80001484: 00 87 97 93 slli	a5, a5, 8
0x80001488: 40 d7 87 b3 sub	a5, a5, a3
0x8000148c: 00 27 97 93 slli	a5, a5, 2
0x80001490: 00 d7 87 b3 add	a5, a5, a3
0x80001494: 00 26 a6 b7 lui	a3, 618
0x80001498: ec 36 86 93 addi	a3, a3, -317
0x8000149c: 00 d7 87 b3 add	a5, a5, a3
0x800014a0: 00 17 95 13 slli	a0, a5, 1
0x800014a4: 00 f7 20 23 sw	a5, 0(a4)
0x800014a8: 01 15 55 13 srli	a0, a0, 17
0x800014ac: 00 00 80 67 jalr	zero, 0(ra)
0x800033ac: 00 00 46 17 auipc	a2, 4
0x800033b0: f5 c6 06 13 addi	a2, a2, -164
0x800033b4: 00 06 27 83 lw	a5, 0(a2)
0x800033b8: 00 00 46 97 auipc	a3, 4
0x800033bc: f4 c6 86 93 addi	a3, a3, -180
0x800033c0: 00 24 95 93 slli	a1, s1, 2
0x800033c4: 01 04 14 13 slli	s0, s0, 16
0x800033c8: 00 06 a7 03 lw	a4, 0(a3)
0x800033cc: 00 b7 87 b3 add	a5, a5, a1
0x800033d0: 00 a4 64 33 or	s0, s0, a0
0x800033d4: 00 87 a0 23 sw	s0, 0(a5)
0x800033d8: 00 14 84 93 addi	s1, s1, 1
0x800033dc: fc e4 c2 e3 blt	s1, a4, 0x800033a0
0x800033a0: 8c 0f e0 ef jal	ra, 0x80001460
0x80001460: 00 00 67 17 auipc	a4, 6
0x80001464: b1 07 07 13 addi	a4, a4, -1264
0x80001468: 00 07 26 83 lw	a3, 0(a4)
0x8000146c: 00 16 97 93 slli	a5, a3, 1
0x80001470: 00 d7 87 b3 add	a5, a5, a3
0x80001474: 00 27 97 93 slli	a5, a5, 2
0x80001478: 00 d7 87 b3 add	a5, a5, a3
0x8000147c: 00 47 97 93 slli	a5, a5, 4
0x80001480: 00 d7 87 b3 add	a5, a5, a3
0x80001484: 00 87 97 93 slli	a5, a5, 8
0x80001488: 40 d7 87 b3 sub	a5, a5, a3
0x8000148c: 00 27 97 93 slli	a5, a5, 2
0x80001490: 00 d7 87 b3 add	a5, a5, a3
0x80001494: 00 26 a6 b7 lui	a3, 618
0x80001498: ec 36 86 93 addi	a3, a3, -317
0x8000149c: 00 d7 87 b3 add	a5, a5, a3
0x800014a0: 00 17 95 13 slli	a0, a5, 1
0x800014a4: 00 f7 20 23 sw	a5, 0(a4)
0x800014a8: 01 15 55 13 srli	a0, a0, 17
0x800014ac: 00 00 80 67 jalr	zero, 0(ra)
0x800033a4: 00 05 04 13 addi	s0, a0, 0
0x800033a8: 8b 8f e0 ef jal	ra, 0x80001460
0x80001460: 00 00 67 17 auipc	a4, 6
0x80001464: b1 07 07 13 addi	a4, a4, -1264
0x80001468: 00 07 26 83 lw	a3, 0(a4)
0x8000146c: 00 16 97 93 slli	a5, a3, 1
0x80001470: 00 d7 87 b3 add	a5, a5, a3
0x80001474: 00 27 97 93 slli	a5, a5, 2
0x80001478: 00 d7 87 b3 add	a5, a5, a3
0x8000147c: 00 47 97 93 slli	a5, a5, 4
0x80001480: 00 d7 87 b3 add	a5, a5, a3
0x80001484: 00 87 97 93 slli	a5, a5, 8
0x80001488: 40 d7 87 b3 sub	a5, a5, a3
0x8000148c: 00 27 97 93 slli	a5, a5, 2
0x80001490: 00 d7 87 b3 add	a5, a5, a3
0x80001494: 00 26 a6 b7 lui	a3, 618
0x80001498: ec 36 86 93 addi	a3, a3, -317
0x8000149c: 00 d7 87 b3 add	a5, a5, a3
0x800014a0: 00 17 95 13 slli	a0, a5, 1
0x800014a4: 00 f7 20 23 sw	a5, 0(a4)
0x800014a8: 01 15 55 13 srli	a0, a0, 17
0x800014ac: 00 00 80 67 jalr	zero, 0(ra)
0x800033ac: 00 00 46 17 auipc	a2, 4
0x800033b0: f5 c6 06 13 addi	a2, a2, -164
0x800033b4: 00 06 27 83 lw	a5, 0(a2)
0x800033b8: 00 00 46 97 auipc	a3, 4
0x800033bc: f4 c6 86 93 addi	a3, a3, -180
0x800033c0: 00 24 95 93 slli	a1, s1, 2
0x800033c4: 01 04 14 13 slli	s0, s0, 16
0x800033c8: 00 06 a7 03 lw	a4, 0(a3)
0x800033cc: 00 b7 87 b3 add	a5, a5, a1
0x800033d0: 00 a4 64 33 or	s0, s0, a0
0x800033d4: 00 87 a0 23 sw	s0, 0(a5)
0x800033d8: 00 14 84 93 addi	s1, s1, 1
0x800033dc: fc e4 c2 e3 blt	s1, a4, 0x800033a0
0x800033a0: 8c 0f e0 ef jal	ra, 0x80001460
0x80001460: 00 00 67 17 auipc	a4, 6
0x80001464: b1 07 07 13 addi	a4, a4, -1264
0x80001468: 00 07 26 83 lw	a3, 0(a4)
0x8000146c: 00 16 97 93 slli	a5, a3, 1
0x80001470: 00 d7 87 b3 add	a5, a5, a3
0x80001474: 00 27 97 93 slli	a5, a5, 2
0x80001478: 00 d7 87 b3 add	a5, a5, a3
0x8000147c: 00 47 97 93 slli	a5, a5, 4
0x80001480: 00 d7 87 b3 add	a5, a5, a3
0x80001484: 00 87 97 93 slli	a5, a5, 8
0x80001488: 40 d7 87 b3 sub	a5, a5, a3
0x8000148c: 00 27 97 93 slli	a5, a5, 2
0x80001490: 00 d7 87 b3 add	a5, a5, a3
0x80001494: 00 26 a6 b7 lui	a3, 618
0x80001498: ec 36 86 93 addi	a3, a3, -317
0x8000149c: 00 d7 87 b3 add	a5, a5, a3
0x800014a0: 00 17 95 13 slli	a0, a5, 1
0x800014a4: 00 f7 20 23 sw	a5, 0(a4)
0x800014a8: 01 15 55 13 srli	a0, a0, 17
0x800014ac: 00 00 80 67 jalr	zero, 0(ra)
0x800033a4: 00 05 04 13 addi	s0, a0, 0
0x800033a8: 8b 8f e0 ef jal	ra, 0x80001460
0x80001460: 00 00 67 17 auipc	a4, 6
0x80001464: b1 07 07 13 addi	a4, a4, -1264
0x80001468: 00 07 26 83 lw	a3, 0(a4)
0x8000146c: 00 16 97 93 slli	a5, a3, 1
0x80001470: 00 d7 87 b3 add	a5, a5, a3
0x80001474: 00 27 97 93 slli	a5, a5, 2
0x80001478: 00 d7 87 b3 add	a5, a5, a3
0x8000147c: 00 47 97 93 slli	a5, a5, 4
0x80001480: 00 d7 87 b3 add	a5, a5, a3
0x80001484: 00 87 97 93 slli	a5, a5, 8
0x80001488: 40 d7 87 b3 sub	a5, a5, a3
0x8000148c: 00 27 97 93 slli	a5, a5, 2
0x80001490: 00 d7 87 b3 add	a5, a5, a3
0x80001494: 00 26 a6 b7 lui	a3, 618
0x80001498: ec 36 86 93 addi	a3, a3, -317
0x8000149c: 00 d7 87 b3 add	a5, a5, a3
0x800014a0: 00 17 95 13 slli	a0, a5, 1
0x800014a4: 00 f7 20 23 sw	a5, 0(a4)
0x800014a8: 01 15 55 13 srli	a0, a0, 17
0x800014ac: 00 00 80 67 jalr	zero, 0(ra)
0x800033ac: 00 00 46 17 auipc	a2, 4
0x800033b0: f5 c6 06 13 addi	a2, a2, -164
0x800033b4: 00 06 27 83 lw	a5, 0(a2)
0x800033b8: 00 00 46 97 auipc	a3, 4
0x800033bc: f4 c6 86 93 addi	a3, a3, -180
0x800033c0: 00 24 95 93 slli	a1, s1, 2
0x800033c4: 01 04 14 13 slli	s0, s0, 16
0x800033c8: 00 06 a7 03 lw	a4, 0(a3)
0x800033cc: 00 b7 87 b3 add	a5, a5, a1
0x800033d0: 00 a4 64 33 or	s0, s0, a0
0x800033d4: 00 87 a0 23 sw	s0, 0(a5)
0x800033d8: 00 14 84 93 addi	s1, s1, 1
0x800033dc: fc e4 c2 e3 blt	s1, a4, 0x800033a0
0x800033a0: 8c 0f e0 ef jal	ra, 0x80001460
0x80001460: 00 00 67 17 auipc	a4, 6
0x80001464: b1 07 07 13 addi	a4, a4, -1264
0x80001468: 00 07 26 83 lw	a3, 0(a4)
0x8000146c: 00 16 97 93 slli	a5, a3, 1
0x80001470: 00 d7 87 b3 add	a5, a5, a3
0x80001474: 00 27 97 93 slli	a5, a5, 2
0x80001478: 00 d7 87 b3 add	a5, a5, a3
0x8000147c: 00 47 97 93 slli	a5, a5, 4
0x80001480: 00 d7 87 b3 add	a5, a5, a3
0x80001484: 00 87 97 93 slli	a5, a5, 8
0x80001488: 40 d7 87 b3 sub	a5, a5, a3
0x8000148c: 00 27 97 93 slli	a5, a5, 2
0x80001490: 00 d7 87 b3 add	a5, a5, a3
0x80001494: 00 26 a6 b7 lui	a3, 618
0x80001498: ec 36 86 93 addi	a3, a3, -317
0x8000149c: 00 d7 87 b3 add	a5, a5, a3
0x800014a0: 00 17 95 13 slli	a0, a5, 1
0x800014a4: 00 f7 20 23 sw	a5, 0(a4)
0x800014a8: 01 15 55 13 srli	a0, a0, 17
0x800014ac: 00 00 80 67 jalr	zero, 0(ra)
0x800033a4: 00 05 04 13 addi	s0, a0, 0
0x800033a8: 8b 8f e0 ef jal	ra, 0x80001460
0x80001460: 00 00 67 17 auipc	a4, 6
0x80001464: b1 07 07 13 addi	a4, a4, -1264
0x80001468: 00 07 26 83 lw	a3, 0(a4)
0x8000146c: 00 16 97 93 slli	a5, a3, 1
0x80001470: 00 d7 87 b3 add	a5, a5, a3
0x80001474: 00 27 97 93 slli	a5, a5, 2
0x80001478: 00 d7 87 b3 add	a5, a5, a3
0x8000147c: 00 47 97 93 slli	a5, a5, 4
0x80001480: 00 d7 87 b3 add	a5, a5, a3
0x80001484: 00 87 97 93 slli	a5, a5, 8
0x80001488: 40 d7 87 b3 sub	a5, a5, a3
0x8000148c: 00 27 97 93 slli	a5, a5, 2
0x80001490: 00 d7 87 b3 add	a5, a5, a3
0x80001494: 00 26 a6 b7 lui	a3, 618
0x80001498: ec 36 86 93 addi	a3, a3, -317
0x8000149c: 00 d7 87 b3 add	a5, a5, a3
0x800014a0: 00 17 95 13 slli	a0, a5, 1
0x800014a4: 00 f7 20 23 sw	a5, 0(a4)
0x800014a8: 01 15 55 13 srli	a0, a0, 17
0x800014ac: 00 00 80 67 jalr	zero, 0(ra)
0x800033ac: 00 00 46 17 auipc	a2, 4
0x800033b0: f5 c6 06 13 addi	a2, a2, -164
0x800033b4: 00 06 27 83 lw	a5, 0(a2)
0x800033b8: 00 00 46 97 auipc	a3, 4
0x800033bc: f4 c6 86 93 addi	a3, a3, -180
0x800033c0: 00 24 95 93 slli	a1, s1, 2
0x800033c4: 01 04 14 13 slli	s0, s0, 16
0x800033c8: 00 06 a7 03 lw	a4, 0(a3)
0x800033cc: 00 b7 87 b3 add	a5, a5, a1
0x800033d0: 00 a4 64 33 or	s0, s0, a0
0x800033d4: 00 87 a0 23 sw	s0, 0(a5)
0x800033d8: 00 14 84 93 addi	s1, s1, 1
0x800033dc: fc e4 c2 e3 blt	s1, a4, 0x800033a0
0x800033a0: 8c 0f e0 ef jal	ra, 0x80001460
0x80001460: 00 00 67 17 auipc	a4, 6
0x80001464: b1 07 07 13 addi	a4, a4, -1264
0x80001468: 00 07 26 83 lw	a3, 0(a4)
0x8000146c: 00 16 97 93 slli	a5, a3, 1
0x80001470: 00 d7 87 b3 add	a5, a5, a3
0x80001474: 00 27 97 93 slli	a5, a5, 2
0x80001478: 00 d7 87 b3 add	a5, a5, a3
0x8000147c: 00 47 97 93 slli	a5, a5, 4
0x80001480: 00 d7 87 b3 add	a5, a5, a3
0x80001484: 00 87 97 93 slli	a5, a5, 8
0x80001488: 40 d7 87 b3 sub	a5, a5, a3
0x8000148c: 00 27 97 93 slli	a5, a5, 2
0x80001490: 00 d7 87 b3 add	a5, a5, a3
0x80001494: 00 26 a6 b7 lui	a3, 618
0x80001498: ec 36 86 93 addi	a3, a3, -317
0x8000149c: 00 d7 87 b3 add	a5, a5, a3
0x800014a0: 00 17 95 13 slli	a0, a5, 1
0x800014a4: 00 f7 20 23 sw	a5, 0(a4)
0x800014a8: 01 15 55 13 srli	a0, a0, 17
0x800014ac: 00 00 80 67 jalr	zero, 0(ra)
0x800033a4: 00 05 04 13 addi	s0, a0, 0
0x800033a8: 8b 8f e0 ef jal	ra, 0x80001460
0x80001460: 00 00 67 17 auipc	a4, 6
0x80001464: b1 07 07 13 addi	a4, a4, -1264
0x80001468: 00 07 26 83 lw	a3, 0(a4)
0x8000146c: 00 16 97 93 slli	a5, a3, 1
0x80001470: 00 d7 87 b3 add	a5, a5, a3
0x80001474: 00 27 97 93 slli	a5, a5, 2
0x80001478: 00 d7 87 b3 add	a5, a5, a3
0x8000147c: 00 47 97 93 slli	a5, a5, 4
0x80001480: 00 d7 87 b3 add	a5, a5, a3
0x80001484: 00 87 97 93 slli	a5, a5, 8
0x80001488: 40 d7 87 b3 sub	a5, a5, a3
0x8000148c: 00 27 97 93 slli	a5, a5, 2
0x80001490: 00 d7 87 b3 add	a5, a5, a3
0x80001494: 00 26 a6 b7 lui	a3, 618
0x80001498: ec 36 86 93 addi	a3, a3, -317
0x8000149c: 00 d7 87 b3 add	a5, a5, a3
0x800014a0: 00 17 95 13 slli	a0, a5, 1
0x800014a4: 00 f7 20 23 sw	a5, 0(a4)
0x800014a8: 01 15 55 13 srli	a0, a0, 17
0x800014ac: 00 00 80 67 jalr	zero, 0(ra)
0x800033ac: 00 00 46 17 auipc	a2, 4
0x800033b0: f5 c6 06 13 addi	a2, a2, -164
0x800033b4: 00 06 27 83 lw	a5, 0(a2)
0x800033b8: 00 00 46 97 auipc	a3, 4
0x800033bc: f4 c6 86 93 addi	a3, a3, -180
0x800033c0: 00 24 95 93 slli	a1, s1, 2
0x800033c4: 01 04 14 13 slli	s0, s0, 16
0x800033c8: 00 06 a7 03 lw	a4, 0(a3)
0x800033cc: 00 b7 87 b3 add	a5, a5, a1
0x800033d0: 00 a4 64 33 or	s0, s0, a0
0x800033d4: 00 87 a0 23 sw	s0, 0(a5)
0x800033d8: 00 14 84 93 addi	s1, s1, 1
0x800033dc: fc e4 c2 e3 blt	s1, a4, 0x800033a0
0x800033a0: 8c 0f e0 ef jal	ra, 0x80001460
0x80001460: 00 00 67 17 auipc	a4, 6
0x80001464: b1 07 07 13 addi	a4, a4, -1264
0x80001468: 00 07 26 83 lw	a3, 0(a4)
0x8000146c: 00 16 97 93 slli	a5, a3, 1
0x80001470: 00 d7 87 b3 add	a5, a5, a3
0x80001474: 00 27 97 93 slli	a5, a5, 2
0x80001478: 00 d7 87 b3 add	a5, a5, a3
0x8000147c: 00 47 97 93 slli	a5, a5, 4
0x80001480: 00 d7 87 b3 add	a5, a5, a3
0x80001484: 00 87 97 93 slli	a5, a5, 8
0x80001488: 40 d7 87 b3 sub	a5, a5, a3
0x8000148c: 00 27 97 93 slli	a5, a5, 2
0x80001490: 00 d7 87 b3 add	a5, a5, a3
0x80001494: 00 26 a6 b7 lui	a3, 618
0x80001498: ec 36 86 93 addi	a3, a3, -317
0x8000149c: 00 d7 87 b3 add	a5, a5, a3
0x800014a0: 00 17 95 13 slli	a0, a5, 1
0x800014a4: 00 f7 20 23 sw	a5, 0(a4)
0x800014a8: 01 15 55 13 srli	a0, a0, 17
0x800014ac: 00 00 80 67 jalr	zero, 0(ra)
0x800033a4: 00 05 04 13 addi	s0, a0, 0
0x800033a8: 8b 8f e0 ef jal	ra, 0x80001460
0x80001460: 00 00 67 17 auipc	a4, 6
0x80001464: b1 07 07 13 addi	a4, a4, -1264
0x80001468: 00 07 26 83 lw	a3, 0(a4)
0x8000146c: 00 16 97 93 slli	a5, a3, 1
0x80001470: 00 d7 87 b3 add	a5, a5, a3
0x80001474: 00 27 97 93 slli	a5, a5, 2
0x80001478: 00 d7 87 b3 add	a5, a5, a3
0x8000147c: 00 47 97 93 slli	a5, a5, 4
0x80001480: 00 d7 87 b3 add	a5, a5, a3
0x80001484: 00 87 97 93 slli	a5, a5, 8
0x80001488: 40 d7 87 b3 sub	a5, a5, a3
0x8000148c: 00 27 97 93 slli	a5, a5, 2
0x80001490: 00 d7 87 b3 add	a5, a5, a3
0x80001494: 00 26 a6 b7 lui	a3, 618
0x80001498: ec 36 86 93 addi	a3, a3, -317
0x8000149c: 00 d7 87 b3 add	a5, a5, a3
0x800014a0: 00 17 95 13 slli	a0, a5, 1
0x800014a4: 00 f7 20 23 sw	a5, 0(a4)
0x800014a8: 01 15 55 13 srli	a0, a0, 17
0x800014ac: 00 00 80 67 jalr	zero, 0(ra)
0x800033ac: 00 00 46 17 auipc	a2, 4
0x800033b0: f5 c6 06 13 addi	a2, a2, -164
0x800033b4: 00 06 27 83 lw	a5, 0(a2)
0x800033b8: 00 00 46 97 auipc	a3, 4
0x800033bc: f4 c6 86 93 addi	a3, a3, -180
0x800033c0: 00 24 95 93 slli	a1, s1, 2
0x800033c4: 01 04 14 13 slli	s0, s0, 16
0x800033c8: 00 06 a7 03 lw	a4, 0(a3)
0x800033cc: 00 b7 87 b3 add	a5, a5, a1
0x800033d0: 00 a4 64 33 or	s0, s0, a0
0x800033d4: 00 87 a0 23 sw	s0, 0(a5)
0x800033d8: 00 14 84 93 addi	s1, s1, 1
0x800033dc: fc e4 c2 e3 blt	s1, a4, 0x800033a0
0x800033a0: 8c 0f e0 ef jal	ra, 0x80001460
0x80001460: 00 00 67 17 auipc	a4, 6
0x80001464: b1 07 07 13 addi	a4, a4, -1264
0x80001468: 00 07 26 83 lw	a3, 0(a4)
0x8000146c: 00 16 97 93 slli	a5, a3, 1
0x80001470: 00 d7 87 b3 add	a5, a5, a3
0x80001474: 00 27 97 93 slli	a5, a5, 2
0x80001478: 00 d7 87 b3 add	a5, a5, a3
0x8000147c: 00 47 97 93 slli	a5, a5, 4
0x80001480: 00 d7 87 b3 add	a5, a5, a3
0x80001484: 00 87 97 93 slli	a5, a5, 8
0x80001488: 40 d7 87 b3 sub	a5, a5, a3
0x8000148c: 00 27 97 93 slli	a5, a5, 2
0x80001490: 00 d7 87 b3 add	a5, a5, a3
0x80001494: 00 26 a6 b7 lui	a3, 618
0x80001498: ec 36 86 93 addi	a3, a3, -317
0x8000149c: 00 d7 87 b3 add	a5, a5, a3
0x800014a0: 00 17 95 13 slli	a0, a5, 1
0x800014a4: 00 f7 20 23 sw	a5, 0(a4)
0x800014a8: 01 15 55 13 srli	a0, a0, 17
0x800014ac: 00 00 80 67 jalr	zero, 0(ra)
0x800033a4: 00 05 04 13 addi	s0, a0, 0
0x800033a8: 8b 8f e0 ef jal	ra, 0x80001460
0x80001460: 00 00 67 17 auipc	a4, 6
0x80001464: b1 07 07 13 addi	a4, a4, -1264
0x80001468: 00 07 26 83 lw	a3, 0(a4)
0x8000146c: 00 16 97 93 slli	a5, a3, 1
0x80001470: 00 d7 87 b3 add	a5, a5, a3
0x80001474: 00 27 97 93 slli	a5, a5, 2
0x80001478: 00 d7 87 b3 add	a5, a5, a3
0x8000147c: 00 47 97 93 slli	a5, a5, 4
0x80001480: 00 d7 87 b3 add	a5, a5, a3
0x80001484: 00 87 97 93 slli	a5, a5, 8
0x80001488: 40 d7 87 b3 sub	a5, a5, a3
0x8000148c: 00 27 97 93 slli	a5, a5, 2
0x80001490: 00 d7 87 b3 add	a5, a5, a3
0x80001494: 00 26 a6 b7 lui	a3, 618
0x80001498: ec 36 86 93 addi	a3, a3, -317
0x8000149c: 00 d7 87 b3 add	a5, a5, a3
0x800014a0: 00 17 95 13 slli	a0, a5, 1
0x800014a4: 00 f7 20 23 sw	a5, 0(a4)
0x800014a8: 01 15 55 13 srli	a0, a0, 17
0x800014ac: 00 00 80 67 jalr	zero, 0(ra)
0x800033ac: 00 00 46 17 auipc	a2, 4
0x800033b0: f5 c6 06 13 addi	a2, a2, -164
0x800033b4: 00 06 27 83 lw	a5, 0(a2)
0x800033b8: 00 00 46 97 auipc	a3, 4
0x800033bc: f4 c6 86 93 addi	a3, a3, -180
0x800033c0: 00 24 95 93 slli	a1, s1, 2
0x800033c4: 01 04 14 13 slli	s0, s0, 16
0x800033c8: 00 06 a7 03 lw	a4, 0(a3)
0x800033cc: 00 b7 87 b3 add	a5, a5, a1
0x800033d0: 00 a4 64 33 or	s0, s0, a0
0x800033d4: 00 87 a0 23 sw	s0, 0(a5)
0x800033d8: 00 14 84 93 addi	s1, s1, 1
0x800033dc: fc e4 c2 e3 blt	s1, a4, 0x800033a0
0x800033a0: 8c 0f e0 ef jal	ra, 0x80001460
0x80001460: 00 00 67 17 auipc	a4, 6
0x80001464: b1 07 07 13 addi	a4, a4, -1264
0x80001468: 00 07 26 83 lw	a3, 0(a4)
0x8000146c: 00 16 97 93 slli	a5, a3, 1
0x80001470: 00 d7 87 b3 add	a5, a5, a3
0x80001474: 00 27 97 93 slli	a5, a5, 2
0x80001478: 00 d7 87 b3 add	a5, a5, a3
0x8000147c: 00 47 97 93 slli	a5, a5, 4
0x80001480: 00 d7 87 b3 add	a5, a5, a3
0x80001484: 00 87 97 93 slli	a5, a5, 8
0x80001488: 40 d7 87 b3 sub	a5, a5, a3
0x8000148c: 00 27 97 93 slli	a5, a5, 2
0x80001490: 00 d7 87 b3 add	a5, a5, a3
0x80001494: 00 26 a6 b7 lui	a3, 618
0x80001498: ec 36 86 93 addi	a3, a3, -317
0x8000149c: 00 d7 87 b3 add	a5, a5, a3
0x800014a0: 00 17 95 13 slli	a0, a5, 1
0x800014a4: 00 f7 20 23 sw	a5, 0(a4)
0x800014a8: 01 15 55 13 srli	a0, a0, 17
0x800014ac: 00 00 80 67 jalr	zero, 0(ra)
0x800033a4: 00 05 04 13 addi	s0, a0, 0
0x800033a8: 8b 8f e0 ef jal	ra, 0x80001460
0x80001460: 00 00 67 17 auipc	a4, 6
0x80001464: b1 07 07 13 addi	a4, a4, -1264
0x80001468: 00 07 26 83 lw	a3, 0(a4)
0x8000146c: 00 16 97 93 slli	a5, a3, 1
0x80001470: 00 d7 87 b3 add	a5, a5, a3
0x80001474: 00 27 97 93 slli	a5, a5, 2
0x80001478: 00 d7 87 b3 add	a5, a5, a3
0x8000147c: 00 47 97 93 slli	a5, a5, 4
0x80001480: 00 d7 87 b3 add	a5, a5, a3
0x80001484: 00 87 97 93 slli	a5, a5, 8
0x80001488: 40 d7 87 b3 sub	a5, a5, a3
0x8000148c: 00 27 97 93 slli	a5, a5, 2
0x80001490: 00 d7 87 b3 add	a5, a5, a3
0x80001494: 00 26 a6 b7 lui	a3, 618
0x80001498: ec 36 86 93 addi	a3, a3, -317
0x8000149c: 00 d7 87 b3 add	a5, a5, a3
0x800014a0: 00 17 95 13 slli	a0, a5, 1
0x800014a4: 00 f7 20 23 sw	a5, 0(a4)
0x800014a8: 01 15 55 13 srli	a0, a0, 17
0x800014ac: 00 00 80 67 jalr	zero, 0(ra)
0x800033ac: 00 00 46 17 auipc	a2, 4
0x800033b0: f5 c6 06 13 addi	a2, a2, -164
0x800033b4: 00 06 27 83 lw	a5, 0(a2)
0x800033b8: 00 00 46 97 auipc	a3, 4
0x800033bc: f4 c6 86 93 addi	a3, a3, -180
0x800033c0: 00 24 95 93 slli	a1, s1, 2
0x800033c4: 01 04 14 13 slli	s0, s0, 16
0x800033c8: 00 06 a7 03 lw	a4, 0(a3)
0x800033cc: 00 b7 87 b3 add	a5, a5, a1
0x800033d0: 00 a4 64 33 or	s0, s0, a0
0x800033d4: 00 87 a0 23 sw	s0, 0(a5)
0x800033d8: 00 14 84 93 addi	s1, s1, 1
0x800033dc: fc e4 c2 e3 blt	s1, a4, 0x800033a0
0x800033a0: 8c 0f e0 ef jal	ra, 0x80001460
0x80001460: 00 00 67 17 auipc	a4, 6
0x80001464: b1 07 07 13 addi	a4, a4, -1264
0x80001468: 00 07 26 83 lw	a3, 0(a4)
0x8000146c: 00 16 97 93 slli	a5, a3, 1
0x80001470: 00 d7 87 b3 add	a5, a5, a3
0x80001474: 00 27 97 93 slli	a5, a5, 2
0x80001478: 00 d7 87 b3 add	a5, a5, a3
0x8000147c: 00 47 97 93 slli	a5, a5, 4
0x80001480: 00 d7 87 b3 add	a5, a5, a3
0x80001484: 00 87 97 93 slli	a5, a5, 8
0x80001488: 40 d7 87 b3 sub	a5, a5, a3
0x8000148c: 00 27 97 93 slli	a5, a5, 2
0x80001490: 00 d7 87 b3 add	a5, a5, a3
0x80001494: 00 26 a6 b7 lui	a3, 618
0x80001498: ec 36 86 93 addi	a3, a3, -317
0x8000149c: 00 d7 87 b3 add	a5, a5, a3
0x800014a0: 00 17 95 13 slli	a0, a5, 1
0x800014a4: 00 f7 20 23 sw	a5, 0(a4)
0x800014a8: 01 15 55 13 srli	a0, a0, 17
0x800014ac: 00 00 80 67 jalr	zero, 0(ra)
0x800033a4: 00 05 04 13 addi	s0, a0, 0
0x800033a8: 8b 8f e0 ef jal	ra, 0x80001460
0x80001460: 00 00 67 17 auipc	a4, 6
0x80001464: b1 07 07 13 addi	a4, a4, -1264
0x80001468: 00 07 26 83 lw	a3, 0(a4)
0x8000146c: 00 16 97 93 slli	a5, a3, 1
0x80001470: 00 d7 87 b3 add	a5, a5, a3
0x80001474: 00 27 97 93 slli	a5, a5, 2
0x80001478: 00 d7 87 b3 add	a5, a5, a3
0x8000147c: 00 47 97 93 slli	a5, a5, 4
0x80001480: 00 d7 87 b3 add	a5, a5, a3
0x80001484: 00 87 97 93 slli	a5, a5, 8
0x80001488: 40 d7 87 b3 sub	a5, a5, a3
0x8000148c: 00 27 97 93 slli	a5, a5, 2
0x80001490: 00 d7 87 b3 add	a5, a5, a3
0x80001494: 00 26 a6 b7 lui	a3, 618
0x80001498: ec 36 86 93 addi	a3, a3, -317
0x8000149c: 00 d7 87 b3 add	a5, a5, a3
0x800014a0: 00 17 95 13 slli	a0, a5, 1
0x800014a4: 00 f7 20 23 sw	a5, 0(a4)
0x800014a8: 01 15 55 13 srli	a0, a0, 17
0x800014ac: 00 00 80 67 jalr	zero, 0(ra)
0x800033ac: 00 00 46 17 auipc	a2, 4
0x800033b0: f5 c6 06 13 addi	a2, a2, -164
0x800033b4: 00 06 27 83 lw	a5, 0(a2)
0x800033b8: 00 00 46 97 auipc	a3, 4
0x800033bc: f4 c6 86 93 addi	a3, a3, -180
0x800033c0: 00 24 95 93 slli	a1, s1, 2
0x800033c4: 01 04 14 13 slli	s0, s0, 16
0x800033c8: 00 06 a7 03 lw	a4, 0(a3)
0x800033cc: 00 b7 87 b3 add	a5, a5, a1
0x800033d0: 00 a4 64 33 or	s0, s0, a0
0x800033d4: 00 87 a0 23 sw	s0, 0(a5)
0x800033d8: 00 14 84 93 addi	s1, s1, 1
0x800033dc: fc e4 c2 e3 blt	s1, a4, 0x800033a0
0x800033a0: 8c 0f e0 ef jal	ra, 0x80001460
0x80001460: 00 00 67 17 auipc	a4, 6
0x80001464: b1 07 07 13 addi	a4, a4, -1264
0x80001468: 00 07 26 83 lw	a3, 0(a4)
0x8000146c: 00 16 97 93 slli	a5, a3, 1
0x80001470: 00 d7 87 b3 add	a5, a5, a3
0x80001474: 00 27 97 93 slli	a5, a5, 2
0x80001478: 00 d7 87 b3 add	a5, a5, a3
0x8000147c: 00 47 97 93 slli	a5, a5, 4
0x80001480: 00 d7 87 b3 add	a5, a5, a3
0x80001484: 00 87 97 93 slli	a5, a5, 8
0x80001488: 40 d7 87 b3 sub	a5, a5, a3
0x8000148c: 00 27 97 93 slli	a5, a5, 2
0x80001490: 00 d7 87 b3 add	a5, a5, a3
0x80001494: 00 26 a6 b7 lui	a3, 618
0x80001498: ec 36 86 93 addi	a3, a3, -317
0x8000149c: 00 d7 87 b3 add	a5, a5, a3
0x800014a0: 00 17 95 13 slli	a0, a5, 1
0x800014a4: 00 f7 20 23 sw	a5, 0(a4)
0x800014a8: 01 15 55 13 srli	a0, a0, 17
0x800014ac: 00 00 80 67 jalr	zero, 0(ra)
0x800033a4: 00 05 04 13 addi	s0, a0, 0
0x800033a8: 8b 8f e0 ef jal	ra, 0x80001460
0x80001460: 00 00 67 17 auipc	a4, 6
0x80001464: b1 07 07 13 addi	a4, a4, -1264
0x80001468: 00 07 26 83 lw	a3, 0(a4)
0x8000146c: 00 16 97 93 slli	a5, a3, 1
0x80001470: 00 d7 87 b3 add	a5, a5, a3
0x80001474: 00 27 97 93 slli	a5, a5, 2
0x80001478: 00 d7 87 b3 add	a5, a5, a3
0x8000147c: 00 47 97 93 slli	a5, a5, 4
0x80001480: 00 d7 87 b3 add	a5, a5, a3
0x80001484: 00 87 97 93 slli	a5, a5, 8
0x80001488: 40 d7 87 b3 sub	a5, a5, a3
0x8000148c: 00 27 97 93 slli	a5, a5, 2
0x80001490: 00 d7 87 b3 add	a5, a5, a3
0x80001494: 00 26 a6 b7 lui	a3, 618
0x80001498: ec 36 86 93 addi	a3, a3, -317
0x8000149c: 00 d7 87 b3 add	a5, a5, a3
0x800014a0: 00 17 95 13 slli	a0, a5, 1
0x800014a4: 00 f7 20 23 sw	a5, 0(a4)
0x800014a8: 01 15 55 13 srli	a0, a0, 17
0x800014ac: 00 00 80 67 jalr	zero, 0(ra)
0x800033ac: 00 00 46 17 auipc	a2, 4
0x800033b0: f5 c6 06 13 addi	a2, a2, -164
0x800033b4: 00 06 27 83 lw	a5, 0(a2)
0x800033b8: 00 00 46 97 auipc	a3, 4
0x800033bc: f4 c6 86 93 addi	a3, a3, -180
0x800033c0: 00 24 95 93 slli	a1, s1, 2
0x800033c4: 01 04 14 13 slli	s0, s0, 16
0x800033c8: 00 06 a7 03 lw	a4, 0(a3)
0x800033cc: 00 b7 87 b3 add	a5, a5, a1
0x800033d0: 00 a4 64 33 or	s0, s0, a0
0x800033d4: 00 87 a0 23 sw	s0, 0(a5)
0x800033d8: 00 14 84 93 addi	s1, s1, 1
0x800033dc: fc e4 c2 e3 blt	s1, a4, 0x800033a0
0x800033a0: 8c 0f e0 ef jal	ra, 0x80001460
0x80001460: 00 00 67 17 auipc	a4, 6
0x80001464: b1 07 07 13 addi	a4, a4, -1264
0x80001468: 00 07 26 83 lw	a3, 0(a4)
0x8000146c: 00 16 97 93 slli	a5, a3, 1
0x80001470: 00 d7 87 b3 add	a5, a5, a3
0x80001474: 00 27 97 93 slli	a5, a5, 2
0x80001478: 00 d7 87 b3 add	a5, a5, a3
0x8000147c: 00 47 97 93 slli	a5, a5, 4
0x80001480: 00 d7 87 b3 add	a5, a5, a3
0x80001484: 00 87 97 93 slli	a5, a5, 8
0x80001488: 40 d7 87 b3 sub	a5, a5, a3
0x8000148c: 00 27 97 93 slli	a5, a5, 2
0x80001490: 00 d7 87 b3 add	a5, a5, a3
0x80001494: 00 26 a6 b7 lui	a3, 618
0x80001498: ec 36 86 93 addi	a3, a3, -317
0x8000149c: 00 d7 87 b3 add	a5, a5, a3
0x800014a0: 00 17 95 13 slli	a0, a5, 1
0x800014a4: 00 f7 20 23 sw	a5, 0(a4)
0x800014a8: 01 15 55 13 srli	a0, a0, 17
0x800014ac: 00 00 80 67 jalr	zero, 0(ra)
0x800033a4: 00 05 04 13 addi	s0, a0, 0
0x800033a8: 8b 8f e0 ef jal	ra, 0x80001460
0x80001460: 00 00 67 17 auipc	a4, 6
0x80001464: b1 07 07 13 addi	a4, a4, -1264
0x80001468: 00 07 26 83 lw	a3, 0(a4)
0x8000146c: 00 16 97 93 slli	a5, a3, 1
0x80001470: 00 d7 87 b3 add	a5, a5, a3
0x80001474: 00 27 97 93 slli	a5, a5, 2
0x80001478: 00 d7 87 b3 add	a5, a5, a3
0x8000147c: 00 47 97 93 slli	a5, a5, 4
0x80001480: 00 d7 87 b3 add	a5, a5, a3
0x80001484: 00 87 97 93 slli	a5, a5, 8
0x80001488: 40 d7 87 b3 sub	a5, a5, a3
0x8000148c: 00 27 97 93 slli	a5, a5, 2
0x80001490: 00 d7 87 b3 add	a5, a5, a3
0x80001494: 00 26 a6 b7 lui	a3, 618
0x80001498: ec 36 86 93 addi	a3, a3, -317
0x8000149c: 00 d7 87 b3 add	a5, a5, a3
0x800014a0: 00 17 95 13 slli	a0, a5, 1
0x800014a4: 00 f7 20 23 sw	a5, 0(a4)
0x800014a8: 01 15 55 13 srli	a0, a0, 17
0x800014ac: 00 00 80 67 jalr	zero, 0(ra)
0x800033ac: 00 00 46 17 auipc	a2, 4
0x800033b0: f5 c6 06 13 addi	a2, a2, -164
0x800033b4: 00 06 27 83 lw	a5, 0(a2)
0x800033b8: 00 00 46 97 auipc	a3, 4
0x800033bc: f4 c6 86 93 addi	a3, a3, -180
0x800033c0: 00 24 95 93 slli	a1, s1, 2
0x800033c4: 01 04 14 13 slli	s0, s0, 16
0x800033c8: 00 06 a7 03 lw	a4, 0(a3)
0x800033cc: 00 b7 87 b3 add	a5, a5, a1
0x800033d0: 00 a4 64 33 or	s0, s0, a0
0x800033d4: 00 87 a0 23 sw	s0, 0(a5)
0x800033d8: 00 14 84 93 addi	s1, s1, 1
0x800033dc: fc e4 c2 e3 blt	s1, a4, 0x800033a0
0x800033a0: 8c 0f e0 ef jal	ra, 0x80001460
0x80001460: 00 00 67 17 auipc	a4, 6
0x80001464: b1 07 07 13 addi	a4, a4, -1264
0x80001468: 00 07 26 83 lw	a3, 0(a4)
0x8000146c: 00 16 97 93 slli	a5, a3, 1
0x80001470: 00 d7 87 b3 add	a5, a5, a3
0x80001474: 00 27 97 93 slli	a5, a5, 2
0x80001478: 00 d7 87 b3 add	a5, a5, a3
0x8000147c: 00 47 97 93 slli	a5, a5, 4
0x80001480: 00 d7 87 b3 add	a5, a5, a3
0x80001484: 00 87 97 93 slli	a5, a5, 8
0x80001488: 40 d7 87 b3 sub	a5, a5, a3
0x8000148c: 00 27 97 93 slli	a5, a5, 2
0x80001490: 00 d7 87 b3 add	a5, a5, a3
0x80001494: 00 26 a6 b7 lui	a3, 618
0x80001498: ec 36 86 93 addi	a3, a3, -317
0x8000149c: 00 d7 87 b3 add	a5, a5, a3
0x800014a0: 00 17 95 13 slli	a0, a5, 1
0x800014a4: 00 f7 20 23 sw	a5, 0(a4)
0x800014a8: 01 15 55 13 srli	a0, a0, 17
0x800014ac: 00 00 80 67 jalr	zero, 0(ra)
0x800033a4: 00 05 04 13 addi	s0, a0, 0
0x800033a8: 8b 8f e0 ef jal	ra, 0x80001460
0x80001460: 00 00 67 17 auipc	a4, 6
0x80001464: b1 07 07 13 addi	a4, a4, -1264
0x80001468: 00 07 26 83 lw	a3, 0(a4)
0x8000146c: 00 16 97 93 slli	a5, a3, 1
0x80001470: 00 d7 87 b3 add	a5, a5, a3
0x80001474: 00 27 97 93 slli	a5, a5, 2
0x80001478: 00 d7 87 b3 add	a5, a5, a3
0x8000147c: 00 47 97 93 slli	a5, a5, 4
0x80001480: 00 d7 87 b3 add	a5, a5, a3
0x80001484: 00 87 97 93 slli	a5, a5, 8
0x80001488: 40 d7 87 b3 sub	a5, a5, a3
0x8000148c: 00 27 97 93 slli	a5, a5, 2
0x80001490: 00 d7 87 b3 add	a5, a5, a3
0x80001494: 00 26 a6 b7 lui	a3, 618
0x80001498: ec 36 86 93 addi	a3, a3, -317
0x8000149c: 00 d7 87 b3 add	a5, a5, a3
0x800014a0: 00 17 95 13 slli	a0, a5, 1
0x800014a4: 00 f7 20 23 sw	a5, 0(a4)
0x800014a8: 01 15 55 13 srli	a0, a0, 17
0x800014ac: 00 00 80 67 jalr	zero, 0(ra)
0x800033ac: 00 00 46 17 auipc	a2, 4
0x800033b0: f5 c6 06 13 addi	a2, a2, -164
0x800033b4: 00 06 27 83 lw	a5, 0(a2)
0x800033b8: 00 00 46 97 auipc	a3, 4
0x800033bc: f4 c6 86 93 addi	a3, a3, -180
0x800033c0: 00 24 95 93 slli	a1, s1, 2
0x800033c4: 01 04 14 13 slli	s0, s0, 16
0x800033c8: 00 06 a7 03 lw	a4, 0(a3)
0x800033cc: 00 b7 87 b3 add	a5, a5, a1
0x800033d0: 00 a4 64 33 or	s0, s0, a0
0x800033d4: 00 87 a0 23 sw	s0, 0(a5)
0x800033d8: 00 14 84 93 addi	s1, s1, 1
0x800033dc: fc e4 c2 e3 blt	s1, a4, 0x800033a0
0x800033a0: 8c 0f e0 ef jal	ra, 0x80001460
0x80001460: 00 00 67 17 auipc	a4, 6
0x80001464: b1 07 07 13 addi	a4, a4, -1264
0x80001468: 00 07 26 83 lw	a3, 0(a4)
0x8000146c: 00 16 97 93 slli	a5, a3, 1
0x80001470: 00 d7 87 b3 add	a5, a5, a3
0x80001474: 00 27 97 93 slli	a5, a5, 2
0x80001478: 00 d7 87 b3 add	a5, a5, a3
0x8000147c: 00 47 97 93 slli	a5, a5, 4
0x80001480: 00 d7 87 b3 add	a5, a5, a3
0x80001484: 00 87 97 93 slli	a5, a5, 8
0x80001488: 40 d7 87 b3 sub	a5, a5, a3
0x8000148c: 00 27 97 93 slli	a5, a5, 2
0x80001490: 00 d7 87 b3 add	a5, a5, a3
0x80001494: 00 26 a6 b7 lui	a3, 618
0x80001498: ec 36 86 93 addi	a3, a3, -317
0x8000149c: 00 d7 87 b3 add	a5, a5, a3
0x800014a0: 00 17 95 13 slli	a0, a5, 1
0x800014a4: 00 f7 20 23 sw	a5, 0(a4)
0x800014a8: 01 15 55 13 srli	a0, a0, 17
0x800014ac: 00 00 80 67 jalr	zero, 0(ra)
0x800033a4: 00 05 04 13 addi	s0, a0, 0
0x800033a8: 8b 8f e0 ef jal	ra, 0x80001460
0x80001460: 00 00 67 17 auipc	a4, 6
0x80001464: b1 07 07 13 addi	a4, a4, -1264
0x80001468: 00 07 26 83 lw	a3, 0(a4)
0x8000146c: 00 16 97 93 slli	a5, a3, 1
0x80001470: 00 d7 87 b3 add	a5, a5, a3
0x80001474: 00 27 97 93 slli	a5, a5, 2
0x80001478: 00 d7 87 b3 add	a5, a5, a3
0x8000147c: 00 47 97 93 slli	a5, a5, 4
0x80001480: 00 d7 87 b3 add	a5, a5, a3
0x80001484: 00 87 97 93 slli	a5, a5, 8
0x80001488: 40 d7 87 b3 sub	a5, a5, a3
0x8000148c: 00 27 97 93 slli	a5, a5, 2
0x80001490: 00 d7 87 b3 add	a5, a5, a3
0x80001494: 00 26 a6 b7 lui	a3, 618
0x80001498: ec 36 86 93 addi	a3, a3, -317
0x8000149c: 00 d7 87 b3 add	a5, a5, a3
0x800014a0: 00 17 95 13 slli	a0, a5, 1
0x800014a4: 00 f7 20 23 sw	a5, 0(a4)
0x800014a8: 01 15 55 13 srli	a0, a0, 17
0x800014ac: 00 00 80 67 jalr	zero, 0(ra)
0x800033ac: 00 00 46 17 auipc	a2, 4
0x800033b0: f5 c6 06 13 addi	a2, a2, -164
0x800033b4: 00 06 27 83 lw	a5, 0(a2)
0x800033b8: 00 00 46 97 auipc	a3, 4
0x800033bc: f4 c6 86 93 addi	a3, a3, -180
0x800033c0: 00 24 95 93 slli	a1, s1, 2
0x800033c4: 01 04 14 13 slli	s0, s0, 16
0x800033c8: 00 06 a7 03 lw	a4, 0(a3)
0x800033cc: 00 b7 87 b3 add	a5, a5, a1
0x800033d0: 00 a4 64 33 or	s0, s0, a0
0x800033d4: 00 87 a0 23 sw	s0, 0(a5)
0x800033d8: 00 14 84 93 addi	s1, s1, 1
0x800033dc: fc e4 c2 e3 blt	s1, a4, 0x800033a0
0x800033a0: 8c 0f e0 ef jal	ra, 0x80001460
0x80001460: 00 00 67 17 auipc	a4, 6
0x80001464: b1 07 07 13 addi	a4, a4, -1264
0x80001468: 00 07 26 83 lw	a3, 0(a4)
0x8000146c: 00 16 97 93 slli	a5, a3, 1
0x80001470: 00 d7 87 b3 add	a5, a5, a3
0x80001474: 00 27 97 93 slli	a5, a5, 2
0x80001478: 00 d7 87 b3 add	a5, a5, a3
0x8000147c: 00 47 97 93 slli	a5, a5, 4
0x80001480: 00 d7 87 b3 add	a5, a5, a3
0x80001484: 00 87 97 93 slli	a5, a5, 8
0x80001488: 40 d7 87 b3 sub	a5, a5, a3
0x8000148c: 00 27 97 93 slli	a5, a5, 2
0x80001490: 00 d7 87 b3 add	a5, a5, a3
0x80001494: 00 26 a6 b7 lui	a3, 618
0x80001498: ec 36 86 93 addi	a3, a3, -317
0x8000149c: 00 d7 87 b3 add	a5, a5, a3
0x800014a0: 00 17 95 13 slli	a0, a5, 1
0x800014a4: 00 f7 20 23 sw	a5, 0(a4)
0x800014a8: 01 15 55 13 srli	a0, a0, 17
0x800014ac: 00 00 80 67 jalr	zero, 0(ra)
0x800033a4: 00 05 04 13 addi	s0, a0, 0
0x800033a8: 8b 8f e0 ef jal	ra, 0x80001460
0x80001460: 00 00 67 17 auipc	a4, 6
0x80001464: b1 07 07 13 addi	a4, a4, -1264
0x80001468: 00 07 26 83 lw	a3, 0(a4)
0x8000146c: 00 16 97 93 slli	a5, a3, 1
0x80001470: 00 d7 87 b3 add	a5, a5, a3
0x80001474: 00 27 97 93 slli	a5, a5, 2
0x80001478: 00 d7 87 b3 add	a5, a5, a3
0x8000147c: 00 47 97 93 slli	a5, a5, 4
0x80001480: 00 d7 87 b3 add	a5, a5, a3
0x80001484: 00 87 97 93 slli	a5, a5, 8
0x80001488: 40 d7 87 b3 sub	a5, a5, a3
0x8000148c: 00 27 97 93 slli	a5, a5, 2
0x80001490: 00 d7 87 b3 add	a5, a5, a3
0x80001494: 00 26 a6 b7 lui	a3, 618
0x80001498: ec 36 86 93 addi	a3, a3, -317
0x8000149c: 00 d7 87 b3 add	a5, a5, a3
0x800014a0: 00 17 95 13 slli	a0, a5, 1
0x800014a4: 00 f7 20 23 sw	a5, 0(a4)
0x800014a8: 01 15 55 13 srli	a0, a0, 17
0x800014ac: 00 00 80 67 jalr	zero, 0(ra)
0x800033ac: 00 00 46 17 auipc	a2, 4
0x800033b0: f5 c6 06 13 addi	a2, a2, -164
0x800033b4: 00 06 27 83 lw	a5, 0(a2)
0x800033b8: 00 00 46 97 auipc	a3, 4
0x800033bc: f4 c6 86 93 addi	a3, a3, -180
0x800033c0: 00 24 95 93 slli	a1, s1, 2
0x800033c4: 01 04 14 13 slli	s0, s0, 16
0x800033c8: 00 06 a7 03 lw	a4, 0(a3)
0x800033cc: 00 b7 87 b3 add	a5, a5, a1
0x800033d0: 00 a4 64 33 or	s0, s0, a0
0x800033d4: 00 87 a0 23 sw	s0, 0(a5)
0x800033d8: 00 14 84 93 addi	s1, s1, 1
0x800033dc: fc e4 c2 e3 blt	s1, a4, 0x800033a0
0x800033a0: 8c 0f e0 ef jal	ra, 0x80001460
0x80001460: 00 00 67 17 auipc	a4, 6
0x80001464: b1 07 07 13 addi	a4, a4, -1264
0x80001468: 00 07 26 83 lw	a3, 0(a4)
0x8000146c: 00 16 97 93 slli	a5, a3, 1
0x80001470: 00 d7 87 b3 add	a5, a5, a3
0x80001474: 00 27 97 93 slli	a5, a5, 2
0x80001478: 00 d7 87 b3 add	a5, a5, a3
0x8000147c: 00 47 97 93 slli	a5, a5, 4
0x80001480: 00 d7 87 b3 add	a5, a5, a3
0x80001484: 00 87 97 93 slli	a5, a5, 8
0x80001488: 40 d7 87 b3 sub	a5, a5, a3
0x8000148c: 00 27 97 93 slli	a5, a5, 2
0x80001490: 00 d7 87 b3 add	a5, a5, a3
0x80001494: 00 26 a6 b7 lui	a3, 618
0x80001498: ec 36 86 93 addi	a3, a3, -317
0x8000149c: 00 d7 87 b3 add	a5, a5, a3
0x800014a0: 00 17 95 13 slli	a0, a5, 1
0x800014a4: 00 f7 20 23 sw	a5, 0(a4)
0x800014a8: 01 15 55 13 srli	a0, a0, 17
0x800014ac: 00 00 80 67 jalr	zero, 0(ra)
0x800033a4: 00 05 04 13 addi	s0, a0, 0
0x800033a8: 8b 8f e0 ef jal	ra, 0x80001460
0x80001460: 00 00 67 17 auipc	a4, 6
0x80001464: b1 07 07 13 addi	a4, a4, -1264
0x80001468: 00 07 26 83 lw	a3, 0(a4)
0x8000146c: 00 16 97 93 slli	a5, a3, 1
0x80001470: 00 d7 87 b3 add	a5, a5, a3
0x80001474: 00 27 97 93 slli	a5, a5, 2
0x80001478: 00 d7 87 b3 add	a5, a5, a3
0x8000147c: 00 47 97 93 slli	a5, a5, 4
0x80001480: 00 d7 87 b3 add	a5, a5, a3
0x80001484: 00 87 97 93 slli	a5, a5, 8
0x80001488: 40 d7 87 b3 sub	a5, a5, a3
0x8000148c: 00 27 97 93 slli	a5, a5, 2
0x80001490: 00 d7 87 b3 add	a5, a5, a3
0x80001494: 00 26 a6 b7 lui	a3, 618
0x80001498: ec 36 86 93 addi	a3, a3, -317
0x8000149c: 00 d7 87 b3 add	a5, a5, a3
0x800014a0: 00 17 95 13 slli	a0, a5, 1
0x800014a4: 00 f7 20 23 sw	a5, 0(a4)
0x800014a8: 01 15 55 13 srli	a0, a0, 17
0x800014ac: 00 00 80 67 jalr	zero, 0(ra)
0x800033ac: 00 00 46 17 auipc	a2, 4
0x800033b0: f5 c6 06 13 addi	a2, a2, -164
0x800033b4: 00 06 27 83 lw	a5, 0(a2)
0x800033b8: 00 00 46 97 auipc	a3, 4
0x800033bc: f4 c6 86 93 addi	a3, a3, -180
0x800033c0: 00 24 95 93 slli	a1, s1, 2
0x800033c4: 01 04 14 13 slli	s0, s0, 16
0x800033c8: 00 06 a7 03 lw	a4, 0(a3)
0x800033cc: 00 b7 87 b3 add	a5, a5, a1
0x800033d0: 00 a4 64 33 or	s0, s0, a0
0x800033d4: 00 87 a0 23 sw	s0, 0(a5)
0x800033d8: 00 14 84 93 addi	s1, s1, 1
0x800033dc: fc e4 c2 e3 blt	s1, a4, 0x800033a0
0x800033a0: 8c 0f e0 ef jal	ra, 0x80001460
0x80001460: 00 00 67 17 auipc	a4, 6
0x80001464: b1 07 07 13 addi	a4, a4, -1264
0x80001468: 00 07 26 83 lw	a3, 0(a4)
0x8000146c: 00 16 97 93 slli	a5, a3, 1
0x80001470: 00 d7 87 b3 add	a5, a5, a3
0x80001474: 00 27 97 93 slli	a5, a5, 2
0x80001478: 00 d7 87 b3 add	a5, a5, a3
0x8000147c: 00 47 97 93 slli	a5, a5, 4
0x80001480: 00 d7 87 b3 add	a5, a5, a3
0x80001484: 00 87 97 93 slli	a5, a5, 8
0x80001488: 40 d7 87 b3 sub	a5, a5, a3
0x8000148c: 00 27 97 93 slli	a5, a5, 2
0x80001490: 00 d7 87 b3 add	a5, a5, a3
0x80001494: 00 26 a6 b7 lui	a3, 618
0x80001498: ec 36 86 93 addi	a3, a3, -317
0x8000149c: 00 d7 87 b3 add	a5, a5, a3
0x800014a0: 00 17 95 13 slli	a0, a5, 1
0x800014a4: 00 f7 20 23 sw	a5, 0(a4)
0x800014a8: 01 15 55 13 srli	a0, a0, 17
0x800014ac: 00 00 80 67 jalr	zero, 0(ra)
0x800033a4: 00 05 04 13 addi	s0, a0, 0
0x800033a8: 8b 8f e0 ef jal	ra, 0x80001460
0x80001460: 00 00 67 17 auipc	a4, 6
0x80001464: b1 07 07 13 addi	a4, a4, -1264
0x80001468: 00 07 26 83 lw	a3, 0(a4)
0x8000146c: 00 16 97 93 slli	a5, a3, 1
0x80001470: 00 d7 87 b3 add	a5, a5, a3
0x80001474: 00 27 97 93 slli	a5, a5, 2
0x80001478: 00 d7 87 b3 add	a5, a5, a3
0x8000147c: 00 47 97 93 slli	a5, a5, 4
0x80001480: 00 d7 87 b3 add	a5, a5, a3
0x80001484: 00 87 97 93 slli	a5, a5, 8
0x80001488: 40 d7 87 b3 sub	a5, a5, a3
0x8000148c: 00 27 97 93 slli	a5, a5, 2
0x80001490: 00 d7 87 b3 add	a5, a5, a3
0x80001494: 00 26 a6 b7 lui	a3, 618
0x80001498: ec 36 86 93 addi	a3, a3, -317
0x8000149c: 00 d7 87 b3 add	a5, a5, a3
0x800014a0: 00 17 95 13 slli	a0, a5, 1
0x800014a4: 00 f7 20 23 sw	a5, 0(a4)
0x800014a8: 01 15 55 13 srli	a0, a0, 17
0x800014ac: 00 00 80 67 jalr	zero, 0(ra)
0x800033ac: 00 00 46 17 auipc	a2, 4
0x800033b0: f5 c6 06 13 addi	a2, a2, -164
0x800033b4: 00 06 27 83 lw	a5, 0(a2)
0x800033b8: 00 00 46 97 auipc	a3, 4
0x800033bc: f4 c6 86 93 addi	a3, a3, -180
0x800033c0: 00 24 95 93 slli	a1, s1, 2
0x800033c4: 01 04 14 13 slli	s0, s0, 16
0x800033c8: 00 06 a7 03 lw	a4, 0(a3)
0x800033cc: 00 b7 87 b3 add	a5, a5, a1
0x800033d0: 00 a4 64 33 or	s0, s0, a0
0x800033d4: 00 87 a0 23 sw	s0, 0(a5)
0x800033d8: 00 14 84 93 addi	s1, s1, 1
0x800033dc: fc e4 c2 e3 blt	s1, a4, 0x800033a0
0x800033a0: 8c 0f e0 ef jal	ra, 0x80001460
0x80001460: 00 00 67 17 auipc	a4, 6
0x80001464: b1 07 07 13 addi	a4, a4, -1264
0x80001468: 00 07 26 83 lw	a3, 0(a4)
0x8000146c: 00 16 97 93 slli	a5, a3, 1
0x80001470: 00 d7 87 b3 add	a5, a5, a3
0x80001474: 00 27 97 93 slli	a5, a5, 2
0x80001478: 00 d7 87 b3 add	a5, a5, a3
0x8000147c: 00 47 97 93 slli	a5, a5, 4
0x80001480: 00 d7 87 b3 add	a5, a5, a3
0x80001484: 00 87 97 93 slli	a5, a5, 8
0x80001488: 40 d7 87 b3 sub	a5, a5, a3
0x8000148c: 00 27 97 93 slli	a5, a5, 2
0x80001490: 00 d7 87 b3 add	a5, a5, a3
0x80001494: 00 26 a6 b7 lui	a3, 618
0x80001498: ec 36 86 93 addi	a3, a3, -317
0x8000149c: 00 d7 87 b3 add	a5, a5, a3
0x800014a0: 00 17 95 13 slli	a0, a5, 1
0x800014a4: 00 f7 20 23 sw	a5, 0(a4)
0x800014a8: 01 15 55 13 srli	a0, a0, 17
0x800014ac: 00 00 80 67 jalr	zero, 0(ra)
0x800033a4: 00 05 04 13 addi	s0, a0, 0
0x800033a8: 8b 8f e0 ef jal	ra, 0x80001460
0x80001460: 00 00 67 17 auipc	a4, 6
0x80001464: b1 07 07 13 addi	a4, a4, -1264
0x80001468: 00 07 26 83 lw	a3, 0(a4)
0x8000146c: 00 16 97 93 slli	a5, a3, 1
0x80001470: 00 d7 87 b3 add	a5, a5, a3
0x80001474: 00 27 97 93 slli	a5, a5, 2
0x80001478: 00 d7 87 b3 add	a5, a5, a3
0x8000147c: 00 47 97 93 slli	a5, a5, 4
0x80001480: 00 d7 87 b3 add	a5, a5, a3
0x80001484: 00 87 97 93 slli	a5, a5, 8
0x80001488: 40 d7 87 b3 sub	a5, a5, a3
0x8000148c: 00 27 97 93 slli	a5, a5, 2
0x80001490: 00 d7 87 b3 add	a5, a5, a3
0x80001494: 00 26 a6 b7 lui	a3, 618
0x80001498: ec 36 86 93 addi	a3, a3, -317
0x8000149c: 00 d7 87 b3 add	a5, a5, a3
0x800014a0: 00 17 95 13 slli	a0, a5, 1
0x800014a4: 00 f7 20 23 sw	a5, 0(a4)
0x800014a8: 01 15 55 13 srli	a0, a0, 17
0x800014ac: 00 00 80 67 jalr	zero, 0(ra)
0x800033ac: 00 00 46 17 auipc	a2, 4
0x800033b0: f5 c6 06 13 addi	a2, a2, -164
0x800033b4: 00 06 27 83 lw	a5, 0(a2)
0x800033b8: 00 00 46 97 auipc	a3, 4
0x800033bc: f4 c6 86 93 addi	a3, a3, -180
0x800033c0: 00 24 95 93 slli	a1, s1, 2
0x800033c4: 01 04 14 13 slli	s0, s0, 16
0x800033c8: 00 06 a7 03 lw	a4, 0(a3)
0x800033cc: 00 b7 87 b3 add	a5, a5, a1
0x800033d0: 00 a4 64 33 or	s0, s0, a0
0x800033d4: 00 87 a0 23 sw	s0, 0(a5)
0x800033d8: 00 14 84 93 addi	s1, s1, 1
0x800033dc: fc e4 c2 e3 blt	s1, a4, 0x800033a0
0x800033a0: 8c 0f e0 ef jal	ra, 0x80001460
0x80001460: 00 00 67 17 auipc	a4, 6
0x80001464: b1 07 07 13 addi	a4, a4, -1264
0x80001468: 00 07 26 83 lw	a3, 0(a4)
0x8000146c: 00 16 97 93 slli	a5, a3, 1
0x80001470: 00 d7 87 b3 add	a5, a5, a3
0x80001474: 00 27 97 93 slli	a5, a5, 2
0x80001478: 00 d7 87 b3 add	a5, a5, a3
0x8000147c: 00 47 97 93 slli	a5, a5, 4
0x80001480: 00 d7 87 b3 add	a5, a5, a3
0x80001484: 00 87 97 93 slli	a5, a5, 8
0x80001488: 40 d7 87 b3 sub	a5, a5, a3
0x8000148c: 00 27 97 93 slli	a5, a5, 2
0x80001490: 00 d7 87 b3 add	a5, a5, a3
0x80001494: 00 26 a6 b7 lui	a3, 618
0x80001498: ec 36 86 93 addi	a3, a3, -317
0x8000149c: 00 d7 87 b3 add	a5, a5, a3
0x800014a0: 00 17 95 13 slli	a0, a5, 1
0x800014a4: 00 f7 20 23 sw	a5, 0(a4)
0x800014a8: 01 15 55 13 srli	a0, a0, 17
0x800014ac: 00 00 80 67 jalr	zero, 0(ra)
0x800033a4: 00 05 04 13 addi	s0, a0, 0
0x800033a8: 8b 8f e0 ef jal	ra, 0x80001460
0x80001460: 00 00 67 17 auipc	a4, 6
0x80001464: b1 07 07 13 addi	a4, a4, -1264
0x80001468: 00 07 26 83 lw	a3, 0(a4)
0x8000146c: 00 16 97 93 slli	a5, a3, 1
0x80001470: 00 d7 87 b3 add	a5, a5, a3
0x80001474: 00 27 97 93 slli	a5, a5, 2
0x80001478: 00 d7 87 b3 add	a5, a5, a3
0x8000147c: 00 47 97 93 slli	a5, a5, 4
0x80001480: 00 d7 87 b3 add	a5, a5, a3
0x80001484: 00 87 97 93 slli	a5, a5, 8
0x80001488: 40 d7 87 b3 sub	a5, a5, a3
0x8000148c: 00 27 97 93 slli	a5, a5, 2
0x80001490: 00 d7 87 b3 add	a5, a5, a3
0x80001494: 00 26 a6 b7 lui	a3, 618
0x80001498: ec 36 86 93 addi	a3, a3, -317
0x8000149c: 00 d7 87 b3 add	a5, a5, a3
0x800014a0: 00 17 95 13 slli	a0, a5, 1
0x800014a4: 00 f7 20 23 sw	a5, 0(a4)
0x800014a8: 01 15 55 13 srli	a0, a0, 17
0x800014ac: 00 00 80 67 jalr	zero, 0(ra)
0x800033ac: 00 00 46 17 auipc	a2, 4
0x800033b0: f5 c6 06 13 addi	a2, a2, -164
0x800033b4: 00 06 27 83 lw	a5, 0(a2)
0x800033b8: 00 00 46 97 auipc	a3, 4
0x800033bc: f4 c6 86 93 addi	a3, a3, -180
0x800033c0: 00 24 95 93 slli	a1, s1, 2
0x800033c4: 01 04 14 13 slli	s0, s0, 16
0x800033c8: 00 06 a7 03 lw	a4, 0(a3)
0x800033cc: 00 b7 87 b3 add	a5, a5, a1
0x800033d0: 00 a4 64 33 or	s0, s0, a0
0x800033d4: 00 87 a0 23 sw	s0, 0(a5)
0x800033d8: 00 14 84 93 addi	s1, s1, 1
0x800033dc: fc e4 c2 e3 blt	s1, a4, 0x800033a0
0x800033a0: 8c 0f e0 ef jal	ra, 0x80001460
0x80001460: 00 00 67 17 auipc	a4, 6
0x80001464: b1 07 07 13 addi	a4, a4, -1264
0x80001468: 00 07 26 83 lw	a3, 0(a4)
0x8000146c: 00 16 97 93 slli	a5, a3, 1
0x80001470: 00 d7 87 b3 add	a5, a5, a3
0x80001474: 00 27 97 93 slli	a5, a5, 2
0x80001478: 00 d7 87 b3 add	a5, a5, a3
0x8000147c: 00 47 97 93 slli	a5, a5, 4
0x80001480: 00 d7 87 b3 add	a5, a5, a3
0x80001484: 00 87 97 93 slli	a5, a5, 8
0x80001488: 40 d7 87 b3 sub	a5, a5, a3
0x8000148c: 00 27 97 93 slli	a5, a5, 2
0x80001490: 00 d7 87 b3 add	a5, a5, a3
0x80001494: 00 26 a6 b7 lui	a3, 618
0x80001498: ec 36 86 93 addi	a3, a3, -317
0x8000149c: 00 d7 87 b3 add	a5, a5, a3
0x800014a0: 00 17 95 13 slli	a0, a5, 1
0x800014a4: 00 f7 20 23 sw	a5, 0(a4)
0x800014a8: 01 15 55 13 srli	a0, a0, 17
0x800014ac: 00 00 80 67 jalr	zero, 0(ra)
0x800033a4: 00 05 04 13 addi	s0, a0, 0
0x800033a8: 8b 8f e0 ef jal	ra, 0x80001460
0x80001460: 00 00 67 17 auipc	a4, 6
0x80001464: b1 07 07 13 addi	a4, a4, -1264
0x80001468: 00 07 26 83 lw	a3, 0(a4)
0x8000146c: 00 16 97 93 slli	a5, a3, 1
0x80001470: 00 d7 87 b3 add	a5, a5, a3
0x80001474: 00 27 97 93 slli	a5, a5, 2
0x80001478: 00 d7 87 b3 add	a5, a5, a3
0x8000147c: 00 47 97 93 slli	a5, a5, 4
0x80001480: 00 d7 87 b3 add	a5, a5, a3
0x80001484: 00 87 97 93 slli	a5, a5, 8
0x80001488: 40 d7 87 b3 sub	a5, a5, a3
0x8000148c: 00 27 97 93 slli	a5, a5, 2
0x80001490: 00 d7 87 b3 add	a5, a5, a3
0x80001494: 00 26 a6 b7 lui	a3, 618
0x80001498: ec 36 86 93 addi	a3, a3, -317
0x8000149c: 00 d7 87 b3 add	a5, a5, a3
0x800014a0: 00 17 95 13 slli	a0, a5, 1
0x800014a4: 00 f7 20 23 sw	a5, 0(a4)
0x800014a8: 01 15 55 13 srli	a0, a0, 17
0x800014ac: 00 00 80 67 jalr	zero, 0(ra)
0x800033ac: 00 00 46 17 auipc	a2, 4
0x800033b0: f5 c6 06 13 addi	a2, a2, -164
0x800033b4: 00 06 27 83 lw	a5, 0(a2)
0x800033b8: 00 00 46 97 auipc	a3, 4
0x800033bc: f4 c6 86 93 addi	a3, a3, -180
0x800033c0: 00 24 95 93 slli	a1, s1, 2
0x800033c4: 01 04 14 13 slli	s0, s0, 16
0x800033c8: 00 06 a7 03 lw	a4, 0(a3)
0x800033cc: 00 b7 87 b3 add	a5, a5, a1
0x800033d0: 00 a4 64 33 or	s0, s0, a0
0x800033d4: 00 87 a0 23 sw	s0, 0(a5)
0x800033d8: 00 14 84 93 addi	s1, s1, 1
0x800033dc: fc e4 c2 e3 blt	s1, a4, 0x800033a0
0x800033a0: 8c 0f e0 ef jal	ra, 0x80001460
0x80001460: 00 00 67 17 auipc	a4, 6
0x80001464: b1 07 07 13 addi	a4, a4, -1264
0x80001468: 00 07 26 83 lw	a3, 0(a4)
0x8000146c: 00 16 97 93 slli	a5, a3, 1
0x80001470: 00 d7 87 b3 add	a5, a5, a3
0x80001474: 00 27 97 93 slli	a5, a5, 2
0x80001478: 00 d7 87 b3 add	a5, a5, a3
0x8000147c: 00 47 97 93 slli	a5, a5, 4
0x80001480: 00 d7 87 b3 add	a5, a5, a3
0x80001484: 00 87 97 93 slli	a5, a5, 8
0x80001488: 40 d7 87 b3 sub	a5, a5, a3
0x8000148c: 00 27 97 93 slli	a5, a5, 2
0x80001490: 00 d7 87 b3 add	a5, a5, a3
0x80001494: 00 26 a6 b7 lui	a3, 618
0x80001498: ec 36 86 93 addi	a3, a3, -317
0x8000149c: 00 d7 87 b3 add	a5, a5, a3
0x800014a0: 00 17 95 13 slli	a0, a5, 1
0x800014a4: 00 f7 20 23 sw	a5, 0(a4)
0x800014a8: 01 15 55 13 srli	a0, a0, 17
0x800014ac: 00 00 80 67 jalr	zero, 0(ra)
0x800033a4: 00 05 04 13 addi	s0, a0, 0
0x800033a8: 8b 8f e0 ef jal	ra, 0x80001460
0x80001460: 00 00 67 17 auipc	a4, 6
0x80001464: b1 07 07 13 addi	a4, a4, -1264
0x80001468: 00 07 26 83 lw	a3, 0(a4)
0x8000146c: 00 16 97 93 slli	a5, a3, 1
0x80001470: 00 d7 87 b3 add	a5, a5, a3
0x80001474: 00 27 97 93 slli	a5, a5, 2
0x80001478: 00 d7 87 b3 add	a5, a5, a3
0x8000147c: 00 47 97 93 slli	a5, a5, 4
0x80001480: 00 d7 87 b3 add	a5, a5, a3
0x80001484: 00 87 97 93 slli	a5, a5, 8
0x80001488: 40 d7 87 b3 sub	a5, a5, a3
0x8000148c: 00 27 97 93 slli	a5, a5, 2
0x80001490: 00 d7 87 b3 add	a5, a5, a3
0x80001494: 00 26 a6 b7 lui	a3, 618
0x80001498: ec 36 86 93 addi	a3, a3, -317
0x8000149c: 00 d7 87 b3 add	a5, a5, a3
0x800014a0: 00 17 95 13 slli	a0, a5, 1
0x800014a4: 00 f7 20 23 sw	a5, 0(a4)
0x800014a8: 01 15 55 13 srli	a0, a0, 17
0x800014ac: 00 00 80 67 jalr	zero, 0(ra)
0x800033ac: 00 00 46 17 auipc	a2, 4
0x800033b0: f5 c6 06 13 addi	a2, a2, -164
0x800033b4: 00 06 27 83 lw	a5, 0(a2)
0x800033b8: 00 00 46 97 auipc	a3, 4
0x800033bc: f4 c6 86 93 addi	a3, a3, -180
0x800033c0: 00 24 95 93 slli	a1, s1, 2
0x800033c4: 01 04 14 13 slli	s0, s0, 16
0x800033c8: 00 06 a7 03 lw	a4, 0(a3)
0x800033cc: 00 b7 87 b3 add	a5, a5, a1
0x800033d0: 00 a4 64 33 or	s0, s0, a0
0x800033d4: 00 87 a0 23 sw	s0, 0(a5)
0x800033d8: 00 14 84 93 addi	s1, s1, 1
0x800033dc: fc e4 c2 e3 blt	s1, a4, 0x800033a0
0x800033a0: 8c 0f e0 ef jal	ra, 0x80001460
0x80001460: 00 00 67 17 auipc	a4, 6
0x80001464: b1 07 07 13 addi	a4, a4, -1264
0x80001468: 00 07 26 83 lw	a3, 0(a4)
0x8000146c: 00 16 97 93 slli	a5, a3, 1
0x80001470: 00 d7 87 b3 add	a5, a5, a3
0x80001474: 00 27 97 93 slli	a5, a5, 2
0x80001478: 00 d7 87 b3 add	a5, a5, a3
0x8000147c: 00 47 97 93 slli	a5, a5, 4
0x80001480: 00 d7 87 b3 add	a5, a5, a3
0x80001484: 00 87 97 93 slli	a5, a5, 8
0x80001488: 40 d7 87 b3 sub	a5, a5, a3
0x8000148c: 00 27 97 93 slli	a5, a5, 2
0x80001490: 00 d7 87 b3 add	a5, a5, a3
0x80001494: 00 26 a6 b7 lui	a3, 618
0x80001498: ec 36 86 93 addi	a3, a3, -317
0x8000149c: 00 d7 87 b3 add	a5, a5, a3
0x800014a0: 00 17 95 13 slli	a0, a5, 1
0x800014a4: 00 f7 20 23 sw	a5, 0(a4)
0x800014a8: 01 15 55 13 srli	a0, a0, 17
0x800014ac: 00 00 80 67 jalr	zero, 0(ra)
0x800033a4: 00 05 04 13 addi	s0, a0, 0
0x800033a8: 8b 8f e0 ef jal	ra, 0x80001460
0x80001460: 00 00 67 17 auipc	a4, 6
0x80001464: b1 07 07 13 addi	a4, a4, -1264
0x80001468: 00 07 26 83 lw	a3, 0(a4)
0x8000146c: 00 16 97 93 slli	a5, a3, 1
0x80001470: 00 d7 87 b3 add	a5, a5, a3
0x80001474: 00 27 97 93 slli	a5, a5, 2
0x80001478: 00 d7 87 b3 add	a5, a5, a3
0x8000147c: 00 47 97 93 slli	a5, a5, 4
0x80001480: 00 d7 87 b3 add	a5, a5, a3
0x80001484: 00 87 97 93 slli	a5, a5, 8
0x80001488: 40 d7 87 b3 sub	a5, a5, a3
0x8000148c: 00 27 97 93 slli	a5, a5, 2
0x80001490: 00 d7 87 b3 add	a5, a5, a3
0x80001494: 00 26 a6 b7 lui	a3, 618
0x80001498: ec 36 86 93 addi	a3, a3, -317
0x8000149c: 00 d7 87 b3 add	a5, a5, a3
0x800014a0: 00 17 95 13 slli	a0, a5, 1
0x800014a4: 00 f7 20 23 sw	a5, 0(a4)
0x800014a8: 01 15 55 13 srli	a0, a0, 17
0x800014ac: 00 00 80 67 jalr	zero, 0(ra)
0x800033ac: 00 00 46 17 auipc	a2, 4
0x800033b0: f5 c6 06 13 addi	a2, a2, -164
0x800033b4: 00 06 27 83 lw	a5, 0(a2)
0x800033b8: 00 00 46 97 auipc	a3, 4
0x800033bc: f4 c6 86 93 addi	a3, a3, -180
0x800033c0: 00 24 95 93 slli	a1, s1, 2
0x800033c4: 01 04 14 13 slli	s0, s0, 16
0x800033c8: 00 06 a7 03 lw	a4, 0(a3)
0x800033cc: 00 b7 87 b3 add	a5, a5, a1
0x800033d0: 00 a4 64 33 or	s0, s0, a0
0x800033d4: 00 87 a0 23 sw	s0, 0(a5)
0x800033d8: 00 14 84 93 addi	s1, s1, 1
0x800033dc: fc e4 c2 e3 blt	s1, a4, 0x800033a0
0x800033a0: 8c 0f e0 ef jal	ra, 0x80001460
0x80001460: 00 00 67 17 auipc	a4, 6
0x80001464: b1 07 07 13 addi	a4, a4, -1264
0x80001468: 00 07 26 83 lw	a3, 0(a4)
0x8000146c: 00 16 97 93 slli	a5, a3, 1
0x80001470: 00 d7 87 b3 add	a5, a5, a3
0x80001474: 00 27 97 93 slli	a5, a5, 2
0x80001478: 00 d7 87 b3 add	a5, a5, a3
0x8000147c: 00 47 97 93 slli	a5, a5, 4
0x80001480: 00 d7 87 b3 add	a5, a5, a3
0x80001484: 00 87 97 93 slli	a5, a5, 8
0x80001488: 40 d7 87 b3 sub	a5, a5, a3
0x8000148c: 00 27 97 93 slli	a5, a5, 2
0x80001490: 00 d7 87 b3 add	a5, a5, a3
0x80001494: 00 26 a6 b7 lui	a3, 618
0x80001498: ec 36 86 93 addi	a3, a3, -317
0x8000149c: 00 d7 87 b3 add	a5, a5, a3
0x800014a0: 00 17 95 13 slli	a0, a5, 1
0x800014a4: 00 f7 20 23 sw	a5, 0(a4)
0x800014a8: 01 15 55 13 srli	a0, a0, 17
0x800014ac: 00 00 80 67 jalr	zero, 0(ra)
0x800033a4: 00 05 04 13 addi	s0, a0, 0
0x800033a8: 8b 8f e0 ef jal	ra, 0x80001460
0x80001460: 00 00 67 17 auipc	a4, 6
0x80001464: b1 07 07 13 addi	a4, a4, -1264
0x80001468: 00 07 26 83 lw	a3, 0(a4)
0x8000146c: 00 16 97 93 slli	a5, a3, 1
0x80001470: 00 d7 87 b3 add	a5, a5, a3
0x80001474: 00 27 97 93 slli	a5, a5, 2
0x80001478: 00 d7 87 b3 add	a5, a5, a3
0x8000147c: 00 47 97 93 slli	a5, a5, 4
0x80001480: 00 d7 87 b3 add	a5, a5, a3
0x80001484: 00 87 97 93 slli	a5, a5, 8
0x80001488: 40 d7 87 b3 sub	a5, a5, a3
0x8000148c: 00 27 97 93 slli	a5, a5, 2
0x80001490: 00 d7 87 b3 add	a5, a5, a3
0x80001494: 00 26 a6 b7 lui	a3, 618
0x80001498: ec 36 86 93 addi	a3, a3, -317
0x8000149c: 00 d7 87 b3 add	a5, a5, a3
0x800014a0: 00 17 95 13 slli	a0, a5, 1
0x800014a4: 00 f7 20 23 sw	a5, 0(a4)
0x800014a8: 01 15 55 13 srli	a0, a0, 17
0x800014ac: 00 00 80 67 jalr	zero, 0(ra)
0x800033ac: 00 00 46 17 auipc	a2, 4
0x800033b0: f5 c6 06 13 addi	a2, a2, -164
0x800033b4: 00 06 27 83 lw	a5, 0(a2)
0x800033b8: 00 00 46 97 auipc	a3, 4
0x800033bc: f4 c6 86 93 addi	a3, a3, -180
0x800033c0: 00 24 95 93 slli	a1, s1, 2
0x800033c4: 01 04 14 13 slli	s0, s0, 16
0x800033c8: 00 06 a7 03 lw	a4, 0(a3)
0x800033cc: 00 b7 87 b3 add	a5, a5, a1
0x800033d0: 00 a4 64 33 or	s0, s0, a0
0x800033d4: 00 87 a0 23 sw	s0, 0(a5)
0x800033d8: 00 14 84 93 addi	s1, s1, 1
0x800033dc: fc e4 c2 e3 blt	s1, a4, 0x800033a0
0x800033a0: 8c 0f e0 ef jal	ra, 0x80001460
0x80001460: 00 00 67 17 auipc	a4, 6
0x80001464: b1 07 07 13 addi	a4, a4, -1264
0x80001468: 00 07 26 83 lw	a3, 0(a4)
0x8000146c: 00 16 97 93 slli	a5, a3, 1
0x80001470: 00 d7 87 b3 add	a5, a5, a3
0x80001474: 00 27 97 93 slli	a5, a5, 2
0x80001478: 00 d7 87 b3 add	a5, a5, a3
0x8000147c: 00 47 97 93 slli	a5, a5, 4
0x80001480: 00 d7 87 b3 add	a5, a5, a3
0x80001484: 00 87 97 93 slli	a5, a5, 8
0x80001488: 40 d7 87 b3 sub	a5, a5, a3
0x8000148c: 00 27 97 93 slli	a5, a5, 2
0x80001490: 00 d7 87 b3 add	a5, a5, a3
0x80001494: 00 26 a6 b7 lui	a3, 618
0x80001498: ec 36 86 93 addi	a3, a3, -317
0x8000149c: 00 d7 87 b3 add	a5, a5, a3
0x800014a0: 00 17 95 13 slli	a0, a5, 1
0x800014a4: 00 f7 20 23 sw	a5, 0(a4)
0x800014a8: 01 15 55 13 srli	a0, a0, 17
0x800014ac: 00 00 80 67 jalr	zero, 0(ra)
0x800033a4: 00 05 04 13 addi	s0, a0, 0
0x800033a8: 8b 8f e0 ef jal	ra, 0x80001460
0x80001460: 00 00 67 17 auipc	a4, 6
0x80001464: b1 07 07 13 addi	a4, a4, -1264
0x80001468: 00 07 26 83 lw	a3, 0(a4)
0x8000146c: 00 16 97 93 slli	a5, a3, 1
0x80001470: 00 d7 87 b3 add	a5, a5, a3
0x80001474: 00 27 97 93 slli	a5, a5, 2
0x80001478: 00 d7 87 b3 add	a5, a5, a3
0x8000147c: 00 47 97 93 slli	a5, a5, 4
0x80001480: 00 d7 87 b3 add	a5, a5, a3
0x80001484: 00 87 97 93 slli	a5, a5, 8
0x80001488: 40 d7 87 b3 sub	a5, a5, a3
0x8000148c: 00 27 97 93 slli	a5, a5, 2
0x80001490: 00 d7 87 b3 add	a5, a5, a3
0x80001494: 00 26 a6 b7 lui	a3, 618
0x80001498: ec 36 86 93 addi	a3, a3, -317
0x8000149c: 00 d7 87 b3 add	a5, a5, a3
0x800014a0: 00 17 95 13 slli	a0, a5, 1
0x800014a4: 00 f7 20 23 sw	a5, 0(a4)
0x800014a8: 01 15 55 13 srli	a0, a0, 17
0x800014ac: 00 00 80 67 jalr	zero, 0(ra)
0x800033ac: 00 00 46 17 auipc	a2, 4
0x800033b0: f5 c6 06 13 addi	a2, a2, -164
0x800033b4: 00 06 27 83 lw	a5, 0(a2)
0x800033b8: 00 00 46 97 auipc	a3, 4
0x800033bc: f4 c6 86 93 addi	a3, a3, -180
0x800033c0: 00 24 95 93 slli	a1, s1, 2
0x800033c4: 01 04 14 13 slli	s0, s0, 16
0x800033c8: 00 06 a7 03 lw	a4, 0(a3)
0x800033cc: 00 b7 87 b3 add	a5, a5, a1
0x800033d0: 00 a4 64 33 or	s0, s0, a0
0x800033d4: 00 87 a0 23 sw	s0, 0(a5)
0x800033d8: 00 14 84 93 addi	s1, s1, 1
0x800033dc: fc e4 c2 e3 blt	s1, a4, 0x800033a0
0x800033a0: 8c 0f e0 ef jal	ra, 0x80001460
0x80001460: 00 00 67 17 auipc	a4, 6
0x80001464: b1 07 07 13 addi	a4, a4, -1264
0x80001468: 00 07 26 83 lw	a3, 0(a4)
0x8000146c: 00 16 97 93 slli	a5, a3, 1
0x80001470: 00 d7 87 b3 add	a5, a5, a3
0x80001474: 00 27 97 93 slli	a5, a5, 2
0x80001478: 00 d7 87 b3 add	a5, a5, a3
0x8000147c: 00 47 97 93 slli	a5, a5, 4
0x80001480: 00 d7 87 b3 add	a5, a5, a3
0x80001484: 00 87 97 93 slli	a5, a5, 8
0x80001488: 40 d7 87 b3 sub	a5, a5, a3
0x8000148c: 00 27 97 93 slli	a5, a5, 2
0x80001490: 00 d7 87 b3 add	a5, a5, a3
0x80001494: 00 26 a6 b7 lui	a3, 618
0x80001498: ec 36 86 93 addi	a3, a3, -317
0x8000149c: 00 d7 87 b3 add	a5, a5, a3
0x800014a0: 00 17 95 13 slli	a0, a5, 1
0x800014a4: 00 f7 20 23 sw	a5, 0(a4)
0x800014a8: 01 15 55 13 srli	a0, a0, 17
0x800014ac: 00 00 80 67 jalr	zero, 0(ra)
0x800033a4: 00 05 04 13 addi	s0, a0, 0
0x800033a8: 8b 8f e0 ef jal	ra, 0x80001460
0x80001460: 00 00 67 17 auipc	a4, 6
0x80001464: b1 07 07 13 addi	a4, a4, -1264
0x80001468: 00 07 26 83 lw	a3, 0(a4)
0x8000146c: 00 16 97 93 slli	a5, a3, 1
0x80001470: 00 d7 87 b3 add	a5, a5, a3
0x80001474: 00 27 97 93 slli	a5, a5, 2
0x80001478: 00 d7 87 b3 add	a5, a5, a3
0x8000147c: 00 47 97 93 slli	a5, a5, 4
0x80001480: 00 d7 87 b3 add	a5, a5, a3
0x80001484: 00 87 97 93 slli	a5, a5, 8
0x80001488: 40 d7 87 b3 sub	a5, a5, a3
0x8000148c: 00 27 97 93 slli	a5, a5, 2
0x80001490: 00 d7 87 b3 add	a5, a5, a3
0x80001494: 00 26 a6 b7 lui	a3, 618
0x80001498: ec 36 86 93 addi	a3, a3, -317
0x8000149c: 00 d7 87 b3 add	a5, a5, a3
0x800014a0: 00 17 95 13 slli	a0, a5, 1
0x800014a4: 00 f7 20 23 sw	a5, 0(a4)
0x800014a8: 01 15 55 13 srli	a0, a0, 17
0x800014ac: 00 00 80 67 jalr	zero, 0(ra)
0x800033ac: 00 00 46 17 auipc	a2, 4
0x800033b0: f5 c6 06 13 addi	a2, a2, -164
0x800033b4: 00 06 27 83 lw	a5, 0(a2)
0x800033b8: 00 00 46 97 auipc	a3, 4
0x800033bc: f4 c6 86 93 addi	a3, a3, -180
0x800033c0: 00 24 95 93 slli	a1, s1, 2
0x800033c4: 01 04 14 13 slli	s0, s0, 16
0x800033c8: 00 06 a7 03 lw	a4, 0(a3)
0x800033cc: 00 b7 87 b3 add	a5, a5, a1
0x800033d0: 00 a4 64 33 or	s0, s0, a0
0x800033d4: 00 87 a0 23 sw	s0, 0(a5)
0x800033d8: 00 14 84 93 addi	s1, s1, 1
0x800033dc: fc e4 c2 e3 blt	s1, a4, 0x800033a0
0x800033a0: 8c 0f e0 ef jal	ra, 0x80001460
0x80001460: 00 00 67 17 auipc	a4, 6
0x80001464: b1 07 07 13 addi	a4, a4, -1264
0x80001468: 00 07 26 83 lw	a3, 0(a4)
0x8000146c: 00 16 97 93 slli	a5, a3, 1
0x80001470: 00 d7 87 b3 add	a5, a5, a3
0x80001474: 00 27 97 93 slli	a5, a5, 2
0x80001478: 00 d7 87 b3 add	a5, a5, a3
0x8000147c: 00 47 97 93 slli	a5, a5, 4
0x80001480: 00 d7 87 b3 add	a5, a5, a3
0x80001484: 00 87 97 93 slli	a5, a5, 8
0x80001488: 40 d7 87 b3 sub	a5, a5, a3
0x8000148c: 00 27 97 93 slli	a5, a5, 2
0x80001490: 00 d7 87 b3 add	a5, a5, a3
0x80001494: 00 26 a6 b7 lui	a3, 618
0x80001498: ec 36 86 93 addi	a3, a3, -317
0x8000149c: 00 d7 87 b3 add	a5, a5, a3
0x800014a0: 00 17 95 13 slli	a0, a5, 1
0x800014a4: 00 f7 20 23 sw	a5, 0(a4)
0x800014a8: 01 15 55 13 srli	a0, a0, 17
0x800014ac: 00 00 80 67 jalr	zero, 0(ra)
0x800033a4: 00 05 04 13 addi	s0, a0, 0
0x800033a8: 8b 8f e0 ef jal	ra, 0x80001460
0x80001460: 00 00 67 17 auipc	a4, 6
0x80001464: b1 07 07 13 addi	a4, a4, -1264
0x80001468: 00 07 26 83 lw	a3, 0(a4)
0x8000146c: 00 16 97 93 slli	a5, a3, 1
0x80001470: 00 d7 87 b3 add	a5, a5, a3
0x80001474: 00 27 97 93 slli	a5, a5, 2
0x80001478: 00 d7 87 b3 add	a5, a5, a3
0x8000147c: 00 47 97 93 slli	a5, a5, 4
0x80001480: 00 d7 87 b3 add	a5, a5, a3
0x80001484: 00 87 97 93 slli	a5, a5, 8
0x80001488: 40 d7 87 b3 sub	a5, a5, a3
0x8000148c: 00 27 97 93 slli	a5, a5, 2
0x80001490: 00 d7 87 b3 add	a5, a5, a3
0x80001494: 00 26 a6 b7 lui	a3, 618
0x80001498: ec 36 86 93 addi	a3, a3, -317
0x8000149c: 00 d7 87 b3 add	a5, a5, a3
0x800014a0: 00 17 95 13 slli	a0, a5, 1
0x800014a4: 00 f7 20 23 sw	a5, 0(a4)
0x800014a8: 01 15 55 13 srli	a0, a0, 17
0x800014ac: 00 00 80 67 jalr	zero, 0(ra)
0x800033ac: 00 00 46 17 auipc	a2, 4
0x800033b0: f5 c6 06 13 addi	a2, a2, -164
0x800033b4: 00 06 27 83 lw	a5, 0(a2)
0x800033b8: 00 00 46 97 auipc	a3, 4
0x800033bc: f4 c6 86 93 addi	a3, a3, -180
0x800033c0: 00 24 95 93 slli	a1, s1, 2
0x800033c4: 01 04 14 13 slli	s0, s0, 16
0x800033c8: 00 06 a7 03 lw	a4, 0(a3)
0x800033cc: 00 b7 87 b3 add	a5, a5, a1
0x800033d0: 00 a4 64 33 or	s0, s0, a0
0x800033d4: 00 87 a0 23 sw	s0, 0(a5)
0x800033d8: 00 14 84 93 addi	s1, s1, 1
0x800033dc: fc e4 c2 e3 blt	s1, a4, 0x800033a0
0x800033a0: 8c 0f e0 ef jal	ra, 0x80001460
0x80001460: 00 00 67 17 auipc	a4, 6
0x80001464: b1 07 07 13 addi	a4, a4, -1264
0x80001468: 00 07 26 83 lw	a3, 0(a4)
0x8000146c: 00 16 97 93 slli	a5, a3, 1
0x80001470: 00 d7 87 b3 add	a5, a5, a3
0x80001474: 00 27 97 93 slli	a5, a5, 2
0x80001478: 00 d7 87 b3 add	a5, a5, a3
0x8000147c: 00 47 97 93 slli	a5, a5, 4
0x80001480: 00 d7 87 b3 add	a5, a5, a3
0x80001484: 00 87 97 93 slli	a5, a5, 8
0x80001488: 40 d7 87 b3 sub	a5, a5, a3
0x8000148c: 00 27 97 93 slli	a5, a5, 2
0x80001490: 00 d7 87 b3 add	a5, a5, a3
0x80001494: 00 26 a6 b7 lui	a3, 618
0x80001498: ec 36 86 93 addi	a3, a3, -317
0x8000149c: 00 d7 87 b3 add	a5, a5, a3
0x800014a0: 00 17 95 13 slli	a0, a5, 1
0x800014a4: 00 f7 20 23 sw	a5, 0(a4)
0x800014a8: 01 15 55 13 srli	a0, a0, 17
0x800014ac: 00 00 80 67 jalr	zero, 0(ra)
0x800033a4: 00 05 04 13 addi	s0, a0, 0
0x800033a8: 8b 8f e0 ef jal	ra, 0x80001460
0x80001460: 00 00 67 17 auipc	a4, 6
0x80001464: b1 07 07 13 addi	a4, a4, -1264
0x80001468: 00 07 26 83 lw	a3, 0(a4)
0x8000146c: 00 16 97 93 slli	a5, a3, 1
0x80001470: 00 d7 87 b3 add	a5, a5, a3
0x80001474: 00 27 97 93 slli	a5, a5, 2
0x80001478: 00 d7 87 b3 add	a5, a5, a3
0x8000147c: 00 47 97 93 slli	a5, a5, 4
0x80001480: 00 d7 87 b3 add	a5, a5, a3
0x80001484: 00 87 97 93 slli	a5, a5, 8
0x80001488: 40 d7 87 b3 sub	a5, a5, a3
0x8000148c: 00 27 97 93 slli	a5, a5, 2
0x80001490: 00 d7 87 b3 add	a5, a5, a3
0x80001494: 00 26 a6 b7 lui	a3, 618
0x80001498: ec 36 86 93 addi	a3, a3, -317
0x8000149c: 00 d7 87 b3 add	a5, a5, a3
0x800014a0: 00 17 95 13 slli	a0, a5, 1
0x800014a4: 00 f7 20 23 sw	a5, 0(a4)
0x800014a8: 01 15 55 13 srli	a0, a0, 17
0x800014ac: 00 00 80 67 jalr	zero, 0(ra)
0x800033ac: 00 00 46 17 auipc	a2, 4
0x800033b0: f5 c6 06 13 addi	a2, a2, -164
0x800033b4: 00 06 27 83 lw	a5, 0(a2)
0x800033b8: 00 00 46 97 auipc	a3, 4
0x800033bc: f4 c6 86 93 addi	a3, a3, -180
0x800033c0: 00 24 95 93 slli	a1, s1, 2
0x800033c4: 01 04 14 13 slli	s0, s0, 16
0x800033c8: 00 06 a7 03 lw	a4, 0(a3)
0x800033cc: 00 b7 87 b3 add	a5, a5, a1
0x800033d0: 00 a4 64 33 or	s0, s0, a0
0x800033d4: 00 87 a0 23 sw	s0, 0(a5)
0x800033d8: 00 14 84 93 addi	s1, s1, 1
0x800033dc: fc e4 c2 e3 blt	s1, a4, 0x800033a0
0x800033a0: 8c 0f e0 ef jal	ra, 0x80001460
0x80001460: 00 00 67 17 auipc	a4, 6
0x80001464: b1 07 07 13 addi	a4, a4, -1264
0x80001468: 00 07 26 83 lw	a3, 0(a4)
0x8000146c: 00 16 97 93 slli	a5, a3, 1
0x80001470: 00 d7 87 b3 add	a5, a5, a3
0x80001474: 00 27 97 93 slli	a5, a5, 2
0x80001478: 00 d7 87 b3 add	a5, a5, a3
0x8000147c: 00 47 97 93 slli	a5, a5, 4
0x80001480: 00 d7 87 b3 add	a5, a5, a3
0x80001484: 00 87 97 93 slli	a5, a5, 8
0x80001488: 40 d7 87 b3 sub	a5, a5, a3
0x8000148c: 00 27 97 93 slli	a5, a5, 2
0x80001490: 00 d7 87 b3 add	a5, a5, a3
0x80001494: 00 26 a6 b7 lui	a3, 618
0x80001498: ec 36 86 93 addi	a3, a3, -317
0x8000149c: 00 d7 87 b3 add	a5, a5, a3
0x800014a0: 00 17 95 13 slli	a0, a5, 1
0x800014a4: 00 f7 20 23 sw	a5, 0(a4)
0x800014a8: 01 15 55 13 srli	a0, a0, 17
0x800014ac: 00 00 80 67 jalr	zero, 0(ra)
0x800033a4: 00 05 04 13 addi	s0, a0, 0
0x800033a8: 8b 8f e0 ef jal	ra, 0x80001460
0x80001460: 00 00 67 17 auipc	a4, 6
0x80001464: b1 07 07 13 addi	a4, a4, -1264
0x80001468: 00 07 26 83 lw	a3, 0(a4)
0x8000146c: 00 16 97 93 slli	a5, a3, 1
0x80001470: 00 d7 87 b3 add	a5, a5, a3
0x80001474: 00 27 97 93 slli	a5, a5, 2
0x80001478: 00 d7 87 b3 add	a5, a5, a3
0x8000147c: 00 47 97 93 slli	a5, a5, 4
0x80001480: 00 d7 87 b3 add	a5, a5, a3
0x80001484: 00 87 97 93 slli	a5, a5, 8
0x80001488: 40 d7 87 b3 sub	a5, a5, a3
0x8000148c: 00 27 97 93 slli	a5, a5, 2
0x80001490: 00 d7 87 b3 add	a5, a5, a3
0x80001494: 00 26 a6 b7 lui	a3, 618
0x80001498: ec 36 86 93 addi	a3, a3, -317
0x8000149c: 00 d7 87 b3 add	a5, a5, a3
0x800014a0: 00 17 95 13 slli	a0, a5, 1
0x800014a4: 00 f7 20 23 sw	a5, 0(a4)
0x800014a8: 01 15 55 13 srli	a0, a0, 17
0x800014ac: 00 00 80 67 jalr	zero, 0(ra)
0x800033ac: 00 00 46 17 auipc	a2, 4
0x800033b0: f5 c6 06 13 addi	a2, a2, -164
0x800033b4: 00 06 27 83 lw	a5, 0(a2)
0x800033b8: 00 00 46 97 auipc	a3, 4
0x800033bc: f4 c6 86 93 addi	a3, a3, -180
0x800033c0: 00 24 95 93 slli	a1, s1, 2
0x800033c4: 01 04 14 13 slli	s0, s0, 16
0x800033c8: 00 06 a7 03 lw	a4, 0(a3)
0x800033cc: 00 b7 87 b3 add	a5, a5, a1
0x800033d0: 00 a4 64 33 or	s0, s0, a0
0x800033d4: 00 87 a0 23 sw	s0, 0(a5)
0x800033d8: 00 14 84 93 addi	s1, s1, 1
0x800033dc: fc e4 c2 e3 blt	s1, a4, 0x800033a0
0x800033a0: 8c 0f e0 ef jal	ra, 0x80001460
0x80001460: 00 00 67 17 auipc	a4, 6
0x80001464: b1 07 07 13 addi	a4, a4, -1264
0x80001468: 00 07 26 83 lw	a3, 0(a4)
0x8000146c: 00 16 97 93 slli	a5, a3, 1
0x80001470: 00 d7 87 b3 add	a5, a5, a3
0x80001474: 00 27 97 93 slli	a5, a5, 2
0x80001478: 00 d7 87 b3 add	a5, a5, a3
0x8000147c: 00 47 97 93 slli	a5, a5, 4
0x80001480: 00 d7 87 b3 add	a5, a5, a3
0x80001484: 00 87 97 93 slli	a5, a5, 8
0x80001488: 40 d7 87 b3 sub	a5, a5, a3
0x8000148c: 00 27 97 93 slli	a5, a5, 2
0x80001490: 00 d7 87 b3 add	a5, a5, a3
0x80001494: 00 26 a6 b7 lui	a3, 618
0x80001498: ec 36 86 93 addi	a3, a3, -317
0x8000149c: 00 d7 87 b3 add	a5, a5, a3
0x800014a0: 00 17 95 13 slli	a0, a5, 1
0x800014a4: 00 f7 20 23 sw	a5, 0(a4)
0x800014a8: 01 15 55 13 srli	a0, a0, 17
0x800014ac: 00 00 80 67 jalr	zero, 0(ra)
0x800033a4: 00 05 04 13 addi	s0, a0, 0
0x800033a8: 8b 8f e0 ef jal	ra, 0x80001460
0x80001460: 00 00 67 17 auipc	a4, 6
0x80001464: b1 07 07 13 addi	a4, a4, -1264
0x80001468: 00 07 26 83 lw	a3, 0(a4)
0x8000146c: 00 16 97 93 slli	a5, a3, 1
0x80001470: 00 d7 87 b3 add	a5, a5, a3
0x80001474: 00 27 97 93 slli	a5, a5, 2
0x80001478: 00 d7 87 b3 add	a5, a5, a3
0x8000147c: 00 47 97 93 slli	a5, a5, 4
0x80001480: 00 d7 87 b3 add	a5, a5, a3
0x80001484: 00 87 97 93 slli	a5, a5, 8
0x80001488: 40 d7 87 b3 sub	a5, a5, a3
0x8000148c: 00 27 97 93 slli	a5, a5, 2
0x80001490: 00 d7 87 b3 add	a5, a5, a3
0x80001494: 00 26 a6 b7 lui	a3, 618
0x80001498: ec 36 86 93 addi	a3, a3, -317
0x8000149c: 00 d7 87 b3 add	a5, a5, a3
0x800014a0: 00 17 95 13 slli	a0, a5, 1
0x800014a4: 00 f7 20 23 sw	a5, 0(a4)
0x800014a8: 01 15 55 13 srli	a0, a0, 17
0x800014ac: 00 00 80 67 jalr	zero, 0(ra)
0x800033ac: 00 00 46 17 auipc	a2, 4
0x800033b0: f5 c6 06 13 addi	a2, a2, -164
0x800033b4: 00 06 27 83 lw	a5, 0(a2)
0x800033b8: 00 00 46 97 auipc	a3, 4
0x800033bc: f4 c6 86 93 addi	a3, a3, -180
0x800033c0: 00 24 95 93 slli	a1, s1, 2
0x800033c4: 01 04 14 13 slli	s0, s0, 16
0x800033c8: 00 06 a7 03 lw	a4, 0(a3)
0x800033cc: 00 b7 87 b3 add	a5, a5, a1
0x800033d0: 00 a4 64 33 or	s0, s0, a0
0x800033d4: 00 87 a0 23 sw	s0, 0(a5)
0x800033d8: 00 14 84 93 addi	s1, s1, 1
0x800033dc: fc e4 c2 e3 blt	s1, a4, 0x800033a0
0x800033a0: 8c 0f e0 ef jal	ra, 0x80001460
0x80001460: 00 00 67 17 auipc	a4, 6
0x80001464: b1 07 07 13 addi	a4, a4, -1264
0x80001468: 00 07 26 83 lw	a3, 0(a4)
0x8000146c: 00 16 97 93 slli	a5, a3, 1
0x80001470: 00 d7 87 b3 add	a5, a5, a3
0x80001474: 00 27 97 93 slli	a5, a5, 2
0x80001478: 00 d7 87 b3 add	a5, a5, a3
0x8000147c: 00 47 97 93 slli	a5, a5, 4
0x80001480: 00 d7 87 b3 add	a5, a5, a3
0x80001484: 00 87 97 93 slli	a5, a5, 8
0x80001488: 40 d7 87 b3 sub	a5, a5, a3
0x8000148c: 00 27 97 93 slli	a5, a5, 2
0x80001490: 00 d7 87 b3 add	a5, a5, a3
0x80001494: 00 26 a6 b7 lui	a3, 618
0x80001498: ec 36 86 93 addi	a3, a3, -317
0x8000149c: 00 d7 87 b3 add	a5, a5, a3
0x800014a0: 00 17 95 13 slli	a0, a5, 1
0x800014a4: 00 f7 20 23 sw	a5, 0(a4)
0x800014a8: 01 15 55 13 srli	a0, a0, 17
0x800014ac: 00 00 80 67 jalr	zero, 0(ra)
0x800033a4: 00 05 04 13 addi	s0, a0, 0
0x800033a8: 8b 8f e0 ef jal	ra, 0x80001460
0x80001460: 00 00 67 17 auipc	a4, 6
0x80001464: b1 07 07 13 addi	a4, a4, -1264
0x80001468: 00 07 26 83 lw	a3, 0(a4)
0x8000146c: 00 16 97 93 slli	a5, a3, 1
0x80001470: 00 d7 87 b3 add	a5, a5, a3
0x80001474: 00 27 97 93 slli	a5, a5, 2
0x80001478: 00 d7 87 b3 add	a5, a5, a3
0x8000147c: 00 47 97 93 slli	a5, a5, 4
0x80001480: 00 d7 87 b3 add	a5, a5, a3
0x80001484: 00 87 97 93 slli	a5, a5, 8
0x80001488: 40 d7 87 b3 sub	a5, a5, a3
0x8000148c: 00 27 97 93 slli	a5, a5, 2
0x80001490: 00 d7 87 b3 add	a5, a5, a3
0x80001494: 00 26 a6 b7 lui	a3, 618
0x80001498: ec 36 86 93 addi	a3, a3, -317
0x8000149c: 00 d7 87 b3 add	a5, a5, a3
0x800014a0: 00 17 95 13 slli	a0, a5, 1
0x800014a4: 00 f7 20 23 sw	a5, 0(a4)
0x800014a8: 01 15 55 13 srli	a0, a0, 17
0x800014ac: 00 00 80 67 jalr	zero, 0(ra)
0x800033ac: 00 00 46 17 auipc	a2, 4
0x800033b0: f5 c6 06 13 addi	a2, a2, -164
0x800033b4: 00 06 27 83 lw	a5, 0(a2)
0x800033b8: 00 00 46 97 auipc	a3, 4
0x800033bc: f4 c6 86 93 addi	a3, a3, -180
0x800033c0: 00 24 95 93 slli	a1, s1, 2
0x800033c4: 01 04 14 13 slli	s0, s0, 16
0x800033c8: 00 06 a7 03 lw	a4, 0(a3)
0x800033cc: 00 b7 87 b3 add	a5, a5, a1
0x800033d0: 00 a4 64 33 or	s0, s0, a0
0x800033d4: 00 87 a0 23 sw	s0, 0(a5)
0x800033d8: 00 14 84 93 addi	s1, s1, 1
0x800033dc: fc e4 c2 e3 blt	s1, a4, 0x800033a0
0x800033a0: 8c 0f e0 ef jal	ra, 0x80001460
0x80001460: 00 00 67 17 auipc	a4, 6
0x80001464: b1 07 07 13 addi	a4, a4, -1264
0x80001468: 00 07 26 83 lw	a3, 0(a4)
0x8000146c: 00 16 97 93 slli	a5, a3, 1
0x80001470: 00 d7 87 b3 add	a5, a5, a3
0x80001474: 00 27 97 93 slli	a5, a5, 2
0x80001478: 00 d7 87 b3 add	a5, a5, a3
0x8000147c: 00 47 97 93 slli	a5, a5, 4
0x80001480: 00 d7 87 b3 add	a5, a5, a3
0x80001484: 00 87 97 93 slli	a5, a5, 8
0x80001488: 40 d7 87 b3 sub	a5, a5, a3
0x8000148c: 00 27 97 93 slli	a5, a5, 2
0x80001490: 00 d7 87 b3 add	a5, a5, a3
0x80001494: 00 26 a6 b7 lui	a3, 618
0x80001498: ec 36 86 93 addi	a3, a3, -317
0x8000149c: 00 d7 87 b3 add	a5, a5, a3
0x800014a0: 00 17 95 13 slli	a0, a5, 1
0x800014a4: 00 f7 20 23 sw	a5, 0(a4)
0x800014a8: 01 15 55 13 srli	a0, a0, 17
0x800014ac: 00 00 80 67 jalr	zero, 0(ra)
0x800033a4: 00 05 04 13 addi	s0, a0, 0
0x800033a8: 8b 8f e0 ef jal	ra, 0x80001460
0x80001460: 00 00 67 17 auipc	a4, 6
0x80001464: b1 07 07 13 addi	a4, a4, -1264
0x80001468: 00 07 26 83 lw	a3, 0(a4)
0x8000146c: 00 16 97 93 slli	a5, a3, 1
0x80001470: 00 d7 87 b3 add	a5, a5, a3
0x80001474: 00 27 97 93 slli	a5, a5, 2
0x80001478: 00 d7 87 b3 add	a5, a5, a3
0x8000147c: 00 47 97 93 slli	a5, a5, 4
0x80001480: 00 d7 87 b3 add	a5, a5, a3
0x80001484: 00 87 97 93 slli	a5, a5, 8
0x80001488: 40 d7 87 b3 sub	a5, a5, a3
0x8000148c: 00 27 97 93 slli	a5, a5, 2
0x80001490: 00 d7 87 b3 add	a5, a5, a3
0x80001494: 00 26 a6 b7 lui	a3, 618
0x80001498: ec 36 86 93 addi	a3, a3, -317
0x8000149c: 00 d7 87 b3 add	a5, a5, a3
0x800014a0: 00 17 95 13 slli	a0, a5, 1
0x800014a4: 00 f7 20 23 sw	a5, 0(a4)
0x800014a8: 01 15 55 13 srli	a0, a0, 17
0x800014ac: 00 00 80 67 jalr	zero, 0(ra)
0x800033ac: 00 00 46 17 auipc	a2, 4
0x800033b0: f5 c6 06 13 addi	a2, a2, -164
0x800033b4: 00 06 27 83 lw	a5, 0(a2)
0x800033b8: 00 00 46 97 auipc	a3, 4
0x800033bc: f4 c6 86 93 addi	a3, a3, -180
0x800033c0: 00 24 95 93 slli	a1, s1, 2
0x800033c4: 01 04 14 13 slli	s0, s0, 16
0x800033c8: 00 06 a7 03 lw	a4, 0(a3)
0x800033cc: 00 b7 87 b3 add	a5, a5, a1
0x800033d0: 00 a4 64 33 or	s0, s0, a0
0x800033d4: 00 87 a0 23 sw	s0, 0(a5)
0x800033d8: 00 14 84 93 addi	s1, s1, 1
0x800033dc: fc e4 c2 e3 blt	s1, a4, 0x800033a0
0x800033a0: 8c 0f e0 ef jal	ra, 0x80001460
0x80001460: 00 00 67 17 auipc	a4, 6
0x80001464: b1 07 07 13 addi	a4, a4, -1264
0x80001468: 00 07 26 83 lw	a3, 0(a4)
0x8000146c: 00 16 97 93 slli	a5, a3, 1
0x80001470: 00 d7 87 b3 add	a5, a5, a3
0x80001474: 00 27 97 93 slli	a5, a5, 2
0x80001478: 00 d7 87 b3 add	a5, a5, a3
0x8000147c: 00 47 97 93 slli	a5, a5, 4
0x80001480: 00 d7 87 b3 add	a5, a5, a3
0x80001484: 00 87 97 93 slli	a5, a5, 8
0x80001488: 40 d7 87 b3 sub	a5, a5, a3
0x8000148c: 00 27 97 93 slli	a5, a5, 2
0x80001490: 00 d7 87 b3 add	a5, a5, a3
0x80001494: 00 26 a6 b7 lui	a3, 618
0x80001498: ec 36 86 93 addi	a3, a3, -317
0x8000149c: 00 d7 87 b3 add	a5, a5, a3
0x800014a0: 00 17 95 13 slli	a0, a5, 1
0x800014a4: 00 f7 20 23 sw	a5, 0(a4)
0x800014a8: 01 15 55 13 srli	a0, a0, 17
0x800014ac: 00 00 80 67 jalr	zero, 0(ra)
0x800033a4: 00 05 04 13 addi	s0, a0, 0
0x800033a8: 8b 8f e0 ef jal	ra, 0x80001460
0x80001460: 00 00 67 17 auipc	a4, 6
0x80001464: b1 07 07 13 addi	a4, a4, -1264
0x80001468: 00 07 26 83 lw	a3, 0(a4)
0x8000146c: 00 16 97 93 slli	a5, a3, 1
0x80001470: 00 d7 87 b3 add	a5, a5, a3
0x80001474: 00 27 97 93 slli	a5, a5, 2
0x80001478: 00 d7 87 b3 add	a5, a5, a3
0x8000147c: 00 47 97 93 slli	a5, a5, 4
0x80001480: 00 d7 87 b3 add	a5, a5, a3
0x80001484: 00 87 97 93 slli	a5, a5, 8
0x80001488: 40 d7 87 b3 sub	a5, a5, a3
0x8000148c: 00 27 97 93 slli	a5, a5, 2
0x80001490: 00 d7 87 b3 add	a5, a5, a3
0x80001494: 00 26 a6 b7 lui	a3, 618
0x80001498: ec 36 86 93 addi	a3, a3, -317
0x8000149c: 00 d7 87 b3 add	a5, a5, a3
0x800014a0: 00 17 95 13 slli	a0, a5, 1
0x800014a4: 00 f7 20 23 sw	a5, 0(a4)
0x800014a8: 01 15 55 13 srli	a0, a0, 17
0x800014ac: 00 00 80 67 jalr	zero, 0(ra)
0x800033ac: 00 00 46 17 auipc	a2, 4
0x800033b0: f5 c6 06 13 addi	a2, a2, -164
0x800033b4: 00 06 27 83 lw	a5, 0(a2)
0x800033b8: 00 00 46 97 auipc	a3, 4
0x800033bc: f4 c6 86 93 addi	a3, a3, -180
0x800033c0: 00 24 95 93 slli	a1, s1, 2
0x800033c4: 01 04 14 13 slli	s0, s0, 16
0x800033c8: 00 06 a7 03 lw	a4, 0(a3)
0x800033cc: 00 b7 87 b3 add	a5, a5, a1
0x800033d0: 00 a4 64 33 or	s0, s0, a0
0x800033d4: 00 87 a0 23 sw	s0, 0(a5)
0x800033d8: 00 14 84 93 addi	s1, s1, 1
0x800033dc: fc e4 c2 e3 blt	s1, a4, 0x800033a0
0x800033a0: 8c 0f e0 ef jal	ra, 0x80001460
0x80001460: 00 00 67 17 auipc	a4, 6
0x80001464: b1 07 07 13 addi	a4, a4, -1264
0x80001468: 00 07 26 83 lw	a3, 0(a4)
0x8000146c: 00 16 97 93 slli	a5, a3, 1
0x80001470: 00 d7 87 b3 add	a5, a5, a3
0x80001474: 00 27 97 93 slli	a5, a5, 2
0x80001478: 00 d7 87 b3 add	a5, a5, a3
0x8000147c: 00 47 97 93 slli	a5, a5, 4
0x80001480: 00 d7 87 b3 add	a5, a5, a3
0x80001484: 00 87 97 93 slli	a5, a5, 8
0x80001488: 40 d7 87 b3 sub	a5, a5, a3
0x8000148c: 00 27 97 93 slli	a5, a5, 2
0x80001490: 00 d7 87 b3 add	a5, a5, a3
0x80001494: 00 26 a6 b7 lui	a3, 618
0x80001498: ec 36 86 93 addi	a3, a3, -317
0x8000149c: 00 d7 87 b3 add	a5, a5, a3
0x800014a0: 00 17 95 13 slli	a0, a5, 1
0x800014a4: 00 f7 20 23 sw	a5, 0(a4)
0x800014a8: 01 15 55 13 srli	a0, a0, 17
0x800014ac: 00 00 80 67 jalr	zero, 0(ra)
0x800033a4: 00 05 04 13 addi	s0, a0, 0
0x800033a8: 8b 8f e0 ef jal	ra, 0x80001460
0x80001460: 00 00 67 17 auipc	a4, 6
0x80001464: b1 07 07 13 addi	a4, a4, -1264
0x80001468: 00 07 26 83 lw	a3, 0(a4)
0x8000146c: 00 16 97 93 slli	a5, a3, 1
0x80001470: 00 d7 87 b3 add	a5, a5, a3
0x80001474: 00 27 97 93 slli	a5, a5, 2
0x80001478: 00 d7 87 b3 add	a5, a5, a3
0x8000147c: 00 47 97 93 slli	a5, a5, 4
0x80001480: 00 d7 87 b3 add	a5, a5, a3
0x80001484: 00 87 97 93 slli	a5, a5, 8
0x80001488: 40 d7 87 b3 sub	a5, a5, a3
0x8000148c: 00 27 97 93 slli	a5, a5, 2
0x80001490: 00 d7 87 b3 add	a5, a5, a3
0x80001494: 00 26 a6 b7 lui	a3, 618
0x80001498: ec 36 86 93 addi	a3, a3, -317
0x8000149c: 00 d7 87 b3 add	a5, a5, a3
0x800014a0: 00 17 95 13 slli	a0, a5, 1
0x800014a4: 00 f7 20 23 sw	a5, 0(a4)
0x800014a8: 01 15 55 13 srli	a0, a0, 17
0x800014ac: 00 00 80 67 jalr	zero, 0(ra)
0x800033ac: 00 00 46 17 auipc	a2, 4
0x800033b0: f5 c6 06 13 addi	a2, a2, -164
0x800033b4: 00 06 27 83 lw	a5, 0(a2)
0x800033b8: 00 00 46 97 auipc	a3, 4
0x800033bc: f4 c6 86 93 addi	a3, a3, -180
0x800033c0: 00 24 95 93 slli	a1, s1, 2
0x800033c4: 01 04 14 13 slli	s0, s0, 16
0x800033c8: 00 06 a7 03 lw	a4, 0(a3)
0x800033cc: 00 b7 87 b3 add	a5, a5, a1
0x800033d0: 00 a4 64 33 or	s0, s0, a0
0x800033d4: 00 87 a0 23 sw	s0, 0(a5)
0x800033d8: 00 14 84 93 addi	s1, s1, 1
0x800033dc: fc e4 c2 e3 blt	s1, a4, 0x800033a0
0x800033a0: 8c 0f e0 ef jal	ra, 0x80001460
0x80001460: 00 00 67 17 auipc	a4, 6
0x80001464: b1 07 07 13 addi	a4, a4, -1264
0x80001468: 00 07 26 83 lw	a3, 0(a4)
0x8000146c: 00 16 97 93 slli	a5, a3, 1
0x80001470: 00 d7 87 b3 add	a5, a5, a3
0x80001474: 00 27 97 93 slli	a5, a5, 2
0x80001478: 00 d7 87 b3 add	a5, a5, a3
0x8000147c: 00 47 97 93 slli	a5, a5, 4
0x80001480: 00 d7 87 b3 add	a5, a5, a3
0x80001484: 00 87 97 93 slli	a5, a5, 8
0x80001488: 40 d7 87 b3 sub	a5, a5, a3
0x8000148c: 00 27 97 93 slli	a5, a5, 2
0x80001490: 00 d7 87 b3 add	a5, a5, a3
0x80001494: 00 26 a6 b7 lui	a3, 618
0x80001498: ec 36 86 93 addi	a3, a3, -317
0x8000149c: 00 d7 87 b3 add	a5, a5, a3
0x800014a0: 00 17 95 13 slli	a0, a5, 1
0x800014a4: 00 f7 20 23 sw	a5, 0(a4)
0x800014a8: 01 15 55 13 srli	a0, a0, 17
0x800014ac: 00 00 80 67 jalr	zero, 0(ra)
0x800033a4: 00 05 04 13 addi	s0, a0, 0
0x800033a8: 8b 8f e0 ef jal	ra, 0x80001460
0x80001460: 00 00 67 17 auipc	a4, 6
0x80001464: b1 07 07 13 addi	a4, a4, -1264
0x80001468: 00 07 26 83 lw	a3, 0(a4)
0x8000146c: 00 16 97 93 slli	a5, a3, 1
0x80001470: 00 d7 87 b3 add	a5, a5, a3
0x80001474: 00 27 97 93 slli	a5, a5, 2
0x80001478: 00 d7 87 b3 add	a5, a5, a3
0x8000147c: 00 47 97 93 slli	a5, a5, 4
0x80001480: 00 d7 87 b3 add	a5, a5, a3
0x80001484: 00 87 97 93 slli	a5, a5, 8
0x80001488: 40 d7 87 b3 sub	a5, a5, a3
0x8000148c: 00 27 97 93 slli	a5, a5, 2
0x80001490: 00 d7 87 b3 add	a5, a5, a3
0x80001494: 00 26 a6 b7 lui	a3, 618
0x80001498: ec 36 86 93 addi	a3, a3, -317
0x8000149c: 00 d7 87 b3 add	a5, a5, a3
0x800014a0: 00 17 95 13 slli	a0, a5, 1
0x800014a4: 00 f7 20 23 sw	a5, 0(a4)
0x800014a8: 01 15 55 13 srli	a0, a0, 17
0x800014ac: 00 00 80 67 jalr	zero, 0(ra)
0x800033ac: 00 00 46 17 auipc	a2, 4
0x800033b0: f5 c6 06 13 addi	a2, a2, -164
0x800033b4: 00 06 27 83 lw	a5, 0(a2)
0x800033b8: 00 00 46 97 auipc	a3, 4
0x800033bc: f4 c6 86 93 addi	a3, a3, -180
0x800033c0: 00 24 95 93 slli	a1, s1, 2
0x800033c4: 01 04 14 13 slli	s0, s0, 16
0x800033c8: 00 06 a7 03 lw	a4, 0(a3)
0x800033cc: 00 b7 87 b3 add	a5, a5, a1
0x800033d0: 00 a4 64 33 or	s0, s0, a0
0x800033d4: 00 87 a0 23 sw	s0, 0(a5)
0x800033d8: 00 14 84 93 addi	s1, s1, 1
0x800033dc: fc e4 c2 e3 blt	s1, a4, 0x800033a0
0x800033a0: 8c 0f e0 ef jal	ra, 0x80001460
0x80001460: 00 00 67 17 auipc	a4, 6
0x80001464: b1 07 07 13 addi	a4, a4, -1264
0x80001468: 00 07 26 83 lw	a3, 0(a4)
0x8000146c: 00 16 97 93 slli	a5, a3, 1
0x80001470: 00 d7 87 b3 add	a5, a5, a3
0x80001474: 00 27 97 93 slli	a5, a5, 2
0x80001478: 00 d7 87 b3 add	a5, a5, a3
0x8000147c: 00 47 97 93 slli	a5, a5, 4
0x80001480: 00 d7 87 b3 add	a5, a5, a3
0x80001484: 00 87 97 93 slli	a5, a5, 8
0x80001488: 40 d7 87 b3 sub	a5, a5, a3
0x8000148c: 00 27 97 93 slli	a5, a5, 2
0x80001490: 00 d7 87 b3 add	a5, a5, a3
0x80001494: 00 26 a6 b7 lui	a3, 618
0x80001498: ec 36 86 93 addi	a3, a3, -317
0x8000149c: 00 d7 87 b3 add	a5, a5, a3
0x800014a0: 00 17 95 13 slli	a0, a5, 1
0x800014a4: 00 f7 20 23 sw	a5, 0(a4)
0x800014a8: 01 15 55 13 srli	a0, a0, 17
0x800014ac: 00 00 80 67 jalr	zero, 0(ra)
0x800033a4: 00 05 04 13 addi	s0, a0, 0
0x800033a8: 8b 8f e0 ef jal	ra, 0x80001460
0x80001460: 00 00 67 17 auipc	a4, 6
0x80001464: b1 07 07 13 addi	a4, a4, -1264
0x80001468: 00 07 26 83 lw	a3, 0(a4)
0x8000146c: 00 16 97 93 slli	a5, a3, 1
0x80001470: 00 d7 87 b3 add	a5, a5, a3
0x80001474: 00 27 97 93 slli	a5, a5, 2
0x80001478: 00 d7 87 b3 add	a5, a5, a3
0x8000147c: 00 47 97 93 slli	a5, a5, 4
0x80001480: 00 d7 87 b3 add	a5, a5, a3
0x80001484: 00 87 97 93 slli	a5, a5, 8
0x80001488: 40 d7 87 b3 sub	a5, a5, a3
0x8000148c: 00 27 97 93 slli	a5, a5, 2
0x80001490: 00 d7 87 b3 add	a5, a5, a3
0x80001494: 00 26 a6 b7 lui	a3, 618
0x80001498: ec 36 86 93 addi	a3, a3, -317
0x8000149c: 00 d7 87 b3 add	a5, a5, a3
0x800014a0: 00 17 95 13 slli	a0, a5, 1
0x800014a4: 00 f7 20 23 sw	a5, 0(a4)
0x800014a8: 01 15 55 13 srli	a0, a0, 17
0x800014ac: 00 00 80 67 jalr	zero, 0(ra)
0x800033ac: 00 00 46 17 auipc	a2, 4
0x800033b0: f5 c6 06 13 addi	a2, a2, -164
0x800033b4: 00 06 27 83 lw	a5, 0(a2)
0x800033b8: 00 00 46 97 auipc	a3, 4
0x800033bc: f4 c6 86 93 addi	a3, a3, -180
0x800033c0: 00 24 95 93 slli	a1, s1, 2
0x800033c4: 01 04 14 13 slli	s0, s0, 16
0x800033c8: 00 06 a7 03 lw	a4, 0(a3)
0x800033cc: 00 b7 87 b3 add	a5, a5, a1
0x800033d0: 00 a4 64 33 or	s0, s0, a0
0x800033d4: 00 87 a0 23 sw	s0, 0(a5)
0x800033d8: 00 14 84 93 addi	s1, s1, 1
0x800033dc: fc e4 c2 e3 blt	s1, a4, 0x800033a0
0x800033a0: 8c 0f e0 ef jal	ra, 0x80001460
0x80001460: 00 00 67 17 auipc	a4, 6
0x80001464: b1 07 07 13 addi	a4, a4, -1264
0x80001468: 00 07 26 83 lw	a3, 0(a4)
0x8000146c: 00 16 97 93 slli	a5, a3, 1
0x80001470: 00 d7 87 b3 add	a5, a5, a3
0x80001474: 00 27 97 93 slli	a5, a5, 2
0x80001478: 00 d7 87 b3 add	a5, a5, a3
0x8000147c: 00 47 97 93 slli	a5, a5, 4
0x80001480: 00 d7 87 b3 add	a5, a5, a3
0x80001484: 00 87 97 93 slli	a5, a5, 8
0x80001488: 40 d7 87 b3 sub	a5, a5, a3
0x8000148c: 00 27 97 93 slli	a5, a5, 2
0x80001490: 00 d7 87 b3 add	a5, a5, a3
0x80001494: 00 26 a6 b7 lui	a3, 618
0x80001498: ec 36 86 93 addi	a3, a3, -317
0x8000149c: 00 d7 87 b3 add	a5, a5, a3
0x800014a0: 00 17 95 13 slli	a0, a5, 1
0x800014a4: 00 f7 20 23 sw	a5, 0(a4)
0x800014a8: 01 15 55 13 srli	a0, a0, 17
0x800014ac: 00 00 80 67 jalr	zero, 0(ra)
0x800033a4: 00 05 04 13 addi	s0, a0, 0
0x800033a8: 8b 8f e0 ef jal	ra, 0x80001460
0x80001460: 00 00 67 17 auipc	a4, 6
0x80001464: b1 07 07 13 addi	a4, a4, -1264
0x80001468: 00 07 26 83 lw	a3, 0(a4)
0x8000146c: 00 16 97 93 slli	a5, a3, 1
0x80001470: 00 d7 87 b3 add	a5, a5, a3
0x80001474: 00 27 97 93 slli	a5, a5, 2
0x80001478: 00 d7 87 b3 add	a5, a5, a3
0x8000147c: 00 47 97 93 slli	a5, a5, 4
0x80001480: 00 d7 87 b3 add	a5, a5, a3
0x80001484: 00 87 97 93 slli	a5, a5, 8
0x80001488: 40 d7 87 b3 sub	a5, a5, a3
0x8000148c: 00 27 97 93 slli	a5, a5, 2
0x80001490: 00 d7 87 b3 add	a5, a5, a3
0x80001494: 00 26 a6 b7 lui	a3, 618
0x80001498: ec 36 86 93 addi	a3, a3, -317
0x8000149c: 00 d7 87 b3 add	a5, a5, a3
0x800014a0: 00 17 95 13 slli	a0, a5, 1
0x800014a4: 00 f7 20 23 sw	a5, 0(a4)
0x800014a8: 01 15 55 13 srli	a0, a0, 17
0x800014ac: 00 00 80 67 jalr	zero, 0(ra)
0x800033ac: 00 00 46 17 auipc	a2, 4
0x800033b0: f5 c6 06 13 addi	a2, a2, -164
0x800033b4: 00 06 27 83 lw	a5, 0(a2)
0x800033b8: 00 00 46 97 auipc	a3, 4
0x800033bc: f4 c6 86 93 addi	a3, a3, -180
0x800033c0: 00 24 95 93 slli	a1, s1, 2
0x800033c4: 01 04 14 13 slli	s0, s0, 16
0x800033c8: 00 06 a7 03 lw	a4, 0(a3)
0x800033cc: 00 b7 87 b3 add	a5, a5, a1
0x800033d0: 00 a4 64 33 or	s0, s0, a0
0x800033d4: 00 87 a0 23 sw	s0, 0(a5)
0x800033d8: 00 14 84 93 addi	s1, s1, 1
0x800033dc: fc e4 c2 e3 blt	s1, a4, 0x800033a0
0x800033a0: 8c 0f e0 ef jal	ra, 0x80001460
0x80001460: 00 00 67 17 auipc	a4, 6
0x80001464: b1 07 07 13 addi	a4, a4, -1264
0x80001468: 00 07 26 83 lw	a3, 0(a4)
0x8000146c: 00 16 97 93 slli	a5, a3, 1
0x80001470: 00 d7 87 b3 add	a5, a5, a3
0x80001474: 00 27 97 93 slli	a5, a5, 2
0x80001478: 00 d7 87 b3 add	a5, a5, a3
0x8000147c: 00 47 97 93 slli	a5, a5, 4
0x80001480: 00 d7 87 b3 add	a5, a5, a3
0x80001484: 00 87 97 93 slli	a5, a5, 8
0x80001488: 40 d7 87 b3 sub	a5, a5, a3
0x8000148c: 00 27 97 93 slli	a5, a5, 2
0x80001490: 00 d7 87 b3 add	a5, a5, a3
0x80001494: 00 26 a6 b7 lui	a3, 618
0x80001498: ec 36 86 93 addi	a3, a3, -317
0x8000149c: 00 d7 87 b3 add	a5, a5, a3
0x800014a0: 00 17 95 13 slli	a0, a5, 1
0x800014a4: 00 f7 20 23 sw	a5, 0(a4)
0x800014a8: 01 15 55 13 srli	a0, a0, 17
0x800014ac: 00 00 80 67 jalr	zero, 0(ra)
0x800033a4: 00 05 04 13 addi	s0, a0, 0
0x800033a8: 8b 8f e0 ef jal	ra, 0x80001460
0x80001460: 00 00 67 17 auipc	a4, 6
0x80001464: b1 07 07 13 addi	a4, a4, -1264
0x80001468: 00 07 26 83 lw	a3, 0(a4)
0x8000146c: 00 16 97 93 slli	a5, a3, 1
0x80001470: 00 d7 87 b3 add	a5, a5, a3
0x80001474: 00 27 97 93 slli	a5, a5, 2
0x80001478: 00 d7 87 b3 add	a5, a5, a3
0x8000147c: 00 47 97 93 slli	a5, a5, 4
0x80001480: 00 d7 87 b3 add	a5, a5, a3
0x80001484: 00 87 97 93 slli	a5, a5, 8
0x80001488: 40 d7 87 b3 sub	a5, a5, a3
0x8000148c: 00 27 97 93 slli	a5, a5, 2
0x80001490: 00 d7 87 b3 add	a5, a5, a3
0x80001494: 00 26 a6 b7 lui	a3, 618
0x80001498: ec 36 86 93 addi	a3, a3, -317
0x8000149c: 00 d7 87 b3 add	a5, a5, a3
0x800014a0: 00 17 95 13 slli	a0, a5, 1
0x800014a4: 00 f7 20 23 sw	a5, 0(a4)
0x800014a8: 01 15 55 13 srli	a0, a0, 17
0x800014ac: 00 00 80 67 jalr	zero, 0(ra)
0x800033ac: 00 00 46 17 auipc	a2, 4
0x800033b0: f5 c6 06 13 addi	a2, a2, -164
0x800033b4: 00 06 27 83 lw	a5, 0(a2)
0x800033b8: 00 00 46 97 auipc	a3, 4
0x800033bc: f4 c6 86 93 addi	a3, a3, -180
0x800033c0: 00 24 95 93 slli	a1, s1, 2
0x800033c4: 01 04 14 13 slli	s0, s0, 16
0x800033c8: 00 06 a7 03 lw	a4, 0(a3)
0x800033cc: 00 b7 87 b3 add	a5, a5, a1
0x800033d0: 00 a4 64 33 or	s0, s0, a0
0x800033d4: 00 87 a0 23 sw	s0, 0(a5)
0x800033d8: 00 14 84 93 addi	s1, s1, 1
0x800033dc: fc e4 c2 e3 blt	s1, a4, 0x800033a0
0x800033a0: 8c 0f e0 ef jal	ra, 0x80001460
0x80001460: 00 00 67 17 auipc	a4, 6
0x80001464: b1 07 07 13 addi	a4, a4, -1264
0x80001468: 00 07 26 83 lw	a3, 0(a4)
0x8000146c: 00 16 97 93 slli	a5, a3, 1
0x80001470: 00 d7 87 b3 add	a5, a5, a3
0x80001474: 00 27 97 93 slli	a5, a5, 2
0x80001478: 00 d7 87 b3 add	a5, a5, a3
0x8000147c: 00 47 97 93 slli	a5, a5, 4
0x80001480: 00 d7 87 b3 add	a5, a5, a3
0x80001484: 00 87 97 93 slli	a5, a5, 8
0x80001488: 40 d7 87 b3 sub	a5, a5, a3
0x8000148c: 00 27 97 93 slli	a5, a5, 2
0x80001490: 00 d7 87 b3 add	a5, a5, a3
0x80001494: 00 26 a6 b7 lui	a3, 618
0x80001498: ec 36 86 93 addi	a3, a3, -317
0x8000149c: 00 d7 87 b3 add	a5, a5, a3
0x800014a0: 00 17 95 13 slli	a0, a5, 1
0x800014a4: 00 f7 20 23 sw	a5, 0(a4)
0x800014a8: 01 15 55 13 srli	a0, a0, 17
0x800014ac: 00 00 80 67 jalr	zero, 0(ra)
0x800033a4: 00 05 04 13 addi	s0, a0, 0
0x800033a8: 8b 8f e0 ef jal	ra, 0x80001460
0x80001460: 00 00 67 17 auipc	a4, 6
0x80001464: b1 07 07 13 addi	a4, a4, -1264
0x80001468: 00 07 26 83 lw	a3, 0(a4)
0x8000146c: 00 16 97 93 slli	a5, a3, 1
0x80001470: 00 d7 87 b3 add	a5, a5, a3
0x80001474: 00 27 97 93 slli	a5, a5, 2
0x80001478: 00 d7 87 b3 add	a5, a5, a3
0x8000147c: 00 47 97 93 slli	a5, a5, 4
0x80001480: 00 d7 87 b3 add	a5, a5, a3
0x80001484: 00 87 97 93 slli	a5, a5, 8
0x80001488: 40 d7 87 b3 sub	a5, a5, a3
0x8000148c: 00 27 97 93 slli	a5, a5, 2
0x80001490: 00 d7 87 b3 add	a5, a5, a3
0x80001494: 00 26 a6 b7 lui	a3, 618
0x80001498: ec 36 86 93 addi	a3, a3, -317
0x8000149c: 00 d7 87 b3 add	a5, a5, a3
0x800014a0: 00 17 95 13 slli	a0, a5, 1
0x800014a4: 00 f7 20 23 sw	a5, 0(a4)
0x800014a8: 01 15 55 13 srli	a0, a0, 17
0x800014ac: 00 00 80 67 jalr	zero, 0(ra)
0x800033ac: 00 00 46 17 auipc	a2, 4
0x800033b0: f5 c6 06 13 addi	a2, a2, -164
0x800033b4: 00 06 27 83 lw	a5, 0(a2)
0x800033b8: 00 00 46 97 auipc	a3, 4
0x800033bc: f4 c6 86 93 addi	a3, a3, -180
0x800033c0: 00 24 95 93 slli	a1, s1, 2
0x800033c4: 01 04 14 13 slli	s0, s0, 16
0x800033c8: 00 06 a7 03 lw	a4, 0(a3)
0x800033cc: 00 b7 87 b3 add	a5, a5, a1
0x800033d0: 00 a4 64 33 or	s0, s0, a0
0x800033d4: 00 87 a0 23 sw	s0, 0(a5)
0x800033d8: 00 14 84 93 addi	s1, s1, 1
0x800033dc: fc e4 c2 e3 blt	s1, a4, 0x800033a0
0x800033a0: 8c 0f e0 ef jal	ra, 0x80001460
0x80001460: 00 00 67 17 auipc	a4, 6
0x80001464: b1 07 07 13 addi	a4, a4, -1264
0x80001468: 00 07 26 83 lw	a3, 0(a4)
0x8000146c: 00 16 97 93 slli	a5, a3, 1
0x80001470: 00 d7 87 b3 add	a5, a5, a3
0x80001474: 00 27 97 93 slli	a5, a5, 2
0x80001478: 00 d7 87 b3 add	a5, a5, a3
0x8000147c: 00 47 97 93 slli	a5, a5, 4
0x80001480: 00 d7 87 b3 add	a5, a5, a3
0x80001484: 00 87 97 93 slli	a5, a5, 8
0x80001488: 40 d7 87 b3 sub	a5, a5, a3
0x8000148c: 00 27 97 93 slli	a5, a5, 2
0x80001490: 00 d7 87 b3 add	a5, a5, a3
0x80001494: 00 26 a6 b7 lui	a3, 618
0x80001498: ec 36 86 93 addi	a3, a3, -317
0x8000149c: 00 d7 87 b3 add	a5, a5, a3
0x800014a0: 00 17 95 13 slli	a0, a5, 1
0x800014a4: 00 f7 20 23 sw	a5, 0(a4)
0x800014a8: 01 15 55 13 srli	a0, a0, 17
0x800014ac: 00 00 80 67 jalr	zero, 0(ra)
0x800033a4: 00 05 04 13 addi	s0, a0, 0
0x800033a8: 8b 8f e0 ef jal	ra, 0x80001460
0x80001460: 00 00 67 17 auipc	a4, 6
0x80001464: b1 07 07 13 addi	a4, a4, -1264
0x80001468: 00 07 26 83 lw	a3, 0(a4)
0x8000146c: 00 16 97 93 slli	a5, a3, 1
0x80001470: 00 d7 87 b3 add	a5, a5, a3
0x80001474: 00 27 97 93 slli	a5, a5, 2
0x80001478: 00 d7 87 b3 add	a5, a5, a3
0x8000147c: 00 47 97 93 slli	a5, a5, 4
0x80001480: 00 d7 87 b3 add	a5, a5, a3
0x80001484: 00 87 97 93 slli	a5, a5, 8
0x80001488: 40 d7 87 b3 sub	a5, a5, a3
0x8000148c: 00 27 97 93 slli	a5, a5, 2
0x80001490: 00 d7 87 b3 add	a5, a5, a3
0x80001494: 00 26 a6 b7 lui	a3, 618
0x80001498: ec 36 86 93 addi	a3, a3, -317
0x8000149c: 00 d7 87 b3 add	a5, a5, a3
0x800014a0: 00 17 95 13 slli	a0, a5, 1
0x800014a4: 00 f7 20 23 sw	a5, 0(a4)
0x800014a8: 01 15 55 13 srli	a0, a0, 17
0x800014ac: 00 00 80 67 jalr	zero, 0(ra)
0x800033ac: 00 00 46 17 auipc	a2, 4
0x800033b0: f5 c6 06 13 addi	a2, a2, -164
0x800033b4: 00 06 27 83 lw	a5, 0(a2)
0x800033b8: 00 00 46 97 auipc	a3, 4
0x800033bc: f4 c6 86 93 addi	a3, a3, -180
0x800033c0: 00 24 95 93 slli	a1, s1, 2
0x800033c4: 01 04 14 13 slli	s0, s0, 16
0x800033c8: 00 06 a7 03 lw	a4, 0(a3)
0x800033cc: 00 b7 87 b3 add	a5, a5, a1
0x800033d0: 00 a4 64 33 or	s0, s0, a0
0x800033d4: 00 87 a0 23 sw	s0, 0(a5)
0x800033d8: 00 14 84 93 addi	s1, s1, 1
0x800033dc: fc e4 c2 e3 blt	s1, a4, 0x800033a0
0x800033a0: 8c 0f e0 ef jal	ra, 0x80001460
0x80001460: 00 00 67 17 auipc	a4, 6
0x80001464: b1 07 07 13 addi	a4, a4, -1264
0x80001468: 00 07 26 83 lw	a3, 0(a4)
0x8000146c: 00 16 97 93 slli	a5, a3, 1
0x80001470: 00 d7 87 b3 add	a5, a5, a3
0x80001474: 00 27 97 93 slli	a5, a5, 2
0x80001478: 00 d7 87 b3 add	a5, a5, a3
0x8000147c: 00 47 97 93 slli	a5, a5, 4
0x80001480: 00 d7 87 b3 add	a5, a5, a3
0x80001484: 00 87 97 93 slli	a5, a5, 8
0x80001488: 40 d7 87 b3 sub	a5, a5, a3
0x8000148c: 00 27 97 93 slli	a5, a5, 2
0x80001490: 00 d7 87 b3 add	a5, a5, a3
0x80001494: 00 26 a6 b7 lui	a3, 618
0x80001498: ec 36 86 93 addi	a3, a3, -317
0x8000149c: 00 d7 87 b3 add	a5, a5, a3
0x800014a0: 00 17 95 13 slli	a0, a5, 1
0x800014a4: 00 f7 20 23 sw	a5, 0(a4)
0x800014a8: 01 15 55 13 srli	a0, a0, 17
0x800014ac: 00 00 80 67 jalr	zero, 0(ra)
0x800033a4: 00 05 04 13 addi	s0, a0, 0
0x800033a8: 8b 8f e0 ef jal	ra, 0x80001460
0x80001460: 00 00 67 17 auipc	a4, 6
0x80001464: b1 07 07 13 addi	a4, a4, -1264
0x80001468: 00 07 26 83 lw	a3, 0(a4)
0x8000146c: 00 16 97 93 slli	a5, a3, 1
0x80001470: 00 d7 87 b3 add	a5, a5, a3
0x80001474: 00 27 97 93 slli	a5, a5, 2
0x80001478: 00 d7 87 b3 add	a5, a5, a3
0x8000147c: 00 47 97 93 slli	a5, a5, 4
0x80001480: 00 d7 87 b3 add	a5, a5, a3
0x80001484: 00 87 97 93 slli	a5, a5, 8
0x80001488: 40 d7 87 b3 sub	a5, a5, a3
0x8000148c: 00 27 97 93 slli	a5, a5, 2
0x80001490: 00 d7 87 b3 add	a5, a5, a3
0x80001494: 00 26 a6 b7 lui	a3, 618
0x80001498: ec 36 86 93 addi	a3, a3, -317
0x8000149c: 00 d7 87 b3 add	a5, a5, a3
0x800014a0: 00 17 95 13 slli	a0, a5, 1
0x800014a4: 00 f7 20 23 sw	a5, 0(a4)
0x800014a8: 01 15 55 13 srli	a0, a0, 17
0x800014ac: 00 00 80 67 jalr	zero, 0(ra)
0x800033ac: 00 00 46 17 auipc	a2, 4
0x800033b0: f5 c6 06 13 addi	a2, a2, -164
0x800033b4: 00 06 27 83 lw	a5, 0(a2)
0x800033b8: 00 00 46 97 auipc	a3, 4
0x800033bc: f4 c6 86 93 addi	a3, a3, -180
0x800033c0: 00 24 95 93 slli	a1, s1, 2
0x800033c4: 01 04 14 13 slli	s0, s0, 16
0x800033c8: 00 06 a7 03 lw	a4, 0(a3)
0x800033cc: 00 b7 87 b3 add	a5, a5, a1
0x800033d0: 00 a4 64 33 or	s0, s0, a0
0x800033d4: 00 87 a0 23 sw	s0, 0(a5)
0x800033d8: 00 14 84 93 addi	s1, s1, 1
0x800033dc: fc e4 c2 e3 blt	s1, a4, 0x800033a0
0x800033a0: 8c 0f e0 ef jal	ra, 0x80001460
0x80001460: 00 00 67 17 auipc	a4, 6
0x80001464: b1 07 07 13 addi	a4, a4, -1264
0x80001468: 00 07 26 83 lw	a3, 0(a4)
0x8000146c: 00 16 97 93 slli	a5, a3, 1
0x80001470: 00 d7 87 b3 add	a5, a5, a3
0x80001474: 00 27 97 93 slli	a5, a5, 2
0x80001478: 00 d7 87 b3 add	a5, a5, a3
0x8000147c: 00 47 97 93 slli	a5, a5, 4
0x80001480: 00 d7 87 b3 add	a5, a5, a3
0x80001484: 00 87 97 93 slli	a5, a5, 8
0x80001488: 40 d7 87 b3 sub	a5, a5, a3
0x8000148c: 00 27 97 93 slli	a5, a5, 2
0x80001490: 00 d7 87 b3 add	a5, a5, a3
0x80001494: 00 26 a6 b7 lui	a3, 618
0x80001498: ec 36 86 93 addi	a3, a3, -317
0x8000149c: 00 d7 87 b3 add	a5, a5, a3
0x800014a0: 00 17 95 13 slli	a0, a5, 1
0x800014a4: 00 f7 20 23 sw	a5, 0(a4)
0x800014a8: 01 15 55 13 srli	a0, a0, 17
0x800014ac: 00 00 80 67 jalr	zero, 0(ra)
0x800033a4: 00 05 04 13 addi	s0, a0, 0
0x800033a8: 8b 8f e0 ef jal	ra, 0x80001460
0x80001460: 00 00 67 17 auipc	a4, 6
0x80001464: b1 07 07 13 addi	a4, a4, -1264
0x80001468: 00 07 26 83 lw	a3, 0(a4)
0x8000146c: 00 16 97 93 slli	a5, a3, 1
0x80001470: 00 d7 87 b3 add	a5, a5, a3
0x80001474: 00 27 97 93 slli	a5, a5, 2
0x80001478: 00 d7 87 b3 add	a5, a5, a3
0x8000147c: 00 47 97 93 slli	a5, a5, 4
0x80001480: 00 d7 87 b3 add	a5, a5, a3
0x80001484: 00 87 97 93 slli	a5, a5, 8
0x80001488: 40 d7 87 b3 sub	a5, a5, a3
0x8000148c: 00 27 97 93 slli	a5, a5, 2
0x80001490: 00 d7 87 b3 add	a5, a5, a3
0x80001494: 00 26 a6 b7 lui	a3, 618
0x80001498: ec 36 86 93 addi	a3, a3, -317
0x8000149c: 00 d7 87 b3 add	a5, a5, a3
0x800014a0: 00 17 95 13 slli	a0, a5, 1
0x800014a4: 00 f7 20 23 sw	a5, 0(a4)
0x800014a8: 01 15 55 13 srli	a0, a0, 17
0x800014ac: 00 00 80 67 jalr	zero, 0(ra)
0x800033ac: 00 00 46 17 auipc	a2, 4
0x800033b0: f5 c6 06 13 addi	a2, a2, -164
0x800033b4: 00 06 27 83 lw	a5, 0(a2)
0x800033b8: 00 00 46 97 auipc	a3, 4
0x800033bc: f4 c6 86 93 addi	a3, a3, -180
0x800033c0: 00 24 95 93 slli	a1, s1, 2
0x800033c4: 01 04 14 13 slli	s0, s0, 16
0x800033c8: 00 06 a7 03 lw	a4, 0(a3)
0x800033cc: 00 b7 87 b3 add	a5, a5, a1
0x800033d0: 00 a4 64 33 or	s0, s0, a0
0x800033d4: 00 87 a0 23 sw	s0, 0(a5)
0x800033d8: 00 14 84 93 addi	s1, s1, 1
0x800033dc: fc e4 c2 e3 blt	s1, a4, 0x800033a0
0x800033a0: 8c 0f e0 ef jal	ra, 0x80001460
0x80001460: 00 00 67 17 auipc	a4, 6
0x80001464: b1 07 07 13 addi	a4, a4, -1264
0x80001468: 00 07 26 83 lw	a3, 0(a4)
0x8000146c: 00 16 97 93 slli	a5, a3, 1
0x80001470: 00 d7 87 b3 add	a5, a5, a3
0x80001474: 00 27 97 93 slli	a5, a5, 2
0x80001478: 00 d7 87 b3 add	a5, a5, a3
0x8000147c: 00 47 97 93 slli	a5, a5, 4
0x80001480: 00 d7 87 b3 add	a5, a5, a3
0x80001484: 00 87 97 93 slli	a5, a5, 8
0x80001488: 40 d7 87 b3 sub	a5, a5, a3
0x8000148c: 00 27 97 93 slli	a5, a5, 2
0x80001490: 00 d7 87 b3 add	a5, a5, a3
0x80001494: 00 26 a6 b7 lui	a3, 618
0x80001498: ec 36 86 93 addi	a3, a3, -317
0x8000149c: 00 d7 87 b3 add	a5, a5, a3
0x800014a0: 00 17 95 13 slli	a0, a5, 1
0x800014a4: 00 f7 20 23 sw	a5, 0(a4)
0x800014a8: 01 15 55 13 srli	a0, a0, 17
0x800014ac: 00 00 80 67 jalr	zero, 0(ra)
0x800033a4: 00 05 04 13 addi	s0, a0, 0
0x800033a8: 8b 8f e0 ef jal	ra, 0x80001460
0x80001460: 00 00 67 17 auipc	a4, 6
0x80001464: b1 07 07 13 addi	a4, a4, -1264
0x80001468: 00 07 26 83 lw	a3, 0(a4)
0x8000146c: 00 16 97 93 slli	a5, a3, 1
0x80001470: 00 d7 87 b3 add	a5, a5, a3
0x80001474: 00 27 97 93 slli	a5, a5, 2
0x80001478: 00 d7 87 b3 add	a5, a5, a3
0x8000147c: 00 47 97 93 slli	a5, a5, 4
0x80001480: 00 d7 87 b3 add	a5, a5, a3
0x80001484: 00 87 97 93 slli	a5, a5, 8
0x80001488: 40 d7 87 b3 sub	a5, a5, a3
0x8000148c: 00 27 97 93 slli	a5, a5, 2
0x80001490: 00 d7 87 b3 add	a5, a5, a3
0x80001494: 00 26 a6 b7 lui	a3, 618
0x80001498: ec 36 86 93 addi	a3, a3, -317
0x8000149c: 00 d7 87 b3 add	a5, a5, a3
0x800014a0: 00 17 95 13 slli	a0, a5, 1
0x800014a4: 00 f7 20 23 sw	a5, 0(a4)
0x800014a8: 01 15 55 13 srli	a0, a0, 17
0x800014ac: 00 00 80 67 jalr	zero, 0(ra)
0x800033ac: 00 00 46 17 auipc	a2, 4
0x800033b0: f5 c6 06 13 addi	a2, a2, -164
0x800033b4: 00 06 27 83 lw	a5, 0(a2)
0x800033b8: 00 00 46 97 auipc	a3, 4
0x800033bc: f4 c6 86 93 addi	a3, a3, -180
0x800033c0: 00 24 95 93 slli	a1, s1, 2
0x800033c4: 01 04 14 13 slli	s0, s0, 16
0x800033c8: 00 06 a7 03 lw	a4, 0(a3)
0x800033cc: 00 b7 87 b3 add	a5, a5, a1
0x800033d0: 00 a4 64 33 or	s0, s0, a0
0x800033d4: 00 87 a0 23 sw	s0, 0(a5)
0x800033d8: 00 14 84 93 addi	s1, s1, 1
0x800033dc: fc e4 c2 e3 blt	s1, a4, 0x800033a0
0x800033a0: 8c 0f e0 ef jal	ra, 0x80001460
0x80001460: 00 00 67 17 auipc	a4, 6
0x80001464: b1 07 07 13 addi	a4, a4, -1264
0x80001468: 00 07 26 83 lw	a3, 0(a4)
0x8000146c: 00 16 97 93 slli	a5, a3, 1
0x80001470: 00 d7 87 b3 add	a5, a5, a3
0x80001474: 00 27 97 93 slli	a5, a5, 2
0x80001478: 00 d7 87 b3 add	a5, a5, a3
0x8000147c: 00 47 97 93 slli	a5, a5, 4
0x80001480: 00 d7 87 b3 add	a5, a5, a3
0x80001484: 00 87 97 93 slli	a5, a5, 8
0x80001488: 40 d7 87 b3 sub	a5, a5, a3
0x8000148c: 00 27 97 93 slli	a5, a5, 2
0x80001490: 00 d7 87 b3 add	a5, a5, a3
0x80001494: 00 26 a6 b7 lui	a3, 618
0x80001498: ec 36 86 93 addi	a3, a3, -317
0x8000149c: 00 d7 87 b3 add	a5, a5, a3
0x800014a0: 00 17 95 13 slli	a0, a5, 1
0x800014a4: 00 f7 20 23 sw	a5, 0(a4)
0x800014a8: 01 15 55 13 srli	a0, a0, 17
0x800014ac: 00 00 80 67 jalr	zero, 0(ra)
0x800033a4: 00 05 04 13 addi	s0, a0, 0
0x800033a8: 8b 8f e0 ef jal	ra, 0x80001460
0x80001460: 00 00 67 17 auipc	a4, 6
0x80001464: b1 07 07 13 addi	a4, a4, -1264
0x80001468: 00 07 26 83 lw	a3, 0(a4)
0x8000146c: 00 16 97 93 slli	a5, a3, 1
0x80001470: 00 d7 87 b3 add	a5, a5, a3
0x80001474: 00 27 97 93 slli	a5, a5, 2
0x80001478: 00 d7 87 b3 add	a5, a5, a3
0x8000147c: 00 47 97 93 slli	a5, a5, 4
0x80001480: 00 d7 87 b3 add	a5, a5, a3
0x80001484: 00 87 97 93 slli	a5, a5, 8
0x80001488: 40 d7 87 b3 sub	a5, a5, a3
0x8000148c: 00 27 97 93 slli	a5, a5, 2
0x80001490: 00 d7 87 b3 add	a5, a5, a3
0x80001494: 00 26 a6 b7 lui	a3, 618
0x80001498: ec 36 86 93 addi	a3, a3, -317
0x8000149c: 00 d7 87 b3 add	a5, a5, a3
0x800014a0: 00 17 95 13 slli	a0, a5, 1
0x800014a4: 00 f7 20 23 sw	a5, 0(a4)
0x800014a8: 01 15 55 13 srli	a0, a0, 17
0x800014ac: 00 00 80 67 jalr	zero, 0(ra)
0x800033ac: 00 00 46 17 auipc	a2, 4
0x800033b0: f5 c6 06 13 addi	a2, a2, -164
0x800033b4: 00 06 27 83 lw	a5, 0(a2)
0x800033b8: 00 00 46 97 auipc	a3, 4
0x800033bc: f4 c6 86 93 addi	a3, a3, -180
0x800033c0: 00 24 95 93 slli	a1, s1, 2
0x800033c4: 01 04 14 13 slli	s0, s0, 16
0x800033c8: 00 06 a7 03 lw	a4, 0(a3)
0x800033cc: 00 b7 87 b3 add	a5, a5, a1
0x800033d0: 00 a4 64 33 or	s0, s0, a0
0x800033d4: 00 87 a0 23 sw	s0, 0(a5)
0x800033d8: 00 14 84 93 addi	s1, s1, 1
0x800033dc: fc e4 c2 e3 blt	s1, a4, 0x800033a0
0x800033a0: 8c 0f e0 ef jal	ra, 0x80001460
0x80001460: 00 00 67 17 auipc	a4, 6
0x80001464: b1 07 07 13 addi	a4, a4, -1264
0x80001468: 00 07 26 83 lw	a3, 0(a4)
0x8000146c: 00 16 97 93 slli	a5, a3, 1
0x80001470: 00 d7 87 b3 add	a5, a5, a3
0x80001474: 00 27 97 93 slli	a5, a5, 2
0x80001478: 00 d7 87 b3 add	a5, a5, a3
0x8000147c: 00 47 97 93 slli	a5, a5, 4
0x80001480: 00 d7 87 b3 add	a5, a5, a3
0x80001484: 00 87 97 93 slli	a5, a5, 8
0x80001488: 40 d7 87 b3 sub	a5, a5, a3
0x8000148c: 00 27 97 93 slli	a5, a5, 2
0x80001490: 00 d7 87 b3 add	a5, a5, a3
0x80001494: 00 26 a6 b7 lui	a3, 618
0x80001498: ec 36 86 93 addi	a3, a3, -317
0x8000149c: 00 d7 87 b3 add	a5, a5, a3
0x800014a0: 00 17 95 13 slli	a0, a5, 1
0x800014a4: 00 f7 20 23 sw	a5, 0(a4)
0x800014a8: 01 15 55 13 srli	a0, a0, 17
0x800014ac: 00 00 80 67 jalr	zero, 0(ra)
0x800033a4: 00 05 04 13 addi	s0, a0, 0
0x800033a8: 8b 8f e0 ef jal	ra, 0x80001460
0x80001460: 00 00 67 17 auipc	a4, 6
0x80001464: b1 07 07 13 addi	a4, a4, -1264
0x80001468: 00 07 26 83 lw	a3, 0(a4)
0x8000146c: 00 16 97 93 slli	a5, a3, 1
0x80001470: 00 d7 87 b3 add	a5, a5, a3
0x80001474: 00 27 97 93 slli	a5, a5, 2
0x80001478: 00 d7 87 b3 add	a5, a5, a3
0x8000147c: 00 47 97 93 slli	a5, a5, 4
0x80001480: 00 d7 87 b3 add	a5, a5, a3
0x80001484: 00 87 97 93 slli	a5, a5, 8
0x80001488: 40 d7 87 b3 sub	a5, a5, a3
0x8000148c: 00 27 97 93 slli	a5, a5, 2
0x80001490: 00 d7 87 b3 add	a5, a5, a3
0x80001494: 00 26 a6 b7 lui	a3, 618
0x80001498: ec 36 86 93 addi	a3, a3, -317
0x8000149c: 00 d7 87 b3 add	a5, a5, a3
0x800014a0: 00 17 95 13 slli	a0, a5, 1
0x800014a4: 00 f7 20 23 sw	a5, 0(a4)
0x800014a8: 01 15 55 13 srli	a0, a0, 17
0x800014ac: 00 00 80 67 jalr	zero, 0(ra)
0x800033ac: 00 00 46 17 auipc	a2, 4
0x800033b0: f5 c6 06 13 addi	a2, a2, -164
0x800033b4: 00 06 27 83 lw	a5, 0(a2)
0x800033b8: 00 00 46 97 auipc	a3, 4
0x800033bc: f4 c6 86 93 addi	a3, a3, -180
0x800033c0: 00 24 95 93 slli	a1, s1, 2
0x800033c4: 01 04 14 13 slli	s0, s0, 16
0x800033c8: 00 06 a7 03 lw	a4, 0(a3)
0x800033cc: 00 b7 87 b3 add	a5, a5, a1
0x800033d0: 00 a4 64 33 or	s0, s0, a0
0x800033d4: 00 87 a0 23 sw	s0, 0(a5)
0x800033d8: 00 14 84 93 addi	s1, s1, 1
0x800033dc: fc e4 c2 e3 blt	s1, a4, 0x800033a0
0x800033a0: 8c 0f e0 ef jal	ra, 0x80001460
0x80001460: 00 00 67 17 auipc	a4, 6
0x80001464: b1 07 07 13 addi	a4, a4, -1264
0x80001468: 00 07 26 83 lw	a3, 0(a4)
0x8000146c: 00 16 97 93 slli	a5, a3, 1
0x80001470: 00 d7 87 b3 add	a5, a5, a3
0x80001474: 00 27 97 93 slli	a5, a5, 2
0x80001478: 00 d7 87 b3 add	a5, a5, a3
0x8000147c: 00 47 97 93 slli	a5, a5, 4
0x80001480: 00 d7 87 b3 add	a5, a5, a3
0x80001484: 00 87 97 93 slli	a5, a5, 8
0x80001488: 40 d7 87 b3 sub	a5, a5, a3
0x8000148c: 00 27 97 93 slli	a5, a5, 2
0x80001490: 00 d7 87 b3 add	a5, a5, a3
0x80001494: 00 26 a6 b7 lui	a3, 618
0x80001498: ec 36 86 93 addi	a3, a3, -317
0x8000149c: 00 d7 87 b3 add	a5, a5, a3
0x800014a0: 00 17 95 13 slli	a0, a5, 1
0x800014a4: 00 f7 20 23 sw	a5, 0(a4)
0x800014a8: 01 15 55 13 srli	a0, a0, 17
0x800014ac: 00 00 80 67 jalr	zero, 0(ra)
0x800033a4: 00 05 04 13 addi	s0, a0, 0
0x800033a8: 8b 8f e0 ef jal	ra, 0x80001460
0x80001460: 00 00 67 17 auipc	a4, 6
0x80001464: b1 07 07 13 addi	a4, a4, -1264
0x80001468: 00 07 26 83 lw	a3, 0(a4)
0x8000146c: 00 16 97 93 slli	a5, a3, 1
0x80001470: 00 d7 87 b3 add	a5, a5, a3
0x80001474: 00 27 97 93 slli	a5, a5, 2
0x80001478: 00 d7 87 b3 add	a5, a5, a3
0x8000147c: 00 47 97 93 slli	a5, a5, 4
0x80001480: 00 d7 87 b3 add	a5, a5, a3
0x80001484: 00 87 97 93 slli	a5, a5, 8
0x80001488: 40 d7 87 b3 sub	a5, a5, a3
0x8000148c: 00 27 97 93 slli	a5, a5, 2
0x80001490: 00 d7 87 b3 add	a5, a5, a3
0x80001494: 00 26 a6 b7 lui	a3, 618
0x80001498: ec 36 86 93 addi	a3, a3, -317
0x8000149c: 00 d7 87 b3 add	a5, a5, a3
0x800014a0: 00 17 95 13 slli	a0, a5, 1
0x800014a4: 00 f7 20 23 sw	a5, 0(a4)
0x800014a8: 01 15 55 13 srli	a0, a0, 17
0x800014ac: 00 00 80 67 jalr	zero, 0(ra)
0x800033ac: 00 00 46 17 auipc	a2, 4
0x800033b0: f5 c6 06 13 addi	a2, a2, -164
0x800033b4: 00 06 27 83 lw	a5, 0(a2)
0x800033b8: 00 00 46 97 auipc	a3, 4
0x800033bc: f4 c6 86 93 addi	a3, a3, -180
0x800033c0: 00 24 95 93 slli	a1, s1, 2
0x800033c4: 01 04 14 13 slli	s0, s0, 16
0x800033c8: 00 06 a7 03 lw	a4, 0(a3)
0x800033cc: 00 b7 87 b3 add	a5, a5, a1
0x800033d0: 00 a4 64 33 or	s0, s0, a0
0x800033d4: 00 87 a0 23 sw	s0, 0(a5)
0x800033d8: 00 14 84 93 addi	s1, s1, 1
0x800033dc: fc e4 c2 e3 blt	s1, a4, 0x800033a0
0x800033a0: 8c 0f e0 ef jal	ra, 0x80001460
0x80001460: 00 00 67 17 auipc	a4, 6
0x80001464: b1 07 07 13 addi	a4, a4, -1264
0x80001468: 00 07 26 83 lw	a3, 0(a4)
0x8000146c: 00 16 97 93 slli	a5, a3, 1
0x80001470: 00 d7 87 b3 add	a5, a5, a3
0x80001474: 00 27 97 93 slli	a5, a5, 2
0x80001478: 00 d7 87 b3 add	a5, a5, a3
0x8000147c: 00 47 97 93 slli	a5, a5, 4
0x80001480: 00 d7 87 b3 add	a5, a5, a3
0x80001484: 00 87 97 93 slli	a5, a5, 8
0x80001488: 40 d7 87 b3 sub	a5, a5, a3
0x8000148c: 00 27 97 93 slli	a5, a5, 2
0x80001490: 00 d7 87 b3 add	a5, a5, a3
0x80001494: 00 26 a6 b7 lui	a3, 618
0x80001498: ec 36 86 93 addi	a3, a3, -317
0x8000149c: 00 d7 87 b3 add	a5, a5, a3
0x800014a0: 00 17 95 13 slli	a0, a5, 1
0x800014a4: 00 f7 20 23 sw	a5, 0(a4)
0x800014a8: 01 15 55 13 srli	a0, a0, 17
0x800014ac: 00 00 80 67 jalr	zero, 0(ra)
0x800033a4: 00 05 04 13 addi	s0, a0, 0
0x800033a8: 8b 8f e0 ef jal	ra, 0x80001460
0x80001460: 00 00 67 17 auipc	a4, 6
0x80001464: b1 07 07 13 addi	a4, a4, -1264
0x80001468: 00 07 26 83 lw	a3, 0(a4)
0x8000146c: 00 16 97 93 slli	a5, a3, 1
0x80001470: 00 d7 87 b3 add	a5, a5, a3
0x80001474: 00 27 97 93 slli	a5, a5, 2
0x80001478: 00 d7 87 b3 add	a5, a5, a3
0x8000147c: 00 47 97 93 slli	a5, a5, 4
0x80001480: 00 d7 87 b3 add	a5, a5, a3
0x80001484: 00 87 97 93 slli	a5, a5, 8
0x80001488: 40 d7 87 b3 sub	a5, a5, a3
0x8000148c: 00 27 97 93 slli	a5, a5, 2
0x80001490: 00 d7 87 b3 add	a5, a5, a3
0x80001494: 00 26 a6 b7 lui	a3, 618
0x80001498: ec 36 86 93 addi	a3, a3, -317
0x8000149c: 00 d7 87 b3 add	a5, a5, a3
0x800014a0: 00 17 95 13 slli	a0, a5, 1
0x800014a4: 00 f7 20 23 sw	a5, 0(a4)
0x800014a8: 01 15 55 13 srli	a0, a0, 17
0x800014ac: 00 00 80 67 jalr	zero, 0(ra)
0x800033ac: 00 00 46 17 auipc	a2, 4
0x800033b0: f5 c6 06 13 addi	a2, a2, -164
0x800033b4: 00 06 27 83 lw	a5, 0(a2)
0x800033b8: 00 00 46 97 auipc	a3, 4
0x800033bc: f4 c6 86 93 addi	a3, a3, -180
0x800033c0: 00 24 95 93 slli	a1, s1, 2
0x800033c4: 01 04 14 13 slli	s0, s0, 16
0x800033c8: 00 06 a7 03 lw	a4, 0(a3)
0x800033cc: 00 b7 87 b3 add	a5, a5, a1
0x800033d0: 00 a4 64 33 or	s0, s0, a0
0x800033d4: 00 87 a0 23 sw	s0, 0(a5)
0x800033d8: 00 14 84 93 addi	s1, s1, 1
0x800033dc: fc e4 c2 e3 blt	s1, a4, 0x800033a0
0x800033a0: 8c 0f e0 ef jal	ra, 0x80001460
0x80001460: 00 00 67 17 auipc	a4, 6
0x80001464: b1 07 07 13 addi	a4, a4, -1264
0x80001468: 00 07 26 83 lw	a3, 0(a4)
0x8000146c: 00 16 97 93 slli	a5, a3, 1
0x80001470: 00 d7 87 b3 add	a5, a5, a3
0x80001474: 00 27 97 93 slli	a5, a5, 2
0x80001478: 00 d7 87 b3 add	a5, a5, a3
0x8000147c: 00 47 97 93 slli	a5, a5, 4
0x80001480: 00 d7 87 b3 add	a5, a5, a3
0x80001484: 00 87 97 93 slli	a5, a5, 8
0x80001488: 40 d7 87 b3 sub	a5, a5, a3
0x8000148c: 00 27 97 93 slli	a5, a5, 2
0x80001490: 00 d7 87 b3 add	a5, a5, a3
0x80001494: 00 26 a6 b7 lui	a3, 618
0x80001498: ec 36 86 93 addi	a3, a3, -317
0x8000149c: 00 d7 87 b3 add	a5, a5, a3
0x800014a0: 00 17 95 13 slli	a0, a5, 1
0x800014a4: 00 f7 20 23 sw	a5, 0(a4)
0x800014a8: 01 15 55 13 srli	a0, a0, 17
0x800014ac: 00 00 80 67 jalr	zero, 0(ra)
0x800033a4: 00 05 04 13 addi	s0, a0, 0
0x800033a8: 8b 8f e0 ef jal	ra, 0x80001460
0x80001460: 00 00 67 17 auipc	a4, 6
0x80001464: b1 07 07 13 addi	a4, a4, -1264
0x80001468: 00 07 26 83 lw	a3, 0(a4)
0x8000146c: 00 16 97 93 slli	a5, a3, 1
0x80001470: 00 d7 87 b3 add	a5, a5, a3
0x80001474: 00 27 97 93 slli	a5, a5, 2
0x80001478: 00 d7 87 b3 add	a5, a5, a3
0x8000147c: 00 47 97 93 slli	a5, a5, 4
0x80001480: 00 d7 87 b3 add	a5, a5, a3
0x80001484: 00 87 97 93 slli	a5, a5, 8
0x80001488: 40 d7 87 b3 sub	a5, a5, a3
0x8000148c: 00 27 97 93 slli	a5, a5, 2
0x80001490: 00 d7 87 b3 add	a5, a5, a3
0x80001494: 00 26 a6 b7 lui	a3, 618
0x80001498: ec 36 86 93 addi	a3, a3, -317
0x8000149c: 00 d7 87 b3 add	a5, a5, a3
0x800014a0: 00 17 95 13 slli	a0, a5, 1
0x800014a4: 00 f7 20 23 sw	a5, 0(a4)
0x800014a8: 01 15 55 13 srli	a0, a0, 17
0x800014ac: 00 00 80 67 jalr	zero, 0(ra)
0x800033ac: 00 00 46 17 auipc	a2, 4
0x800033b0: f5 c6 06 13 addi	a2, a2, -164
0x800033b4: 00 06 27 83 lw	a5, 0(a2)
0x800033b8: 00 00 46 97 auipc	a3, 4
0x800033bc: f4 c6 86 93 addi	a3, a3, -180
0x800033c0: 00 24 95 93 slli	a1, s1, 2
0x800033c4: 01 04 14 13 slli	s0, s0, 16
0x800033c8: 00 06 a7 03 lw	a4, 0(a3)
0x800033cc: 00 b7 87 b3 add	a5, a5, a1
0x800033d0: 00 a4 64 33 or	s0, s0, a0
0x800033d4: 00 87 a0 23 sw	s0, 0(a5)
0x800033d8: 00 14 84 93 addi	s1, s1, 1
0x800033dc: fc e4 c2 e3 blt	s1, a4, 0x800033a0
0x800033a0: 8c 0f e0 ef jal	ra, 0x80001460
0x80001460: 00 00 67 17 auipc	a4, 6
0x80001464: b1 07 07 13 addi	a4, a4, -1264
0x80001468: 00 07 26 83 lw	a3, 0(a4)
0x8000146c: 00 16 97 93 slli	a5, a3, 1
0x80001470: 00 d7 87 b3 add	a5, a5, a3
0x80001474: 00 27 97 93 slli	a5, a5, 2
0x80001478: 00 d7 87 b3 add	a5, a5, a3
0x8000147c: 00 47 97 93 slli	a5, a5, 4
0x80001480: 00 d7 87 b3 add	a5, a5, a3
0x80001484: 00 87 97 93 slli	a5, a5, 8
0x80001488: 40 d7 87 b3 sub	a5, a5, a3
0x8000148c: 00 27 97 93 slli	a5, a5, 2
0x80001490: 00 d7 87 b3 add	a5, a5, a3
0x80001494: 00 26 a6 b7 lui	a3, 618
0x80001498: ec 36 86 93 addi	a3, a3, -317
0x8000149c: 00 d7 87 b3 add	a5, a5, a3
0x800014a0: 00 17 95 13 slli	a0, a5, 1
0x800014a4: 00 f7 20 23 sw	a5, 0(a4)
0x800014a8: 01 15 55 13 srli	a0, a0, 17
0x800014ac: 00 00 80 67 jalr	zero, 0(ra)
0x800033a4: 00 05 04 13 addi	s0, a0, 0
0x800033a8: 8b 8f e0 ef jal	ra, 0x80001460
0x80001460: 00 00 67 17 auipc	a4, 6
0x80001464: b1 07 07 13 addi	a4, a4, -1264
0x80001468: 00 07 26 83 lw	a3, 0(a4)
0x8000146c: 00 16 97 93 slli	a5, a3, 1
0x80001470: 00 d7 87 b3 add	a5, a5, a3
0x80001474: 00 27 97 93 slli	a5, a5, 2
0x80001478: 00 d7 87 b3 add	a5, a5, a3
0x8000147c: 00 47 97 93 slli	a5, a5, 4
0x80001480: 00 d7 87 b3 add	a5, a5, a3
0x80001484: 00 87 97 93 slli	a5, a5, 8
0x80001488: 40 d7 87 b3 sub	a5, a5, a3
0x8000148c: 00 27 97 93 slli	a5, a5, 2
0x80001490: 00 d7 87 b3 add	a5, a5, a3
0x80001494: 00 26 a6 b7 lui	a3, 618
0x80001498: ec 36 86 93 addi	a3, a3, -317
0x8000149c: 00 d7 87 b3 add	a5, a5, a3
0x800014a0: 00 17 95 13 slli	a0, a5, 1
0x800014a4: 00 f7 20 23 sw	a5, 0(a4)
0x800014a8: 01 15 55 13 srli	a0, a0, 17
0x800014ac: 00 00 80 67 jalr	zero, 0(ra)
0x800033ac: 00 00 46 17 auipc	a2, 4
0x800033b0: f5 c6 06 13 addi	a2, a2, -164
0x800033b4: 00 06 27 83 lw	a5, 0(a2)
0x800033b8: 00 00 46 97 auipc	a3, 4
0x800033bc: f4 c6 86 93 addi	a3, a3, -180
0x800033c0: 00 24 95 93 slli	a1, s1, 2
0x800033c4: 01 04 14 13 slli	s0, s0, 16
0x800033c8: 00 06 a7 03 lw	a4, 0(a3)
0x800033cc: 00 b7 87 b3 add	a5, a5, a1
0x800033d0: 00 a4 64 33 or	s0, s0, a0
0x800033d4: 00 87 a0 23 sw	s0, 0(a5)
0x800033d8: 00 14 84 93 addi	s1, s1, 1
0x800033dc: fc e4 c2 e3 blt	s1, a4, 0x800033a0
0x800033a0: 8c 0f e0 ef jal	ra, 0x80001460
0x80001460: 00 00 67 17 auipc	a4, 6
0x80001464: b1 07 07 13 addi	a4, a4, -1264
0x80001468: 00 07 26 83 lw	a3, 0(a4)
0x8000146c: 00 16 97 93 slli	a5, a3, 1
0x80001470: 00 d7 87 b3 add	a5, a5, a3
0x80001474: 00 27 97 93 slli	a5, a5, 2
0x80001478: 00 d7 87 b3 add	a5, a5, a3
0x8000147c: 00 47 97 93 slli	a5, a5, 4
0x80001480: 00 d7 87 b3 add	a5, a5, a3
0x80001484: 00 87 97 93 slli	a5, a5, 8
0x80001488: 40 d7 87 b3 sub	a5, a5, a3
0x8000148c: 00 27 97 93 slli	a5, a5, 2
0x80001490: 00 d7 87 b3 add	a5, a5, a3
0x80001494: 00 26 a6 b7 lui	a3, 618
0x80001498: ec 36 86 93 addi	a3, a3, -317
0x8000149c: 00 d7 87 b3 add	a5, a5, a3
0x800014a0: 00 17 95 13 slli	a0, a5, 1
0x800014a4: 00 f7 20 23 sw	a5, 0(a4)
0x800014a8: 01 15 55 13 srli	a0, a0, 17
0x800014ac: 00 00 80 67 jalr	zero, 0(ra)
0x800033a4: 00 05 04 13 addi	s0, a0, 0
0x800033a8: 8b 8f e0 ef jal	ra, 0x80001460
0x80001460: 00 00 67 17 auipc	a4, 6
0x80001464: b1 07 07 13 addi	a4, a4, -1264
0x80001468: 00 07 26 83 lw	a3, 0(a4)
0x8000146c: 00 16 97 93 slli	a5, a3, 1
0x80001470: 00 d7 87 b3 add	a5, a5, a3
0x80001474: 00 27 97 93 slli	a5, a5, 2
0x80001478: 00 d7 87 b3 add	a5, a5, a3
0x8000147c: 00 47 97 93 slli	a5, a5, 4
0x80001480: 00 d7 87 b3 add	a5, a5, a3
0x80001484: 00 87 97 93 slli	a5, a5, 8
0x80001488: 40 d7 87 b3 sub	a5, a5, a3
0x8000148c: 00 27 97 93 slli	a5, a5, 2
0x80001490: 00 d7 87 b3 add	a5, a5, a3
0x80001494: 00 26 a6 b7 lui	a3, 618
0x80001498: ec 36 86 93 addi	a3, a3, -317
0x8000149c: 00 d7 87 b3 add	a5, a5, a3
0x800014a0: 00 17 95 13 slli	a0, a5, 1
0x800014a4: 00 f7 20 23 sw	a5, 0(a4)
0x800014a8: 01 15 55 13 srli	a0, a0, 17
0x800014ac: 00 00 80 67 jalr	zero, 0(ra)
0x800033ac: 00 00 46 17 auipc	a2, 4
0x800033b0: f5 c6 06 13 addi	a2, a2, -164
0x800033b4: 00 06 27 83 lw	a5, 0(a2)
0x800033b8: 00 00 46 97 auipc	a3, 4
0x800033bc: f4 c6 86 93 addi	a3, a3, -180
0x800033c0: 00 24 95 93 slli	a1, s1, 2
0x800033c4: 01 04 14 13 slli	s0, s0, 16
0x800033c8: 00 06 a7 03 lw	a4, 0(a3)
0x800033cc: 00 b7 87 b3 add	a5, a5, a1
0x800033d0: 00 a4 64 33 or	s0, s0, a0
0x800033d4: 00 87 a0 23 sw	s0, 0(a5)
0x800033d8: 00 14 84 93 addi	s1, s1, 1
0x800033dc: fc e4 c2 e3 blt	s1, a4, 0x800033a0
0x800033a0: 8c 0f e0 ef jal	ra, 0x80001460
0x80001460: 00 00 67 17 auipc	a4, 6
0x80001464: b1 07 07 13 addi	a4, a4, -1264
0x80001468: 00 07 26 83 lw	a3, 0(a4)
0x8000146c: 00 16 97 93 slli	a5, a3, 1
0x80001470: 00 d7 87 b3 add	a5, a5, a3
0x80001474: 00 27 97 93 slli	a5, a5, 2
0x80001478: 00 d7 87 b3 add	a5, a5, a3
0x8000147c: 00 47 97 93 slli	a5, a5, 4
0x80001480: 00 d7 87 b3 add	a5, a5, a3
0x80001484: 00 87 97 93 slli	a5, a5, 8
0x80001488: 40 d7 87 b3 sub	a5, a5, a3
0x8000148c: 00 27 97 93 slli	a5, a5, 2
0x80001490: 00 d7 87 b3 add	a5, a5, a3
0x80001494: 00 26 a6 b7 lui	a3, 618
0x80001498: ec 36 86 93 addi	a3, a3, -317
0x8000149c: 00 d7 87 b3 add	a5, a5, a3
0x800014a0: 00 17 95 13 slli	a0, a5, 1
0x800014a4: 00 f7 20 23 sw	a5, 0(a4)
0x800014a8: 01 15 55 13 srli	a0, a0, 17
0x800014ac: 00 00 80 67 jalr	zero, 0(ra)
0x800033a4: 00 05 04 13 addi	s0, a0, 0
0x800033a8: 8b 8f e0 ef jal	ra, 0x80001460
0x80001460: 00 00 67 17 auipc	a4, 6
0x80001464: b1 07 07 13 addi	a4, a4, -1264
0x80001468: 00 07 26 83 lw	a3, 0(a4)
0x8000146c: 00 16 97 93 slli	a5, a3, 1
0x80001470: 00 d7 87 b3 add	a5, a5, a3
0x80001474: 00 27 97 93 slli	a5, a5, 2
0x80001478: 00 d7 87 b3 add	a5, a5, a3
0x8000147c: 00 47 97 93 slli	a5, a5, 4
0x80001480: 00 d7 87 b3 add	a5, a5, a3
0x80001484: 00 87 97 93 slli	a5, a5, 8
0x80001488: 40 d7 87 b3 sub	a5, a5, a3
0x8000148c: 00 27 97 93 slli	a5, a5, 2
0x80001490: 00 d7 87 b3 add	a5, a5, a3
0x80001494: 00 26 a6 b7 lui	a3, 618
0x80001498: ec 36 86 93 addi	a3, a3, -317
0x8000149c: 00 d7 87 b3 add	a5, a5, a3
0x800014a0: 00 17 95 13 slli	a0, a5, 1
0x800014a4: 00 f7 20 23 sw	a5, 0(a4)
0x800014a8: 01 15 55 13 srli	a0, a0, 17
0x800014ac: 00 00 80 67 jalr	zero, 0(ra)
0x800033ac: 00 00 46 17 auipc	a2, 4
0x800033b0: f5 c6 06 13 addi	a2, a2, -164
0x800033b4: 00 06 27 83 lw	a5, 0(a2)
0x800033b8: 00 00 46 97 auipc	a3, 4
0x800033bc: f4 c6 86 93 addi	a3, a3, -180
0x800033c0: 00 24 95 93 slli	a1, s1, 2
0x800033c4: 01 04 14 13 slli	s0, s0, 16
0x800033c8: 00 06 a7 03 lw	a4, 0(a3)
0x800033cc: 00 b7 87 b3 add	a5, a5, a1
0x800033d0: 00 a4 64 33 or	s0, s0, a0
0x800033d4: 00 87 a0 23 sw	s0, 0(a5)
0x800033d8: 00 14 84 93 addi	s1, s1, 1
0x800033dc: fc e4 c2 e3 blt	s1, a4, 0x800033a0
0x800033a0: 8c 0f e0 ef jal	ra, 0x80001460
0x80001460: 00 00 67 17 auipc	a4, 6
0x80001464: b1 07 07 13 addi	a4, a4, -1264
0x80001468: 00 07 26 83 lw	a3, 0(a4)
0x8000146c: 00 16 97 93 slli	a5, a3, 1
0x80001470: 00 d7 87 b3 add	a5, a5, a3
0x80001474: 00 27 97 93 slli	a5, a5, 2
0x80001478: 00 d7 87 b3 add	a5, a5, a3
0x8000147c: 00 47 97 93 slli	a5, a5, 4
0x80001480: 00 d7 87 b3 add	a5, a5, a3
0x80001484: 00 87 97 93 slli	a5, a5, 8
0x80001488: 40 d7 87 b3 sub	a5, a5, a3
0x8000148c: 00 27 97 93 slli	a5, a5, 2
0x80001490: 00 d7 87 b3 add	a5, a5, a3
0x80001494: 00 26 a6 b7 lui	a3, 618
0x80001498: ec 36 86 93 addi	a3, a3, -317
0x8000149c: 00 d7 87 b3 add	a5, a5, a3
0x800014a0: 00 17 95 13 slli	a0, a5, 1
0x800014a4: 00 f7 20 23 sw	a5, 0(a4)
0x800014a8: 01 15 55 13 srli	a0, a0, 17
0x800014ac: 00 00 80 67 jalr	zero, 0(ra)
0x800033a4: 00 05 04 13 addi	s0, a0, 0
0x800033a8: 8b 8f e0 ef jal	ra, 0x80001460
0x80001460: 00 00 67 17 auipc	a4, 6
0x80001464: b1 07 07 13 addi	a4, a4, -1264
0x80001468: 00 07 26 83 lw	a3, 0(a4)
0x8000146c: 00 16 97 93 slli	a5, a3, 1
0x80001470: 00 d7 87 b3 add	a5, a5, a3
0x80001474: 00 27 97 93 slli	a5, a5, 2
0x80001478: 00 d7 87 b3 add	a5, a5, a3
0x8000147c: 00 47 97 93 slli	a5, a5, 4
0x80001480: 00 d7 87 b3 add	a5, a5, a3
0x80001484: 00 87 97 93 slli	a5, a5, 8
0x80001488: 40 d7 87 b3 sub	a5, a5, a3
0x8000148c: 00 27 97 93 slli	a5, a5, 2
0x80001490: 00 d7 87 b3 add	a5, a5, a3
0x80001494: 00 26 a6 b7 lui	a3, 618
0x80001498: ec 36 86 93 addi	a3, a3, -317
0x8000149c: 00 d7 87 b3 add	a5, a5, a3
0x800014a0: 00 17 95 13 slli	a0, a5, 1
0x800014a4: 00 f7 20 23 sw	a5, 0(a4)
0x800014a8: 01 15 55 13 srli	a0, a0, 17
0x800014ac: 00 00 80 67 jalr	zero, 0(ra)
0x800033ac: 00 00 46 17 auipc	a2, 4
0x800033b0: f5 c6 06 13 addi	a2, a2, -164
0x800033b4: 00 06 27 83 lw	a5, 0(a2)
0x800033b8: 00 00 46 97 auipc	a3, 4
0x800033bc: f4 c6 86 93 addi	a3, a3, -180
0x800033c0: 00 24 95 93 slli	a1, s1, 2
0x800033c4: 01 04 14 13 slli	s0, s0, 16
0x800033c8: 00 06 a7 03 lw	a4, 0(a3)
0x800033cc: 00 b7 87 b3 add	a5, a5, a1
0x800033d0: 00 a4 64 33 or	s0, s0, a0
0x800033d4: 00 87 a0 23 sw	s0, 0(a5)
0x800033d8: 00 14 84 93 addi	s1, s1, 1
0x800033dc: fc e4 c2 e3 blt	s1, a4, 0x800033a0
0x800033a0: 8c 0f e0 ef jal	ra, 0x80001460
0x80001460: 00 00 67 17 auipc	a4, 6
0x80001464: b1 07 07 13 addi	a4, a4, -1264
0x80001468: 00 07 26 83 lw	a3, 0(a4)
0x8000146c: 00 16 97 93 slli	a5, a3, 1
0x80001470: 00 d7 87 b3 add	a5, a5, a3
0x80001474: 00 27 97 93 slli	a5, a5, 2
0x80001478: 00 d7 87 b3 add	a5, a5, a3
0x8000147c: 00 47 97 93 slli	a5, a5, 4
0x80001480: 00 d7 87 b3 add	a5, a5, a3
0x80001484: 00 87 97 93 slli	a5, a5, 8
0x80001488: 40 d7 87 b3 sub	a5, a5, a3
0x8000148c: 00 27 97 93 slli	a5, a5, 2
0x80001490: 00 d7 87 b3 add	a5, a5, a3
0x80001494: 00 26 a6 b7 lui	a3, 618
0x80001498: ec 36 86 93 addi	a3, a3, -317
0x8000149c: 00 d7 87 b3 add	a5, a5, a3
0x800014a0: 00 17 95 13 slli	a0, a5, 1
0x800014a4: 00 f7 20 23 sw	a5, 0(a4)
0x800014a8: 01 15 55 13 srli	a0, a0, 17
0x800014ac: 00 00 80 67 jalr	zero, 0(ra)
0x800033a4: 00 05 04 13 addi	s0, a0, 0
0x800033a8: 8b 8f e0 ef jal	ra, 0x80001460
0x80001460: 00 00 67 17 auipc	a4, 6
0x80001464: b1 07 07 13 addi	a4, a4, -1264
0x80001468: 00 07 26 83 lw	a3, 0(a4)
0x8000146c: 00 16 97 93 slli	a5, a3, 1
0x80001470: 00 d7 87 b3 add	a5, a5, a3
0x80001474: 00 27 97 93 slli	a5, a5, 2
0x80001478: 00 d7 87 b3 add	a5, a5, a3
0x8000147c: 00 47 97 93 slli	a5, a5, 4
0x80001480: 00 d7 87 b3 add	a5, a5, a3
0x80001484: 00 87 97 93 slli	a5, a5, 8
0x80001488: 40 d7 87 b3 sub	a5, a5, a3
0x8000148c: 00 27 97 93 slli	a5, a5, 2
0x80001490: 00 d7 87 b3 add	a5, a5, a3
0x80001494: 00 26 a6 b7 lui	a3, 618
0x80001498: ec 36 86 93 addi	a3, a3, -317
0x8000149c: 00 d7 87 b3 add	a5, a5, a3
0x800014a0: 00 17 95 13 slli	a0, a5, 1
0x800014a4: 00 f7 20 23 sw	a5, 0(a4)
0x800014a8: 01 15 55 13 srli	a0, a0, 17
0x800014ac: 00 00 80 67 jalr	zero, 0(ra)
0x800033ac: 00 00 46 17 auipc	a2, 4
0x800033b0: f5 c6 06 13 addi	a2, a2, -164
0x800033b4: 00 06 27 83 lw	a5, 0(a2)
0x800033b8: 00 00 46 97 auipc	a3, 4
0x800033bc: f4 c6 86 93 addi	a3, a3, -180
0x800033c0: 00 24 95 93 slli	a1, s1, 2
0x800033c4: 01 04 14 13 slli	s0, s0, 16
0x800033c8: 00 06 a7 03 lw	a4, 0(a3)
0x800033cc: 00 b7 87 b3 add	a5, a5, a1
0x800033d0: 00 a4 64 33 or	s0, s0, a0
0x800033d4: 00 87 a0 23 sw	s0, 0(a5)
0x800033d8: 00 14 84 93 addi	s1, s1, 1
0x800033dc: fc e4 c2 e3 blt	s1, a4, 0x800033a0
0x800033a0: 8c 0f e0 ef jal	ra, 0x80001460
0x80001460: 00 00 67 17 auipc	a4, 6
0x80001464: b1 07 07 13 addi	a4, a4, -1264
0x80001468: 00 07 26 83 lw	a3, 0(a4)
0x8000146c: 00 16 97 93 slli	a5, a3, 1
0x80001470: 00 d7 87 b3 add	a5, a5, a3
0x80001474: 00 27 97 93 slli	a5, a5, 2
0x80001478: 00 d7 87 b3 add	a5, a5, a3
0x8000147c: 00 47 97 93 slli	a5, a5, 4
0x80001480: 00 d7 87 b3 add	a5, a5, a3
0x80001484: 00 87 97 93 slli	a5, a5, 8
0x80001488: 40 d7 87 b3 sub	a5, a5, a3
0x8000148c: 00 27 97 93 slli	a5, a5, 2
0x80001490: 00 d7 87 b3 add	a5, a5, a3
0x80001494: 00 26 a6 b7 lui	a3, 618
0x80001498: ec 36 86 93 addi	a3, a3, -317
0x8000149c: 00 d7 87 b3 add	a5, a5, a3
0x800014a0: 00 17 95 13 slli	a0, a5, 1
0x800014a4: 00 f7 20 23 sw	a5, 0(a4)
0x800014a8: 01 15 55 13 srli	a0, a0, 17
0x800014ac: 00 00 80 67 jalr	zero, 0(ra)
0x800033a4: 00 05 04 13 addi	s0, a0, 0
0x800033a8: 8b 8f e0 ef jal	ra, 0x80001460
0x80001460: 00 00 67 17 auipc	a4, 6
0x80001464: b1 07 07 13 addi	a4, a4, -1264
0x80001468: 00 07 26 83 lw	a3, 0(a4)
0x8000146c: 00 16 97 93 slli	a5, a3, 1
0x80001470: 00 d7 87 b3 add	a5, a5, a3
0x80001474: 00 27 97 93 slli	a5, a5, 2
0x80001478: 00 d7 87 b3 add	a5, a5, a3
0x8000147c: 00 47 97 93 slli	a5, a5, 4
0x80001480: 00 d7 87 b3 add	a5, a5, a3
0x80001484: 00 87 97 93 slli	a5, a5, 8
0x80001488: 40 d7 87 b3 sub	a5, a5, a3
0x8000148c: 00 27 97 93 slli	a5, a5, 2
0x80001490: 00 d7 87 b3 add	a5, a5, a3
0x80001494: 00 26 a6 b7 lui	a3, 618
0x80001498: ec 36 86 93 addi	a3, a3, -317
0x8000149c: 00 d7 87 b3 add	a5, a5, a3
0x800014a0: 00 17 95 13 slli	a0, a5, 1
0x800014a4: 00 f7 20 23 sw	a5, 0(a4)
0x800014a8: 01 15 55 13 srli	a0, a0, 17
0x800014ac: 00 00 80 67 jalr	zero, 0(ra)
0x800033ac: 00 00 46 17 auipc	a2, 4
0x800033b0: f5 c6 06 13 addi	a2, a2, -164
0x800033b4: 00 06 27 83 lw	a5, 0(a2)
0x800033b8: 00 00 46 97 auipc	a3, 4
0x800033bc: f4 c6 86 93 addi	a3, a3, -180
0x800033c0: 00 24 95 93 slli	a1, s1, 2
0x800033c4: 01 04 14 13 slli	s0, s0, 16
0x800033c8: 00 06 a7 03 lw	a4, 0(a3)
0x800033cc: 00 b7 87 b3 add	a5, a5, a1
0x800033d0: 00 a4 64 33 or	s0, s0, a0
0x800033d4: 00 87 a0 23 sw	s0, 0(a5)
0x800033d8: 00 14 84 93 addi	s1, s1, 1
0x800033dc: fc e4 c2 e3 blt	s1, a4, 0x800033a0
0x800033a0: 8c 0f e0 ef jal	ra, 0x80001460
0x80001460: 00 00 67 17 auipc	a4, 6
0x80001464: b1 07 07 13 addi	a4, a4, -1264
0x80001468: 00 07 26 83 lw	a3, 0(a4)
0x8000146c: 00 16 97 93 slli	a5, a3, 1
0x80001470: 00 d7 87 b3 add	a5, a5, a3
0x80001474: 00 27 97 93 slli	a5, a5, 2
0x80001478: 00 d7 87 b3 add	a5, a5, a3
0x8000147c: 00 47 97 93 slli	a5, a5, 4
0x80001480: 00 d7 87 b3 add	a5, a5, a3
0x80001484: 00 87 97 93 slli	a5, a5, 8
0x80001488: 40 d7 87 b3 sub	a5, a5, a3
0x8000148c: 00 27 97 93 slli	a5, a5, 2
0x80001490: 00 d7 87 b3 add	a5, a5, a3
0x80001494: 00 26 a6 b7 lui	a3, 618
0x80001498: ec 36 86 93 addi	a3, a3, -317
0x8000149c: 00 d7 87 b3 add	a5, a5, a3
0x800014a0: 00 17 95 13 slli	a0, a5, 1
0x800014a4: 00 f7 20 23 sw	a5, 0(a4)
0x800014a8: 01 15 55 13 srli	a0, a0, 17
0x800014ac: 00 00 80 67 jalr	zero, 0(ra)
0x800033a4: 00 05 04 13 addi	s0, a0, 0
0x800033a8: 8b 8f e0 ef jal	ra, 0x80001460
0x80001460: 00 00 67 17 auipc	a4, 6
0x80001464: b1 07 07 13 addi	a4, a4, -1264
0x80001468: 00 07 26 83 lw	a3, 0(a4)
0x8000146c: 00 16 97 93 slli	a5, a3, 1
0x80001470: 00 d7 87 b3 add	a5, a5, a3
0x80001474: 00 27 97 93 slli	a5, a5, 2
0x80001478: 00 d7 87 b3 add	a5, a5, a3
0x8000147c: 00 47 97 93 slli	a5, a5, 4
0x80001480: 00 d7 87 b3 add	a5, a5, a3
0x80001484: 00 87 97 93 slli	a5, a5, 8
0x80001488: 40 d7 87 b3 sub	a5, a5, a3
0x8000148c: 00 27 97 93 slli	a5, a5, 2
0x80001490: 00 d7 87 b3 add	a5, a5, a3
0x80001494: 00 26 a6 b7 lui	a3, 618
0x80001498: ec 36 86 93 addi	a3, a3, -317
0x8000149c: 00 d7 87 b3 add	a5, a5, a3
0x800014a0: 00 17 95 13 slli	a0, a5, 1
0x800014a4: 00 f7 20 23 sw	a5, 0(a4)
0x800014a8: 01 15 55 13 srli	a0, a0, 17
0x800014ac: 00 00 80 67 jalr	zero, 0(ra)
0x800033ac: 00 00 46 17 auipc	a2, 4
0x800033b0: f5 c6 06 13 addi	a2, a2, -164
0x800033b4: 00 06 27 83 lw	a5, 0(a2)
0x800033b8: 00 00 46 97 auipc	a3, 4
0x800033bc: f4 c6 86 93 addi	a3, a3, -180
0x800033c0: 00 24 95 93 slli	a1, s1, 2
0x800033c4: 01 04 14 13 slli	s0, s0, 16
0x800033c8: 00 06 a7 03 lw	a4, 0(a3)
0x800033cc: 00 b7 87 b3 add	a5, a5, a1
0x800033d0: 00 a4 64 33 or	s0, s0, a0
0x800033d4: 00 87 a0 23 sw	s0, 0(a5)
0x800033d8: 00 14 84 93 addi	s1, s1, 1
0x800033dc: fc e4 c2 e3 blt	s1, a4, 0x800033a0
0x800033a0: 8c 0f e0 ef jal	ra, 0x80001460
0x80001460: 00 00 67 17 auipc	a4, 6
0x80001464: b1 07 07 13 addi	a4, a4, -1264
0x80001468: 00 07 26 83 lw	a3, 0(a4)
0x8000146c: 00 16 97 93 slli	a5, a3, 1
0x80001470: 00 d7 87 b3 add	a5, a5, a3
0x80001474: 00 27 97 93 slli	a5, a5, 2
0x80001478: 00 d7 87 b3 add	a5, a5, a3
0x8000147c: 00 47 97 93 slli	a5, a5, 4
0x80001480: 00 d7 87 b3 add	a5, a5, a3
0x80001484: 00 87 97 93 slli	a5, a5, 8
0x80001488: 40 d7 87 b3 sub	a5, a5, a3
0x8000148c: 00 27 97 93 slli	a5, a5, 2
0x80001490: 00 d7 87 b3 add	a5, a5, a3
0x80001494: 00 26 a6 b7 lui	a3, 618
0x80001498: ec 36 86 93 addi	a3, a3, -317
0x8000149c: 00 d7 87 b3 add	a5, a5, a3
0x800014a0: 00 17 95 13 slli	a0, a5, 1
0x800014a4: 00 f7 20 23 sw	a5, 0(a4)
0x800014a8: 01 15 55 13 srli	a0, a0, 17
0x800014ac: 00 00 80 67 jalr	zero, 0(ra)
0x800033a4: 00 05 04 13 addi	s0, a0, 0
0x800033a8: 8b 8f e0 ef jal	ra, 0x80001460
0x80001460: 00 00 67 17 auipc	a4, 6
0x80001464: b1 07 07 13 addi	a4, a4, -1264
0x80001468: 00 07 26 83 lw	a3, 0(a4)
0x8000146c: 00 16 97 93 slli	a5, a3, 1
0x80001470: 00 d7 87 b3 add	a5, a5, a3
0x80001474: 00 27 97 93 slli	a5, a5, 2
0x80001478: 00 d7 87 b3 add	a5, a5, a3
0x8000147c: 00 47 97 93 slli	a5, a5, 4
0x80001480: 00 d7 87 b3 add	a5, a5, a3
0x80001484: 00 87 97 93 slli	a5, a5, 8
0x80001488: 40 d7 87 b3 sub	a5, a5, a3
0x8000148c: 00 27 97 93 slli	a5, a5, 2
0x80001490: 00 d7 87 b3 add	a5, a5, a3
0x80001494: 00 26 a6 b7 lui	a3, 618
0x80001498: ec 36 86 93 addi	a3, a3, -317
0x8000149c: 00 d7 87 b3 add	a5, a5, a3
0x800014a0: 00 17 95 13 slli	a0, a5, 1
0x800014a4: 00 f7 20 23 sw	a5, 0(a4)
0x800014a8: 01 15 55 13 srli	a0, a0, 17
0x800014ac: 00 00 80 67 jalr	zero, 0(ra)
0x800033ac: 00 00 46 17 auipc	a2, 4
0x800033b0: f5 c6 06 13 addi	a2, a2, -164
0x800033b4: 00 06 27 83 lw	a5, 0(a2)
0x800033b8: 00 00 46 97 auipc	a3, 4
0x800033bc: f4 c6 86 93 addi	a3, a3, -180
0x800033c0: 00 24 95 93 slli	a1, s1, 2
0x800033c4: 01 04 14 13 slli	s0, s0, 16
0x800033c8: 00 06 a7 03 lw	a4, 0(a3)
0x800033cc: 00 b7 87 b3 add	a5, a5, a1
0x800033d0: 00 a4 64 33 or	s0, s0, a0
0x800033d4: 00 87 a0 23 sw	s0, 0(a5)
0x800033d8: 00 14 84 93 addi	s1, s1, 1
0x800033dc: fc e4 c2 e3 blt	s1, a4, 0x800033a0
0x800033a0: 8c 0f e0 ef jal	ra, 0x80001460
0x80001460: 00 00 67 17 auipc	a4, 6
0x80001464: b1 07 07 13 addi	a4, a4, -1264
0x80001468: 00 07 26 83 lw	a3, 0(a4)
0x8000146c: 00 16 97 93 slli	a5, a3, 1
0x80001470: 00 d7 87 b3 add	a5, a5, a3
0x80001474: 00 27 97 93 slli	a5, a5, 2
0x80001478: 00 d7 87 b3 add	a5, a5, a3
0x8000147c: 00 47 97 93 slli	a5, a5, 4
0x80001480: 00 d7 87 b3 add	a5, a5, a3
0x80001484: 00 87 97 93 slli	a5, a5, 8
0x80001488: 40 d7 87 b3 sub	a5, a5, a3
0x8000148c: 00 27 97 93 slli	a5, a5, 2
0x80001490: 00 d7 87 b3 add	a5, a5, a3
0x80001494: 00 26 a6 b7 lui	a3, 618
0x80001498: ec 36 86 93 addi	a3, a3, -317
0x8000149c: 00 d7 87 b3 add	a5, a5, a3
0x800014a0: 00 17 95 13 slli	a0, a5, 1
0x800014a4: 00 f7 20 23 sw	a5, 0(a4)
0x800014a8: 01 15 55 13 srli	a0, a0, 17
0x800014ac: 00 00 80 67 jalr	zero, 0(ra)
0x800033a4: 00 05 04 13 addi	s0, a0, 0
0x800033a8: 8b 8f e0 ef jal	ra, 0x80001460
0x80001460: 00 00 67 17 auipc	a4, 6
0x80001464: b1 07 07 13 addi	a4, a4, -1264
0x80001468: 00 07 26 83 lw	a3, 0(a4)
0x8000146c: 00 16 97 93 slli	a5, a3, 1
0x80001470: 00 d7 87 b3 add	a5, a5, a3
0x80001474: 00 27 97 93 slli	a5, a5, 2
0x80001478: 00 d7 87 b3 add	a5, a5, a3
0x8000147c: 00 47 97 93 slli	a5, a5, 4
0x80001480: 00 d7 87 b3 add	a5, a5, a3
0x80001484: 00 87 97 93 slli	a5, a5, 8
0x80001488: 40 d7 87 b3 sub	a5, a5, a3
0x8000148c: 00 27 97 93 slli	a5, a5, 2
0x80001490: 00 d7 87 b3 add	a5, a5, a3
0x80001494: 00 26 a6 b7 lui	a3, 618
0x80001498: ec 36 86 93 addi	a3, a3, -317
0x8000149c: 00 d7 87 b3 add	a5, a5, a3
0x800014a0: 00 17 95 13 slli	a0, a5, 1
0x800014a4: 00 f7 20 23 sw	a5, 0(a4)
0x800014a8: 01 15 55 13 srli	a0, a0, 17
0x800014ac: 00 00 80 67 jalr	zero, 0(ra)
0x800033ac: 00 00 46 17 auipc	a2, 4
0x800033b0: f5 c6 06 13 addi	a2, a2, -164
0x800033b4: 00 06 27 83 lw	a5, 0(a2)
0x800033b8: 00 00 46 97 auipc	a3, 4
0x800033bc: f4 c6 86 93 addi	a3, a3, -180
0x800033c0: 00 24 95 93 slli	a1, s1, 2
0x800033c4: 01 04 14 13 slli	s0, s0, 16
0x800033c8: 00 06 a7 03 lw	a4, 0(a3)
0x800033cc: 00 b7 87 b3 add	a5, a5, a1
0x800033d0: 00 a4 64 33 or	s0, s0, a0
0x800033d4: 00 87 a0 23 sw	s0, 0(a5)
0x800033d8: 00 14 84 93 addi	s1, s1, 1
0x800033dc: fc e4 c2 e3 blt	s1, a4, 0x800033a0
0x800033a0: 8c 0f e0 ef jal	ra, 0x80001460
0x80001460: 00 00 67 17 auipc	a4, 6
0x80001464: b1 07 07 13 addi	a4, a4, -1264
0x80001468: 00 07 26 83 lw	a3, 0(a4)
0x8000146c: 00 16 97 93 slli	a5, a3, 1
0x80001470: 00 d7 87 b3 add	a5, a5, a3
0x80001474: 00 27 97 93 slli	a5, a5, 2
0x80001478: 00 d7 87 b3 add	a5, a5, a3
0x8000147c: 00 47 97 93 slli	a5, a5, 4
0x80001480: 00 d7 87 b3 add	a5, a5, a3
0x80001484: 00 87 97 93 slli	a5, a5, 8
0x80001488: 40 d7 87 b3 sub	a5, a5, a3
0x8000148c: 00 27 97 93 slli	a5, a5, 2
0x80001490: 00 d7 87 b3 add	a5, a5, a3
0x80001494: 00 26 a6 b7 lui	a3, 618
0x80001498: ec 36 86 93 addi	a3, a3, -317
0x8000149c: 00 d7 87 b3 add	a5, a5, a3
0x800014a0: 00 17 95 13 slli	a0, a5, 1
0x800014a4: 00 f7 20 23 sw	a5, 0(a4)
0x800014a8: 01 15 55 13 srli	a0, a0, 17
0x800014ac: 00 00 80 67 jalr	zero, 0(ra)
0x800033a4: 00 05 04 13 addi	s0, a0, 0
0x800033a8: 8b 8f e0 ef jal	ra, 0x80001460
0x80001460: 00 00 67 17 auipc	a4, 6
0x80001464: b1 07 07 13 addi	a4, a4, -1264
0x80001468: 00 07 26 83 lw	a3, 0(a4)
0x8000146c: 00 16 97 93 slli	a5, a3, 1
0x80001470: 00 d7 87 b3 add	a5, a5, a3
0x80001474: 00 27 97 93 slli	a5, a5, 2
0x80001478: 00 d7 87 b3 add	a5, a5, a3
0x8000147c: 00 47 97 93 slli	a5, a5, 4
0x80001480: 00 d7 87 b3 add	a5, a5, a3
0x80001484: 00 87 97 93 slli	a5, a5, 8
0x80001488: 40 d7 87 b3 sub	a5, a5, a3
0x8000148c: 00 27 97 93 slli	a5, a5, 2
0x80001490: 00 d7 87 b3 add	a5, a5, a3
0x80001494: 00 26 a6 b7 lui	a3, 618
0x80001498: ec 36 86 93 addi	a3, a3, -317
0x8000149c: 00 d7 87 b3 add	a5, a5, a3
0x800014a0: 00 17 95 13 slli	a0, a5, 1
0x800014a4: 00 f7 20 23 sw	a5, 0(a4)
0x800014a8: 01 15 55 13 srli	a0, a0, 17
0x800014ac: 00 00 80 67 jalr	zero, 0(ra)
0x800033ac: 00 00 46 17 auipc	a2, 4
0x800033b0: f5 c6 06 13 addi	a2, a2, -164
0x800033b4: 00 06 27 83 lw	a5, 0(a2)
0x800033b8: 00 00 46 97 auipc	a3, 4
0x800033bc: f4 c6 86 93 addi	a3, a3, -180
0x800033c0: 00 24 95 93 slli	a1, s1, 2
0x800033c4: 01 04 14 13 slli	s0, s0, 16
0x800033c8: 00 06 a7 03 lw	a4, 0(a3)
0x800033cc: 00 b7 87 b3 add	a5, a5, a1
0x800033d0: 00 a4 64 33 or	s0, s0, a0
0x800033d4: 00 87 a0 23 sw	s0, 0(a5)
0x800033d8: 00 14 84 93 addi	s1, s1, 1
0x800033dc: fc e4 c2 e3 blt	s1, a4, 0x800033a0
0x800033a0: 8c 0f e0 ef jal	ra, 0x80001460
0x80001460: 00 00 67 17 auipc	a4, 6
0x80001464: b1 07 07 13 addi	a4, a4, -1264
0x80001468: 00 07 26 83 lw	a3, 0(a4)
0x8000146c: 00 16 97 93 slli	a5, a3, 1
0x80001470: 00 d7 87 b3 add	a5, a5, a3
0x80001474: 00 27 97 93 slli	a5, a5, 2
0x80001478: 00 d7 87 b3 add	a5, a5, a3
0x8000147c: 00 47 97 93 slli	a5, a5, 4
0x80001480: 00 d7 87 b3 add	a5, a5, a3
0x80001484: 00 87 97 93 slli	a5, a5, 8
0x80001488: 40 d7 87 b3 sub	a5, a5, a3
0x8000148c: 00 27 97 93 slli	a5, a5, 2
0x80001490: 00 d7 87 b3 add	a5, a5, a3
0x80001494: 00 26 a6 b7 lui	a3, 618
0x80001498: ec 36 86 93 addi	a3, a3, -317
0x8000149c: 00 d7 87 b3 add	a5, a5, a3
0x800014a0: 00 17 95 13 slli	a0, a5, 1
0x800014a4: 00 f7 20 23 sw	a5, 0(a4)
0x800014a8: 01 15 55 13 srli	a0, a0, 17
0x800014ac: 00 00 80 67 jalr	zero, 0(ra)
0x800033a4: 00 05 04 13 addi	s0, a0, 0
0x800033a8: 8b 8f e0 ef jal	ra, 0x80001460
0x80001460: 00 00 67 17 auipc	a4, 6
0x80001464: b1 07 07 13 addi	a4, a4, -1264
0x80001468: 00 07 26 83 lw	a3, 0(a4)
0x8000146c: 00 16 97 93 slli	a5, a3, 1
0x80001470: 00 d7 87 b3 add	a5, a5, a3
0x80001474: 00 27 97 93 slli	a5, a5, 2
0x80001478: 00 d7 87 b3 add	a5, a5, a3
0x8000147c: 00 47 97 93 slli	a5, a5, 4
0x80001480: 00 d7 87 b3 add	a5, a5, a3
0x80001484: 00 87 97 93 slli	a5, a5, 8
0x80001488: 40 d7 87 b3 sub	a5, a5, a3
0x8000148c: 00 27 97 93 slli	a5, a5, 2
0x80001490: 00 d7 87 b3 add	a5, a5, a3
0x80001494: 00 26 a6 b7 lui	a3, 618
0x80001498: ec 36 86 93 addi	a3, a3, -317
0x8000149c: 00 d7 87 b3 add	a5, a5, a3
0x800014a0: 00 17 95 13 slli	a0, a5, 1
0x800014a4: 00 f7 20 23 sw	a5, 0(a4)
0x800014a8: 01 15 55 13 srli	a0, a0, 17
0x800014ac: 00 00 80 67 jalr	zero, 0(ra)
0x800033ac: 00 00 46 17 auipc	a2, 4
0x800033b0: f5 c6 06 13 addi	a2, a2, -164
0x800033b4: 00 06 27 83 lw	a5, 0(a2)
0x800033b8: 00 00 46 97 auipc	a3, 4
0x800033bc: f4 c6 86 93 addi	a3, a3, -180
0x800033c0: 00 24 95 93 slli	a1, s1, 2
0x800033c4: 01 04 14 13 slli	s0, s0, 16
0x800033c8: 00 06 a7 03 lw	a4, 0(a3)
0x800033cc: 00 b7 87 b3 add	a5, a5, a1
0x800033d0: 00 a4 64 33 or	s0, s0, a0
0x800033d4: 00 87 a0 23 sw	s0, 0(a5)
0x800033d8: 00 14 84 93 addi	s1, s1, 1
0x800033dc: fc e4 c2 e3 blt	s1, a4, 0x800033a0
0x800033a0: 8c 0f e0 ef jal	ra, 0x80001460
0x80001460: 00 00 67 17 auipc	a4, 6
0x80001464: b1 07 07 13 addi	a4, a4, -1264
0x80001468: 00 07 26 83 lw	a3, 0(a4)
0x8000146c: 00 16 97 93 slli	a5, a3, 1
0x80001470: 00 d7 87 b3 add	a5, a5, a3
0x80001474: 00 27 97 93 slli	a5, a5, 2
0x80001478: 00 d7 87 b3 add	a5, a5, a3
0x8000147c: 00 47 97 93 slli	a5, a5, 4
0x80001480: 00 d7 87 b3 add	a5, a5, a3
0x80001484: 00 87 97 93 slli	a5, a5, 8
0x80001488: 40 d7 87 b3 sub	a5, a5, a3
0x8000148c: 00 27 97 93 slli	a5, a5, 2
0x80001490: 00 d7 87 b3 add	a5, a5, a3
0x80001494: 00 26 a6 b7 lui	a3, 618
0x80001498: ec 36 86 93 addi	a3, a3, -317
0x8000149c: 00 d7 87 b3 add	a5, a5, a3
0x800014a0: 00 17 95 13 slli	a0, a5, 1
0x800014a4: 00 f7 20 23 sw	a5, 0(a4)
0x800014a8: 01 15 55 13 srli	a0, a0, 17
0x800014ac: 00 00 80 67 jalr	zero, 0(ra)
0x800033a4: 00 05 04 13 addi	s0, a0, 0
0x800033a8: 8b 8f e0 ef jal	ra, 0x80001460
0x80001460: 00 00 67 17 auipc	a4, 6
0x80001464: b1 07 07 13 addi	a4, a4, -1264
0x80001468: 00 07 26 83 lw	a3, 0(a4)
0x8000146c: 00 16 97 93 slli	a5, a3, 1
0x80001470: 00 d7 87 b3 add	a5, a5, a3
0x80001474: 00 27 97 93 slli	a5, a5, 2
0x80001478: 00 d7 87 b3 add	a5, a5, a3
0x8000147c: 00 47 97 93 slli	a5, a5, 4
0x80001480: 00 d7 87 b3 add	a5, a5, a3
0x80001484: 00 87 97 93 slli	a5, a5, 8
0x80001488: 40 d7 87 b3 sub	a5, a5, a3
0x8000148c: 00 27 97 93 slli	a5, a5, 2
0x80001490: 00 d7 87 b3 add	a5, a5, a3
0x80001494: 00 26 a6 b7 lui	a3, 618
0x80001498: ec 36 86 93 addi	a3, a3, -317
0x8000149c: 00 d7 87 b3 add	a5, a5, a3
0x800014a0: 00 17 95 13 slli	a0, a5, 1
0x800014a4: 00 f7 20 23 sw	a5, 0(a4)
0x800014a8: 01 15 55 13 srli	a0, a0, 17
0x800014ac: 00 00 80 67 jalr	zero, 0(ra)
0x800033ac: 00 00 46 17 auipc	a2, 4
0x800033b0: f5 c6 06 13 addi	a2, a2, -164
0x800033b4: 00 06 27 83 lw	a5, 0(a2)
0x800033b8: 00 00 46 97 auipc	a3, 4
0x800033bc: f4 c6 86 93 addi	a3, a3, -180
0x800033c0: 00 24 95 93 slli	a1, s1, 2
0x800033c4: 01 04 14 13 slli	s0, s0, 16
0x800033c8: 00 06 a7 03 lw	a4, 0(a3)
0x800033cc: 00 b7 87 b3 add	a5, a5, a1
0x800033d0: 00 a4 64 33 or	s0, s0, a0
0x800033d4: 00 87 a0 23 sw	s0, 0(a5)
0x800033d8: 00 14 84 93 addi	s1, s1, 1
0x800033dc: fc e4 c2 e3 blt	s1, a4, 0x800033a0
0x800033e0: 00 81 20 83 lw	ra, 8(sp)
0x800033e4: 00 41 24 03 lw	s0, 4(sp)
0x800033e8: 00 01 24 83 lw	s1, 0(sp)
0x800033ec: 00 c1 01 13 addi	sp, sp, 12
0x800033f0: 00 00 80 67 jalr	zero, 0(ra)
0x8000104c: 00 04 85 93 addi	a1, s1, 0
0x80001050: 00 60 05 13 addi	a0, zero, 6
0x80001054: 68 40 40 ef jal	ra, 0x800056d8
0x800056d8: 00 25 15 13 slli	a0, a0, 2
0x800056dc: 00 00 27 97 auipc	a5, 2
0x800056e0: 9a 07 87 93 addi	a5, a5, -1632
0x800056e4: 00 a7 87 b3 add	a5, a5, a0
0x800056e8: 00 07 a7 83 lw	a5, 0(a5)
0x800056ec: 00 05 85 13 addi	a0, a1, 0
0x800056f0: 00 07 80 67 jalr	zero, 0(a5)
0x800056f8: a0 00 07 b7 lui	a5, 655360
0x800056fc: 04 87 a7 03 lw	a4, 72(a5)
0x80005700: 04 c7 a7 83 lw	a5, 76(a5)
0x80005704: 00 e5 20 23 sw	a4, 0(a0)
0x80005708: 00 f5 22 23 sw	a5, 4(a0)
0x8000570c: 00 00 80 67 jalr	zero, 0(ra)
0x80001058: 00 00 65 17 auipc	a0, 6
0x8000105c: 28 85 05 13 addi	a0, a0, 648
0x80001060: 00 05 27 03 lw	a4, 0(a0)
0x80001064: 00 04 a2 83 lw	t0, 0(s1)
0x80001068: 00 44 a3 03 lw	t1, 4(s1)
0x8000106c: 00 47 27 03 lw	a4, 4(a4)
0x80001070: 00 51 26 23 sw	t0, 12(sp)
0x80001074: 00 61 20 23 sw	t1, 0(sp)
0x80001078: 00 07 00 e7 jalr	ra, 0(a4)
0x800033f4: 00 00 46 17 auipc	a2, 4
0x800033f8: f1 06 26 03 lw	a2, -240(a2)
0x800033fc: 00 00 05 93 addi	a1, zero, 0
0x80003400: 00 00 45 17 auipc	a0, 4
0x80003404: f0 85 25 03 lw	a0, -248(a0)
0x80003408: e6 df f0 6f jal	zero, 0x80003274
0x80003274: 00 06 03 13 addi	t1, a2, 0
0x80003278: 0c c5 d6 63 bge	a1, a2, 0x80003344
0x8000327c: fe c1 01 13 addi	sp, sp, -20
0x80003280: 00 11 28 23 sw	ra, 16(sp)
0x80003284: 00 81 26 23 sw	s0, 12(sp)
0x80003288: 00 91 24 23 sw	s1, 8(sp)
0x8000328c: 00 23 14 93 slli	s1, t1, 2
0x80003290: 00 95 04 b3 add	s1, a0, s1
0x80003294: 00 25 97 93 slli	a5, a1, 2
0x80003298: 00 f5 06 33 add	a2, a0, a5
0x8000329c: 00 15 87 13 addi	a4, a1, 1
0x800032a0: 00 06 26 83 lw	a3, 0(a2)
0x800032a4: 08 67 52 63 bge	a4, t1, 0x80003328
0x800032a8: 00 47 87 93 addi	a5, a5, 4
0x800032ac: 00 f5 07 b3 add	a5, a0, a5
0x800032b0: 00 05 84 13 addi	s0, a1, 0
0x800032b4: 00 07 a2 83 lw	t0, 0(a5)
0x800032b8: 00 d2 de 63 bge	t0, a3, 0x800032d4
0x800032d4: 00 47 87 93 addi	a5, a5, 4
0x800032d8: fc f4 9e e3 bne	s1, a5, 0x800032b4
0x800032b4: 00 07 a2 83 lw	t0, 0(a5)
0x800032b8: 00 d2 de 63 bge	t0, a3, 0x800032d4
0x800032d4: 00 47 87 93 addi	a5, a5, 4
0x800032d8: fc f4 9e e3 bne	s1, a5, 0x800032b4
0x800032b4: 00 07 a2 83 lw	t0, 0(a5)
0x800032b8: 00 d2 de 63 bge	t0, a3, 0x800032d4
0x800032d4: 00 47 87 93 addi	a5, a5, 4
0x800032d8: fc f4 9e e3 bne	s1, a5, 0x800032b4
0x800032b4: 00 07 a2 83 lw	t0, 0(a5)
0x800032b8: 00 d2 de 63 bge	t0, a3, 0x800032d4
0x800032d4: 00 47 87 93 addi	a5, a5, 4
0x800032d8: fc f4 9e e3 bne	s1, a5, 0x800032b4
0x800032b4: 00 07 a2 83 lw	t0, 0(a5)
0x800032b8: 00 d2 de 63 bge	t0, a3, 0x800032d4
0x800032d4: 00 47 87 93 addi	a5, a5, 4
0x800032d8: fc f4 9e e3 bne	s1, a5, 0x800032b4
0x800032b4: 00 07 a2 83 lw	t0, 0(a5)
0x800032b8: 00 d2 de 63 bge	t0, a3, 0x800032d4
0x800032d4: 00 47 87 93 addi	a5, a5, 4
0x800032d8: fc f4 9e e3 bne	s1, a5, 0x800032b4
0x800032b4: 00 07 a2 83 lw	t0, 0(a5)
0x800032b8: 00 d2 de 63 bge	t0, a3, 0x800032d4
0x800032d4: 00 47 87 93 addi	a5, a5, 4
0x800032d8: fc f4 9e e3 bne	s1, a5, 0x800032b4
0x800032b4: 00 07 a2 83 lw	t0, 0(a5)
0x800032b8: 00 d2 de 63 bge	t0, a3, 0x800032d4
0x800032d4: 00 47 87 93 addi	a5, a5, 4
0x800032d8: fc f4 9e e3 bne	s1, a5, 0x800032b4
0x800032b4: 00 07 a2 83 lw	t0, 0(a5)
0x800032b8: 00 d2 de 63 bge	t0, a3, 0x800032d4
0x800032d4: 00 47 87 93 addi	a5, a5, 4
0x800032d8: fc f4 9e e3 bne	s1, a5, 0x800032b4
0x800032b4: 00 07 a2 83 lw	t0, 0(a5)
0x800032b8: 00 d2 de 63 bge	t0, a3, 0x800032d4
0x800032d4: 00 47 87 93 addi	a5, a5, 4
0x800032d8: fc f4 9e e3 bne	s1, a5, 0x800032b4
0x800032b4: 00 07 a2 83 lw	t0, 0(a5)
0x800032b8: 00 d2 de 63 bge	t0, a3, 0x800032d4
0x800032d4: 00 47 87 93 addi	a5, a5, 4
0x800032d8: fc f4 9e e3 bne	s1, a5, 0x800032b4
0x800032b4: 00 07 a2 83 lw	t0, 0(a5)
0x800032b8: 00 d2 de 63 bge	t0, a3, 0x800032d4
0x800032d4: 00 47 87 93 addi	a5, a5, 4
0x800032d8: fc f4 9e e3 bne	s1, a5, 0x800032b4
0x800032b4: 00 07 a2 83 lw	t0, 0(a5)
0x800032b8: 00 d2 de 63 bge	t0, a3, 0x800032d4
0x800032d4: 00 47 87 93 addi	a5, a5, 4
0x800032d8: fc f4 9e e3 bne	s1, a5, 0x800032b4
0x800032b4: 00 07 a2 83 lw	t0, 0(a5)
0x800032b8: 00 d2 de 63 bge	t0, a3, 0x800032d4
0x800032d4: 00 47 87 93 addi	a5, a5, 4
0x800032d8: fc f4 9e e3 bne	s1, a5, 0x800032b4
0x800032b4: 00 07 a2 83 lw	t0, 0(a5)
0x800032b8: 00 d2 de 63 bge	t0, a3, 0x800032d4
0x800032d4: 00 47 87 93 addi	a5, a5, 4
0x800032d8: fc f4 9e e3 bne	s1, a5, 0x800032b4
0x800032b4: 00 07 a2 83 lw	t0, 0(a5)
0x800032b8: 00 d2 de 63 bge	t0, a3, 0x800032d4
0x800032d4: 00 47 87 93 addi	a5, a5, 4
0x800032d8: fc f4 9e e3 bne	s1, a5, 0x800032b4
0x800032b4: 00 07 a2 83 lw	t0, 0(a5)
0x800032b8: 00 d2 de 63 bge	t0, a3, 0x800032d4
0x800032d4: 00 47 87 93 addi	a5, a5, 4
0x800032d8: fc f4 9e e3 bne	s1, a5, 0x800032b4
0x800032b4: 00 07 a2 83 lw	t0, 0(a5)
0x800032b8: 00 d2 de 63 bge	t0, a3, 0x800032d4
0x800032d4: 00 47 87 93 addi	a5, a5, 4
0x800032d8: fc f4 9e e3 bne	s1, a5, 0x800032b4
0x800032b4: 00 07 a2 83 lw	t0, 0(a5)
0x800032b8: 00 d2 de 63 bge	t0, a3, 0x800032d4
0x800032d4: 00 47 87 93 addi	a5, a5, 4
0x800032d8: fc f4 9e e3 bne	s1, a5, 0x800032b4
0x800032b4: 00 07 a2 83 lw	t0, 0(a5)
0x800032b8: 00 d2 de 63 bge	t0, a3, 0x800032d4
0x800032d4: 00 47 87 93 addi	a5, a5, 4
0x800032d8: fc f4 9e e3 bne	s1, a5, 0x800032b4
0x800032b4: 00 07 a2 83 lw	t0, 0(a5)
0x800032b8: 00 d2 de 63 bge	t0, a3, 0x800032d4
0x800032d4: 00 47 87 93 addi	a5, a5, 4
0x800032d8: fc f4 9e e3 bne	s1, a5, 0x800032b4
0x800032b4: 00 07 a2 83 lw	t0, 0(a5)
0x800032b8: 00 d2 de 63 bge	t0, a3, 0x800032d4
0x800032d4: 00 47 87 93 addi	a5, a5, 4
0x800032d8: fc f4 9e e3 bne	s1, a5, 0x800032b4
0x800032b4: 00 07 a2 83 lw	t0, 0(a5)
0x800032b8: 00 d2 de 63 bge	t0, a3, 0x800032d4
0x800032d4: 00 47 87 93 addi	a5, a5, 4
0x800032d8: fc f4 9e e3 bne	s1, a5, 0x800032b4
0x800032b4: 00 07 a2 83 lw	t0, 0(a5)
0x800032b8: 00 d2 de 63 bge	t0, a3, 0x800032d4
0x800032d4: 00 47 87 93 addi	a5, a5, 4
0x800032d8: fc f4 9e e3 bne	s1, a5, 0x800032b4
0x800032b4: 00 07 a2 83 lw	t0, 0(a5)
0x800032b8: 00 d2 de 63 bge	t0, a3, 0x800032d4
0x800032d4: 00 47 87 93 addi	a5, a5, 4
0x800032d8: fc f4 9e e3 bne	s1, a5, 0x800032b4
0x800032b4: 00 07 a2 83 lw	t0, 0(a5)
0x800032b8: 00 d2 de 63 bge	t0, a3, 0x800032d4
0x800032d4: 00 47 87 93 addi	a5, a5, 4
0x800032d8: fc f4 9e e3 bne	s1, a5, 0x800032b4
0x800032b4: 00 07 a2 83 lw	t0, 0(a5)
0x800032b8: 00 d2 de 63 bge	t0, a3, 0x800032d4
0x800032d4: 00 47 87 93 addi	a5, a5, 4
0x800032d8: fc f4 9e e3 bne	s1, a5, 0x800032b4
0x800032b4: 00 07 a2 83 lw	t0, 0(a5)
0x800032b8: 00 d2 de 63 bge	t0, a3, 0x800032d4
0x800032d4: 00 47 87 93 addi	a5, a5, 4
0x800032d8: fc f4 9e e3 bne	s1, a5, 0x800032b4
0x800032b4: 00 07 a2 83 lw	t0, 0(a5)
0x800032b8: 00 d2 de 63 bge	t0, a3, 0x800032d4
0x800032d4: 00 47 87 93 addi	a5, a5, 4
0x800032d8: fc f4 9e e3 bne	s1, a5, 0x800032b4
0x800032b4: 00 07 a2 83 lw	t0, 0(a5)
0x800032b8: 00 d2 de 63 bge	t0, a3, 0x800032d4
0x800032d4: 00 47 87 93 addi	a5, a5, 4
0x800032d8: fc f4 9e e3 bne	s1, a5, 0x800032b4
0x800032b4: 00 07 a2 83 lw	t0, 0(a5)
0x800032b8: 00 d2 de 63 bge	t0, a3, 0x800032d4
0x800032d4: 00 47 87 93 addi	a5, a5, 4
0x800032d8: fc f4 9e e3 bne	s1, a5, 0x800032b4
0x800032b4: 00 07 a2 83 lw	t0, 0(a5)
0x800032b8: 00 d2 de 63 bge	t0, a3, 0x800032d4
0x800032d4: 00 47 87 93 addi	a5, a5, 4
0x800032d8: fc f4 9e e3 bne	s1, a5, 0x800032b4
0x800032b4: 00 07 a2 83 lw	t0, 0(a5)
0x800032b8: 00 d2 de 63 bge	t0, a3, 0x800032d4
0x800032d4: 00 47 87 93 addi	a5, a5, 4
0x800032d8: fc f4 9e e3 bne	s1, a5, 0x800032b4
0x800032b4: 00 07 a2 83 lw	t0, 0(a5)
0x800032b8: 00 d2 de 63 bge	t0, a3, 0x800032d4
0x800032d4: 00 47 87 93 addi	a5, a5, 4
0x800032d8: fc f4 9e e3 bne	s1, a5, 0x800032b4
0x800032b4: 00 07 a2 83 lw	t0, 0(a5)
0x800032b8: 00 d2 de 63 bge	t0, a3, 0x800032d4
0x800032d4: 00 47 87 93 addi	a5, a5, 4
0x800032d8: fc f4 9e e3 bne	s1, a5, 0x800032b4
0x800032b4: 00 07 a2 83 lw	t0, 0(a5)
0x800032b8: 00 d2 de 63 bge	t0, a3, 0x800032d4
0x800032d4: 00 47 87 93 addi	a5, a5, 4
0x800032d8: fc f4 9e e3 bne	s1, a5, 0x800032b4
0x800032b4: 00 07 a2 83 lw	t0, 0(a5)
0x800032b8: 00 d2 de 63 bge	t0, a3, 0x800032d4
0x800032d4: 00 47 87 93 addi	a5, a5, 4
0x800032d8: fc f4 9e e3 bne	s1, a5, 0x800032b4
0x800032b4: 00 07 a2 83 lw	t0, 0(a5)
0x800032b8: 00 d2 de 63 bge	t0, a3, 0x800032d4
0x800032d4: 00 47 87 93 addi	a5, a5, 4
0x800032d8: fc f4 9e e3 bne	s1, a5, 0x800032b4
0x800032b4: 00 07 a2 83 lw	t0, 0(a5)
0x800032b8: 00 d2 de 63 bge	t0, a3, 0x800032d4
0x800032d4: 00 47 87 93 addi	a5, a5, 4
0x800032d8: fc f4 9e e3 bne	s1, a5, 0x800032b4
0x800032b4: 00 07 a2 83 lw	t0, 0(a5)
0x800032b8: 00 d2 de 63 bge	t0, a3, 0x800032d4
0x800032d4: 00 47 87 93 addi	a5, a5, 4
0x800032d8: fc f4 9e e3 bne	s1, a5, 0x800032b4
0x800032b4: 00 07 a2 83 lw	t0, 0(a5)
0x800032b8: 00 d2 de 63 bge	t0, a3, 0x800032d4
0x800032d4: 00 47 87 93 addi	a5, a5, 4
0x800032d8: fc f4 9e e3 bne	s1, a5, 0x800032b4
0x800032b4: 00 07 a2 83 lw	t0, 0(a5)
0x800032b8: 00 d2 de 63 bge	t0, a3, 0x800032d4
0x800032d4: 00 47 87 93 addi	a5, a5, 4
0x800032d8: fc f4 9e e3 bne	s1, a5, 0x800032b4
0x800032b4: 00 07 a2 83 lw	t0, 0(a5)
0x800032b8: 00 d2 de 63 bge	t0, a3, 0x800032d4
0x800032d4: 00 47 87 93 addi	a5, a5, 4
0x800032d8: fc f4 9e e3 bne	s1, a5, 0x800032b4
0x800032b4: 00 07 a2 83 lw	t0, 0(a5)
0x800032b8: 00 d2 de 63 bge	t0, a3, 0x800032d4
0x800032d4: 00 47 87 93 addi	a5, a5, 4
0x800032d8: fc f4 9e e3 bne	s1, a5, 0x800032b4
0x800032b4: 00 07 a2 83 lw	t0, 0(a5)
0x800032b8: 00 d2 de 63 bge	t0, a3, 0x800032d4
0x800032d4: 00 47 87 93 addi	a5, a5, 4
0x800032d8: fc f4 9e e3 bne	s1, a5, 0x800032b4
0x800032b4: 00 07 a2 83 lw	t0, 0(a5)
0x800032b8: 00 d2 de 63 bge	t0, a3, 0x800032d4
0x800032d4: 00 47 87 93 addi	a5, a5, 4
0x800032d8: fc f4 9e e3 bne	s1, a5, 0x800032b4
0x800032b4: 00 07 a2 83 lw	t0, 0(a5)
0x800032b8: 00 d2 de 63 bge	t0, a3, 0x800032d4
0x800032d4: 00 47 87 93 addi	a5, a5, 4
0x800032d8: fc f4 9e e3 bne	s1, a5, 0x800032b4
0x800032b4: 00 07 a2 83 lw	t0, 0(a5)
0x800032b8: 00 d2 de 63 bge	t0, a3, 0x800032d4
0x800032d4: 00 47 87 93 addi	a5, a5, 4
0x800032d8: fc f4 9e e3 bne	s1, a5, 0x800032b4
0x800032b4: 00 07 a2 83 lw	t0, 0(a5)
0x800032b8: 00 d2 de 63 bge	t0, a3, 0x800032d4
0x800032d4: 00 47 87 93 addi	a5, a5, 4
0x800032d8: fc f4 9e e3 bne	s1, a5, 0x800032b4
0x800032b4: 00 07 a2 83 lw	t0, 0(a5)
0x800032b8: 00 d2 de 63 bge	t0, a3, 0x800032d4
0x800032d4: 00 47 87 93 addi	a5, a5, 4
0x800032d8: fc f4 9e e3 bne	s1, a5, 0x800032b4
0x800032b4: 00 07 a2 83 lw	t0, 0(a5)
0x800032b8: 00 d2 de 63 bge	t0, a3, 0x800032d4
0x800032d4: 00 47 87 93 addi	a5, a5, 4
0x800032d8: fc f4 9e e3 bne	s1, a5, 0x800032b4
0x800032b4: 00 07 a2 83 lw	t0, 0(a5)
0x800032b8: 00 d2 de 63 bge	t0, a3, 0x800032d4
0x800032d4: 00 47 87 93 addi	a5, a5, 4
0x800032d8: fc f4 9e e3 bne	s1, a5, 0x800032b4
0x800032b4: 00 07 a2 83 lw	t0, 0(a5)
0x800032b8: 00 d2 de 63 bge	t0, a3, 0x800032d4
0x800032d4: 00 47 87 93 addi	a5, a5, 4
0x800032d8: fc f4 9e e3 bne	s1, a5, 0x800032b4
0x800032b4: 00 07 a2 83 lw	t0, 0(a5)
0x800032b8: 00 d2 de 63 bge	t0, a3, 0x800032d4
0x800032d4: 00 47 87 93 addi	a5, a5, 4
0x800032d8: fc f4 9e e3 bne	s1, a5, 0x800032b4
0x800032b4: 00 07 a2 83 lw	t0, 0(a5)
0x800032b8: 00 d2 de 63 bge	t0, a3, 0x800032d4
0x800032d4: 00 47 87 93 addi	a5, a5, 4
0x800032d8: fc f4 9e e3 bne	s1, a5, 0x800032b4
0x800032b4: 00 07 a2 83 lw	t0, 0(a5)
0x800032b8: 00 d2 de 63 bge	t0, a3, 0x800032d4
0x800032d4: 00 47 87 93 addi	a5, a5, 4
0x800032d8: fc f4 9e e3 bne	s1, a5, 0x800032b4
0x800032b4: 00 07 a2 83 lw	t0, 0(a5)
0x800032b8: 00 d2 de 63 bge	t0, a3, 0x800032d4
0x800032d4: 00 47 87 93 addi	a5, a5, 4
0x800032d8: fc f4 9e e3 bne	s1, a5, 0x800032b4
0x800032b4: 00 07 a2 83 lw	t0, 0(a5)
0x800032b8: 00 d2 de 63 bge	t0, a3, 0x800032d4
0x800032d4: 00 47 87 93 addi	a5, a5, 4
0x800032d8: fc f4 9e e3 bne	s1, a5, 0x800032b4
0x800032b4: 00 07 a2 83 lw	t0, 0(a5)
0x800032b8: 00 d2 de 63 bge	t0, a3, 0x800032d4
0x800032d4: 00 47 87 93 addi	a5, a5, 4
0x800032d8: fc f4 9e e3 bne	s1, a5, 0x800032b4
0x800032b4: 00 07 a2 83 lw	t0, 0(a5)
0x800032b8: 00 d2 de 63 bge	t0, a3, 0x800032d4
0x800032d4: 00 47 87 93 addi	a5, a5, 4
0x800032d8: fc f4 9e e3 bne	s1, a5, 0x800032b4
0x800032b4: 00 07 a2 83 lw	t0, 0(a5)
0x800032b8: 00 d2 de 63 bge	t0, a3, 0x800032d4
0x800032d4: 00 47 87 93 addi	a5, a5, 4
0x800032d8: fc f4 9e e3 bne	s1, a5, 0x800032b4
0x800032b4: 00 07 a2 83 lw	t0, 0(a5)
0x800032b8: 00 d2 de 63 bge	t0, a3, 0x800032d4
0x800032d4: 00 47 87 93 addi	a5, a5, 4
0x800032d8: fc f4 9e e3 bne	s1, a5, 0x800032b4
0x800032b4: 00 07 a2 83 lw	t0, 0(a5)
0x800032b8: 00 d2 de 63 bge	t0, a3, 0x800032d4
0x800032d4: 00 47 87 93 addi	a5, a5, 4
0x800032d8: fc f4 9e e3 bne	s1, a5, 0x800032b4
0x800032b4: 00 07 a2 83 lw	t0, 0(a5)
0x800032b8: 00 d2 de 63 bge	t0, a3, 0x800032d4
0x800032d4: 00 47 87 93 addi	a5, a5, 4
0x800032d8: fc f4 9e e3 bne	s1, a5, 0x800032b4
0x800032b4: 00 07 a2 83 lw	t0, 0(a5)
0x800032b8: 00 d2 de 63 bge	t0, a3, 0x800032d4
0x800032d4: 00 47 87 93 addi	a5, a5, 4
0x800032d8: fc f4 9e e3 bne	s1, a5, 0x800032b4
0x800032b4: 00 07 a2 83 lw	t0, 0(a5)
0x800032b8: 00 d2 de 63 bge	t0, a3, 0x800032d4
0x800032d4: 00 47 87 93 addi	a5, a5, 4
0x800032d8: fc f4 9e e3 bne	s1, a5, 0x800032b4
0x800032b4: 00 07 a2 83 lw	t0, 0(a5)
0x800032b8: 00 d2 de 63 bge	t0, a3, 0x800032d4
0x800032d4: 00 47 87 93 addi	a5, a5, 4
0x800032d8: fc f4 9e e3 bne	s1, a5, 0x800032b4
0x800032b4: 00 07 a2 83 lw	t0, 0(a5)
0x800032b8: 00 d2 de 63 bge	t0, a3, 0x800032d4
0x800032d4: 00 47 87 93 addi	a5, a5, 4
0x800032d8: fc f4 9e e3 bne	s1, a5, 0x800032b4
0x800032b4: 00 07 a2 83 lw	t0, 0(a5)
0x800032b8: 00 d2 de 63 bge	t0, a3, 0x800032d4
0x800032d4: 00 47 87 93 addi	a5, a5, 4
0x800032d8: fc f4 9e e3 bne	s1, a5, 0x800032b4
0x800032b4: 00 07 a2 83 lw	t0, 0(a5)
0x800032b8: 00 d2 de 63 bge	t0, a3, 0x800032d4
0x800032d4: 00 47 87 93 addi	a5, a5, 4
0x800032d8: fc f4 9e e3 bne	s1, a5, 0x800032b4
0x800032b4: 00 07 a2 83 lw	t0, 0(a5)
0x800032b8: 00 d2 de 63 bge	t0, a3, 0x800032d4
0x800032d4: 00 47 87 93 addi	a5, a5, 4
0x800032d8: fc f4 9e e3 bne	s1, a5, 0x800032b4
0x800032b4: 00 07 a2 83 lw	t0, 0(a5)
0x800032b8: 00 d2 de 63 bge	t0, a3, 0x800032d4
0x800032d4: 00 47 87 93 addi	a5, a5, 4
0x800032d8: fc f4 9e e3 bne	s1, a5, 0x800032b4
0x800032b4: 00 07 a2 83 lw	t0, 0(a5)
0x800032b8: 00 d2 de 63 bge	t0, a3, 0x800032d4
0x800032d4: 00 47 87 93 addi	a5, a5, 4
0x800032d8: fc f4 9e e3 bne	s1, a5, 0x800032b4
0x800032b4: 00 07 a2 83 lw	t0, 0(a5)
0x800032b8: 00 d2 de 63 bge	t0, a3, 0x800032d4
0x800032d4: 00 47 87 93 addi	a5, a5, 4
0x800032d8: fc f4 9e e3 bne	s1, a5, 0x800032b4
0x800032b4: 00 07 a2 83 lw	t0, 0(a5)
0x800032b8: 00 d2 de 63 bge	t0, a3, 0x800032d4
0x800032d4: 00 47 87 93 addi	a5, a5, 4
0x800032d8: fc f4 9e e3 bne	s1, a5, 0x800032b4
0x800032b4: 00 07 a2 83 lw	t0, 0(a5)
0x800032b8: 00 d2 de 63 bge	t0, a3, 0x800032d4
0x800032d4: 00 47 87 93 addi	a5, a5, 4
0x800032d8: fc f4 9e e3 bne	s1, a5, 0x800032b4
0x800032b4: 00 07 a2 83 lw	t0, 0(a5)
0x800032b8: 00 d2 de 63 bge	t0, a3, 0x800032d4
0x800032d4: 00 47 87 93 addi	a5, a5, 4
0x800032d8: fc f4 9e e3 bne	s1, a5, 0x800032b4
0x800032b4: 00 07 a2 83 lw	t0, 0(a5)
0x800032b8: 00 d2 de 63 bge	t0, a3, 0x800032d4
0x800032d4: 00 47 87 93 addi	a5, a5, 4
0x800032d8: fc f4 9e e3 bne	s1, a5, 0x800032b4
0x800032b4: 00 07 a2 83 lw	t0, 0(a5)
0x800032b8: 00 d2 de 63 bge	t0, a3, 0x800032d4
0x800032d4: 00 47 87 93 addi	a5, a5, 4
0x800032d8: fc f4 9e e3 bne	s1, a5, 0x800032b4
0x800032b4: 00 07 a2 83 lw	t0, 0(a5)
0x800032b8: 00 d2 de 63 bge	t0, a3, 0x800032d4
0x800032d4: 00 47 87 93 addi	a5, a5, 4
0x800032d8: fc f4 9e e3 bne	s1, a5, 0x800032b4
0x800032b4: 00 07 a2 83 lw	t0, 0(a5)
0x800032b8: 00 d2 de 63 bge	t0, a3, 0x800032d4
0x800032d4: 00 47 87 93 addi	a5, a5, 4
0x800032d8: fc f4 9e e3 bne	s1, a5, 0x800032b4
0x800032b4: 00 07 a2 83 lw	t0, 0(a5)
0x800032b8: 00 d2 de 63 bge	t0, a3, 0x800032d4
0x800032d4: 00 47 87 93 addi	a5, a5, 4
0x800032d8: fc f4 9e e3 bne	s1, a5, 0x800032b4
0x800032b4: 00 07 a2 83 lw	t0, 0(a5)
0x800032b8: 00 d2 de 63 bge	t0, a3, 0x800032d4
0x800032d4: 00 47 87 93 addi	a5, a5, 4
0x800032d8: fc f4 9e e3 bne	s1, a5, 0x800032b4
0x800032b4: 00 07 a2 83 lw	t0, 0(a5)
0x800032b8: 00 d2 de 63 bge	t0, a3, 0x800032d4
0x800032d4: 00 47 87 93 addi	a5, a5, 4
0x800032d8: fc f4 9e e3 bne	s1, a5, 0x800032b4
0x800032b4: 00 07 a2 83 lw	t0, 0(a5)
0x800032b8: 00 d2 de 63 bge	t0, a3, 0x800032d4
0x800032d4: 00 47 87 93 addi	a5, a5, 4
0x800032d8: fc f4 9e e3 bne	s1, a5, 0x800032b4
0x800032b4: 00 07 a2 83 lw	t0, 0(a5)
0x800032b8: 00 d2 de 63 bge	t0, a3, 0x800032d4
0x800032d4: 00 47 87 93 addi	a5, a5, 4
0x800032d8: fc f4 9e e3 bne	s1, a5, 0x800032b4
0x800032b4: 00 07 a2 83 lw	t0, 0(a5)
0x800032b8: 00 d2 de 63 bge	t0, a3, 0x800032d4
0x800032d4: 00 47 87 93 addi	a5, a5, 4
0x800032d8: fc f4 9e e3 bne	s1, a5, 0x800032b4
0x800032b4: 00 07 a2 83 lw	t0, 0(a5)
0x800032b8: 00 d2 de 63 bge	t0, a3, 0x800032d4
0x800032d4: 00 47 87 93 addi	a5, a5, 4
0x800032d8: fc f4 9e e3 bne	s1, a5, 0x800032b4
0x800032b4: 00 07 a2 83 lw	t0, 0(a5)
0x800032b8: 00 d2 de 63 bge	t0, a3, 0x800032d4
0x800032d4: 00 47 87 93 addi	a5, a5, 4
0x800032d8: fc f4 9e e3 bne	s1, a5, 0x800032b4
0x800032b4: 00 07 a2 83 lw	t0, 0(a5)
0x800032b8: 00 d2 de 63 bge	t0, a3, 0x800032d4
0x800032d4: 00 47 87 93 addi	a5, a5, 4
0x800032d8: fc f4 9e e3 bne	s1, a5, 0x800032b4
0x800032b4: 00 07 a2 83 lw	t0, 0(a5)
0x800032b8: 00 d2 de 63 bge	t0, a3, 0x800032d4
0x800032d4: 00 47 87 93 addi	a5, a5, 4
0x800032d8: fc f4 9e e3 bne	s1, a5, 0x800032b4
0x800032b4: 00 07 a2 83 lw	t0, 0(a5)
0x800032b8: 00 d2 de 63 bge	t0, a3, 0x800032d4
0x800032d4: 00 47 87 93 addi	a5, a5, 4
0x800032d8: fc f4 9e e3 bne	s1, a5, 0x800032b4
0x800032b4: 00 07 a2 83 lw	t0, 0(a5)
0x800032b8: 00 d2 de 63 bge	t0, a3, 0x800032d4
0x800032d4: 00 47 87 93 addi	a5, a5, 4
0x800032d8: fc f4 9e e3 bne	s1, a5, 0x800032b4
0x800032b4: 00 07 a2 83 lw	t0, 0(a5)
0x800032b8: 00 d2 de 63 bge	t0, a3, 0x800032d4
0x800032d4: 00 47 87 93 addi	a5, a5, 4
0x800032d8: fc f4 9e e3 bne	s1, a5, 0x800032b4
0x800032b4: 00 07 a2 83 lw	t0, 0(a5)
0x800032b8: 00 d2 de 63 bge	t0, a3, 0x800032d4
0x800032d4: 00 47 87 93 addi	a5, a5, 4
0x800032d8: fc f4 9e e3 bne	s1, a5, 0x800032b4
0x800032b4: 00 07 a2 83 lw	t0, 0(a5)
0x800032b8: 00 d2 de 63 bge	t0, a3, 0x800032d4
0x800032d4: 00 47 87 93 addi	a5, a5, 4
0x800032d8: fc f4 9e e3 bne	s1, a5, 0x800032b4
0x800032b4: 00 07 a2 83 lw	t0, 0(a5)
0x800032b8: 00 d2 de 63 bge	t0, a3, 0x800032d4
0x800032d4: 00 47 87 93 addi	a5, a5, 4
0x800032d8: fc f4 9e e3 bne	s1, a5, 0x800032b4
0x800032b4: 00 07 a2 83 lw	t0, 0(a5)
0x800032b8: 00 d2 de 63 bge	t0, a3, 0x800032d4
0x800032d4: 00 47 87 93 addi	a5, a5, 4
0x800032d8: fc f4 9e e3 bne	s1, a5, 0x800032b4
0x800032b4: 00 07 a2 83 lw	t0, 0(a5)
0x800032b8: 00 d2 de 63 bge	t0, a3, 0x800032d4
0x800032d4: 00 47 87 93 addi	a5, a5, 4
0x800032d8: fc f4 9e e3 bne	s1, a5, 0x800032b4
0x800032dc: 00 24 17 93 slli	a5, s0, 2
0x800032e0: 00 06 26 83 lw	a3, 0(a2)
0x800032e4: 00 f5 07 b3 add	a5, a0, a5
0x800032e8: 00 07 a7 03 lw	a4, 0(a5)
0x800032ec: 00 d7 a0 23 sw	a3, 0(a5)
0x800032f0: 00 61 22 23 sw	t1, 4(sp)
0x800032f4: 00 e6 20 23 sw	a4, 0(a2)
0x800032f8: 00 04 06 13 addi	a2, s0, 0
0x800032fc: 00 a1 20 23 sw	a0, 0(sp)
0x80003300: f7 5f f0 ef jal	ra, 0x80003274
0x80003274: 00 06 03 13 addi	t1, a2, 0
0x80003278: 0c c5 d6 63 bge	a1, a2, 0x80003344
0x80003344: 00 00 80 67 jalr	zero, 0(ra)
0x80003304: 00 41 23 03 lw	t1, 4(sp)
0x80003308: 00 14 05 93 addi	a1, s0, 1
0x8000330c: 00 01 25 03 lw	a0, 0(sp)
0x80003310: f8 65 c2 e3 blt	a1, t1, 0x80003294
0x80003294: 00 25 97 93 slli	a5, a1, 2
0x80003298: 00 f5 06 33 add	a2, a0, a5
0x8000329c: 00 15 87 13 addi	a4, a1, 1
0x800032a0: 00 06 26 83 lw	a3, 0(a2)
0x800032a4: 08 67 52 63 bge	a4, t1, 0x80003328
0x800032a8: 00 47 87 93 addi	a5, a5, 4
0x800032ac: 00 f5 07 b3 add	a5, a0, a5
0x800032b0: 00 05 84 13 addi	s0, a1, 0
0x800032b4: 00 07 a2 83 lw	t0, 0(a5)
0x800032b8: 00 d2 de 63 bge	t0, a3, 0x800032d4
0x800032d4: 00 47 87 93 addi	a5, a5, 4
0x800032d8: fc f4 9e e3 bne	s1, a5, 0x800032b4
0x800032b4: 00 07 a2 83 lw	t0, 0(a5)
0x800032b8: 00 d2 de 63 bge	t0, a3, 0x800032d4
0x800032d4: 00 47 87 93 addi	a5, a5, 4
0x800032d8: fc f4 9e e3 bne	s1, a5, 0x800032b4
0x800032b4: 00 07 a2 83 lw	t0, 0(a5)
0x800032b8: 00 d2 de 63 bge	t0, a3, 0x800032d4
0x800032d4: 00 47 87 93 addi	a5, a5, 4
0x800032d8: fc f4 9e e3 bne	s1, a5, 0x800032b4
0x800032b4: 00 07 a2 83 lw	t0, 0(a5)
0x800032b8: 00 d2 de 63 bge	t0, a3, 0x800032d4
0x800032bc: 00 14 04 13 addi	s0, s0, 1
0x800032c0: 00 24 17 13 slli	a4, s0, 2
0x800032c4: 00 e5 07 33 add	a4, a0, a4
0x800032c8: 00 07 23 83 lw	t2, 0(a4)
0x800032cc: 00 57 20 23 sw	t0, 0(a4)
0x800032d0: 00 77 a0 23 sw	t2, 0(a5)
0x800032d4: 00 47 87 93 addi	a5, a5, 4
0x800032d8: fc f4 9e e3 bne	s1, a5, 0x800032b4
0x800032b4: 00 07 a2 83 lw	t0, 0(a5)
0x800032b8: 00 d2 de 63 bge	t0, a3, 0x800032d4
0x800032d4: 00 47 87 93 addi	a5, a5, 4
0x800032d8: fc f4 9e e3 bne	s1, a5, 0x800032b4
0x800032b4: 00 07 a2 83 lw	t0, 0(a5)
0x800032b8: 00 d2 de 63 bge	t0, a3, 0x800032d4
0x800032d4: 00 47 87 93 addi	a5, a5, 4
0x800032d8: fc f4 9e e3 bne	s1, a5, 0x800032b4
0x800032b4: 00 07 a2 83 lw	t0, 0(a5)
0x800032b8: 00 d2 de 63 bge	t0, a3, 0x800032d4
0x800032bc: 00 14 04 13 addi	s0, s0, 1
0x800032c0: 00 24 17 13 slli	a4, s0, 2
0x800032c4: 00 e5 07 33 add	a4, a0, a4
0x800032c8: 00 07 23 83 lw	t2, 0(a4)
0x800032cc: 00 57 20 23 sw	t0, 0(a4)
0x800032d0: 00 77 a0 23 sw	t2, 0(a5)
0x800032d4: 00 47 87 93 addi	a5, a5, 4
0x800032d8: fc f4 9e e3 bne	s1, a5, 0x800032b4
0x800032b4: 00 07 a2 83 lw	t0, 0(a5)
0x800032b8: 00 d2 de 63 bge	t0, a3, 0x800032d4
0x800032bc: 00 14 04 13 addi	s0, s0, 1
0x800032c0: 00 24 17 13 slli	a4, s0, 2
0x800032c4: 00 e5 07 33 add	a4, a0, a4
0x800032c8: 00 07 23 83 lw	t2, 0(a4)
0x800032cc: 00 57 20 23 sw	t0, 0(a4)
0x800032d0: 00 77 a0 23 sw	t2, 0(a5)
0x800032d4: 00 47 87 93 addi	a5, a5, 4
0x800032d8: fc f4 9e e3 bne	s1, a5, 0x800032b4
0x800032b4: 00 07 a2 83 lw	t0, 0(a5)
0x800032b8: 00 d2 de 63 bge	t0, a3, 0x800032d4
0x800032d4: 00 47 87 93 addi	a5, a5, 4
0x800032d8: fc f4 9e e3 bne	s1, a5, 0x800032b4
0x800032b4: 00 07 a2 83 lw	t0, 0(a5)
0x800032b8: 00 d2 de 63 bge	t0, a3, 0x800032d4
0x800032bc: 00 14 04 13 addi	s0, s0, 1
0x800032c0: 00 24 17 13 slli	a4, s0, 2
0x800032c4: 00 e5 07 33 add	a4, a0, a4
0x800032c8: 00 07 23 83 lw	t2, 0(a4)
0x800032cc: 00 57 20 23 sw	t0, 0(a4)
0x800032d0: 00 77 a0 23 sw	t2, 0(a5)
0x800032d4: 00 47 87 93 addi	a5, a5, 4
0x800032d8: fc f4 9e e3 bne	s1, a5, 0x800032b4
0x800032b4: 00 07 a2 83 lw	t0, 0(a5)
0x800032b8: 00 d2 de 63 bge	t0, a3, 0x800032d4
0x800032bc: 00 14 04 13 addi	s0, s0, 1
0x800032c0: 00 24 17 13 slli	a4, s0, 2
0x800032c4: 00 e5 07 33 add	a4, a0, a4
0x800032c8: 00 07 23 83 lw	t2, 0(a4)
0x800032cc: 00 57 20 23 sw	t0, 0(a4)
0x800032d0: 00 77 a0 23 sw	t2, 0(a5)
0x800032d4: 00 47 87 93 addi	a5, a5, 4
0x800032d8: fc f4 9e e3 bne	s1, a5, 0x800032b4
0x800032b4: 00 07 a2 83 lw	t0, 0(a5)
0x800032b8: 00 d2 de 63 bge	t0, a3, 0x800032d4
0x800032d4: 00 47 87 93 addi	a5, a5, 4
0x800032d8: fc f4 9e e3 bne	s1, a5, 0x800032b4
0x800032b4: 00 07 a2 83 lw	t0, 0(a5)
0x800032b8: 00 d2 de 63 bge	t0, a3, 0x800032d4
0x800032d4: 00 47 87 93 addi	a5, a5, 4
0x800032d8: fc f4 9e e3 bne	s1, a5, 0x800032b4
0x800032b4: 00 07 a2 83 lw	t0, 0(a5)
0x800032b8: 00 d2 de 63 bge	t0, a3, 0x800032d4
0x800032bc: 00 14 04 13 addi	s0, s0, 1
0x800032c0: 00 24 17 13 slli	a4, s0, 2
0x800032c4: 00 e5 07 33 add	a4, a0, a4
0x800032c8: 00 07 23 83 lw	t2, 0(a4)
0x800032cc: 00 57 20 23 sw	t0, 0(a4)
0x800032d0: 00 77 a0 23 sw	t2, 0(a5)
0x800032d4: 00 47 87 93 addi	a5, a5, 4
0x800032d8: fc f4 9e e3 bne	s1, a5, 0x800032b4
0x800032b4: 00 07 a2 83 lw	t0, 0(a5)
0x800032b8: 00 d2 de 63 bge	t0, a3, 0x800032d4
0x800032d4: 00 47 87 93 addi	a5, a5, 4
0x800032d8: fc f4 9e e3 bne	s1, a5, 0x800032b4
0x800032b4: 00 07 a2 83 lw	t0, 0(a5)
0x800032b8: 00 d2 de 63 bge	t0, a3, 0x800032d4
0x800032bc: 00 14 04 13 addi	s0, s0, 1
0x800032c0: 00 24 17 13 slli	a4, s0, 2
0x800032c4: 00 e5 07 33 add	a4, a0, a4
0x800032c8: 00 07 23 83 lw	t2, 0(a4)
0x800032cc: 00 57 20 23 sw	t0, 0(a4)
0x800032d0: 00 77 a0 23 sw	t2, 0(a5)
0x800032d4: 00 47 87 93 addi	a5, a5, 4
0x800032d8: fc f4 9e e3 bne	s1, a5, 0x800032b4
0x800032b4: 00 07 a2 83 lw	t0, 0(a5)
0x800032b8: 00 d2 de 63 bge	t0, a3, 0x800032d4
0x800032d4: 00 47 87 93 addi	a5, a5, 4
0x800032d8: fc f4 9e e3 bne	s1, a5, 0x800032b4
0x800032b4: 00 07 a2 83 lw	t0, 0(a5)
0x800032b8: 00 d2 de 63 bge	t0, a3, 0x800032d4
0x800032d4: 00 47 87 93 addi	a5, a5, 4
0x800032d8: fc f4 9e e3 bne	s1, a5, 0x800032b4
0x800032b4: 00 07 a2 83 lw	t0, 0(a5)
0x800032b8: 00 d2 de 63 bge	t0, a3, 0x800032d4
0x800032d4: 00 47 87 93 addi	a5, a5, 4
0x800032d8: fc f4 9e e3 bne	s1, a5, 0x800032b4
0x800032b4: 00 07 a2 83 lw	t0, 0(a5)
0x800032b8: 00 d2 de 63 bge	t0, a3, 0x800032d4
0x800032d4: 00 47 87 93 addi	a5, a5, 4
0x800032d8: fc f4 9e e3 bne	s1, a5, 0x800032b4
0x800032b4: 00 07 a2 83 lw	t0, 0(a5)
0x800032b8: 00 d2 de 63 bge	t0, a3, 0x800032d4
0x800032d4: 00 47 87 93 addi	a5, a5, 4
0x800032d8: fc f4 9e e3 bne	s1, a5, 0x800032b4
0x800032b4: 00 07 a2 83 lw	t0, 0(a5)
0x800032b8: 00 d2 de 63 bge	t0, a3, 0x800032d4
0x800032d4: 00 47 87 93 addi	a5, a5, 4
0x800032d8: fc f4 9e e3 bne	s1, a5, 0x800032b4
0x800032b4: 00 07 a2 83 lw	t0, 0(a5)
0x800032b8: 00 d2 de 63 bge	t0, a3, 0x800032d4
0x800032d4: 00 47 87 93 addi	a5, a5, 4
0x800032d8: fc f4 9e e3 bne	s1, a5, 0x800032b4
0x800032b4: 00 07 a2 83 lw	t0, 0(a5)
0x800032b8: 00 d2 de 63 bge	t0, a3, 0x800032d4
0x800032d4: 00 47 87 93 addi	a5, a5, 4
0x800032d8: fc f4 9e e3 bne	s1, a5, 0x800032b4
0x800032b4: 00 07 a2 83 lw	t0, 0(a5)
0x800032b8: 00 d2 de 63 bge	t0, a3, 0x800032d4
0x800032d4: 00 47 87 93 addi	a5, a5, 4
0x800032d8: fc f4 9e e3 bne	s1, a5, 0x800032b4
0x800032b4: 00 07 a2 83 lw	t0, 0(a5)
0x800032b8: 00 d2 de 63 bge	t0, a3, 0x800032d4
0x800032d4: 00 47 87 93 addi	a5, a5, 4
0x800032d8: fc f4 9e e3 bne	s1, a5, 0x800032b4
0x800032b4: 00 07 a2 83 lw	t0, 0(a5)
0x800032b8: 00 d2 de 63 bge	t0, a3, 0x800032d4
0x800032d4: 00 47 87 93 addi	a5, a5, 4
0x800032d8: fc f4 9e e3 bne	s1, a5, 0x800032b4
0x800032b4: 00 07 a2 83 lw	t0, 0(a5)
0x800032b8: 00 d2 de 63 bge	t0, a3, 0x800032d4
0x800032d4: 00 47 87 93 addi	a5, a5, 4
0x800032d8: fc f4 9e e3 bne	s1, a5, 0x800032b4
0x800032b4: 00 07 a2 83 lw	t0, 0(a5)
0x800032b8: 00 d2 de 63 bge	t0, a3, 0x800032d4
0x800032d4: 00 47 87 93 addi	a5, a5, 4
0x800032d8: fc f4 9e e3 bne	s1, a5, 0x800032b4
0x800032b4: 00 07 a2 83 lw	t0, 0(a5)
0x800032b8: 00 d2 de 63 bge	t0, a3, 0x800032d4
0x800032d4: 00 47 87 93 addi	a5, a5, 4
0x800032d8: fc f4 9e e3 bne	s1, a5, 0x800032b4
0x800032b4: 00 07 a2 83 lw	t0, 0(a5)
0x800032b8: 00 d2 de 63 bge	t0, a3, 0x800032d4
0x800032bc: 00 14 04 13 addi	s0, s0, 1
0x800032c0: 00 24 17 13 slli	a4, s0, 2
0x800032c4: 00 e5 07 33 add	a4, a0, a4
0x800032c8: 00 07 23 83 lw	t2, 0(a4)
0x800032cc: 00 57 20 23 sw	t0, 0(a4)
0x800032d0: 00 77 a0 23 sw	t2, 0(a5)
0x800032d4: 00 47 87 93 addi	a5, a5, 4
0x800032d8: fc f4 9e e3 bne	s1, a5, 0x800032b4
0x800032b4: 00 07 a2 83 lw	t0, 0(a5)
0x800032b8: 00 d2 de 63 bge	t0, a3, 0x800032d4
0x800032d4: 00 47 87 93 addi	a5, a5, 4
0x800032d8: fc f4 9e e3 bne	s1, a5, 0x800032b4
0x800032b4: 00 07 a2 83 lw	t0, 0(a5)
0x800032b8: 00 d2 de 63 bge	t0, a3, 0x800032d4
0x800032d4: 00 47 87 93 addi	a5, a5, 4
0x800032d8: fc f4 9e e3 bne	s1, a5, 0x800032b4
0x800032b4: 00 07 a2 83 lw	t0, 0(a5)
0x800032b8: 00 d2 de 63 bge	t0, a3, 0x800032d4
0x800032d4: 00 47 87 93 addi	a5, a5, 4
0x800032d8: fc f4 9e e3 bne	s1, a5, 0x800032b4
0x800032b4: 00 07 a2 83 lw	t0, 0(a5)
0x800032b8: 00 d2 de 63 bge	t0, a3, 0x800032d4
0x800032d4: 00 47 87 93 addi	a5, a5, 4
0x800032d8: fc f4 9e e3 bne	s1, a5, 0x800032b4
0x800032b4: 00 07 a2 83 lw	t0, 0(a5)
0x800032b8: 00 d2 de 63 bge	t0, a3, 0x800032d4
0x800032d4: 00 47 87 93 addi	a5, a5, 4
0x800032d8: fc f4 9e e3 bne	s1, a5, 0x800032b4
0x800032b4: 00 07 a2 83 lw	t0, 0(a5)
0x800032b8: 00 d2 de 63 bge	t0, a3, 0x800032d4
0x800032d4: 00 47 87 93 addi	a5, a5, 4
0x800032d8: fc f4 9e e3 bne	s1, a5, 0x800032b4
0x800032b4: 00 07 a2 83 lw	t0, 0(a5)
0x800032b8: 00 d2 de 63 bge	t0, a3, 0x800032d4
0x800032d4: 00 47 87 93 addi	a5, a5, 4
0x800032d8: fc f4 9e e3 bne	s1, a5, 0x800032b4
0x800032b4: 00 07 a2 83 lw	t0, 0(a5)
0x800032b8: 00 d2 de 63 bge	t0, a3, 0x800032d4
0x800032d4: 00 47 87 93 addi	a5, a5, 4
0x800032d8: fc f4 9e e3 bne	s1, a5, 0x800032b4
0x800032b4: 00 07 a2 83 lw	t0, 0(a5)
0x800032b8: 00 d2 de 63 bge	t0, a3, 0x800032d4
0x800032d4: 00 47 87 93 addi	a5, a5, 4
0x800032d8: fc f4 9e e3 bne	s1, a5, 0x800032b4
0x800032b4: 00 07 a2 83 lw	t0, 0(a5)
0x800032b8: 00 d2 de 63 bge	t0, a3, 0x800032d4
0x800032d4: 00 47 87 93 addi	a5, a5, 4
0x800032d8: fc f4 9e e3 bne	s1, a5, 0x800032b4
0x800032b4: 00 07 a2 83 lw	t0, 0(a5)
0x800032b8: 00 d2 de 63 bge	t0, a3, 0x800032d4
0x800032bc: 00 14 04 13 addi	s0, s0, 1
0x800032c0: 00 24 17 13 slli	a4, s0, 2
0x800032c4: 00 e5 07 33 add	a4, a0, a4
0x800032c8: 00 07 23 83 lw	t2, 0(a4)
0x800032cc: 00 57 20 23 sw	t0, 0(a4)
0x800032d0: 00 77 a0 23 sw	t2, 0(a5)
0x800032d4: 00 47 87 93 addi	a5, a5, 4
0x800032d8: fc f4 9e e3 bne	s1, a5, 0x800032b4
0x800032b4: 00 07 a2 83 lw	t0, 0(a5)
0x800032b8: 00 d2 de 63 bge	t0, a3, 0x800032d4
0x800032d4: 00 47 87 93 addi	a5, a5, 4
0x800032d8: fc f4 9e e3 bne	s1, a5, 0x800032b4
0x800032b4: 00 07 a2 83 lw	t0, 0(a5)
0x800032b8: 00 d2 de 63 bge	t0, a3, 0x800032d4
0x800032d4: 00 47 87 93 addi	a5, a5, 4
0x800032d8: fc f4 9e e3 bne	s1, a5, 0x800032b4
0x800032b4: 00 07 a2 83 lw	t0, 0(a5)
0x800032b8: 00 d2 de 63 bge	t0, a3, 0x800032d4
0x800032d4: 00 47 87 93 addi	a5, a5, 4
0x800032d8: fc f4 9e e3 bne	s1, a5, 0x800032b4
0x800032b4: 00 07 a2 83 lw	t0, 0(a5)
0x800032b8: 00 d2 de 63 bge	t0, a3, 0x800032d4
0x800032bc: 00 14 04 13 addi	s0, s0, 1
0x800032c0: 00 24 17 13 slli	a4, s0, 2
0x800032c4: 00 e5 07 33 add	a4, a0, a4
0x800032c8: 00 07 23 83 lw	t2, 0(a4)
0x800032cc: 00 57 20 23 sw	t0, 0(a4)
0x800032d0: 00 77 a0 23 sw	t2, 0(a5)
0x800032d4: 00 47 87 93 addi	a5, a5, 4
0x800032d8: fc f4 9e e3 bne	s1, a5, 0x800032b4
0x800032b4: 00 07 a2 83 lw	t0, 0(a5)
0x800032b8: 00 d2 de 63 bge	t0, a3, 0x800032d4
0x800032d4: 00 47 87 93 addi	a5, a5, 4
0x800032d8: fc f4 9e e3 bne	s1, a5, 0x800032b4
0x800032b4: 00 07 a2 83 lw	t0, 0(a5)
0x800032b8: 00 d2 de 63 bge	t0, a3, 0x800032d4
0x800032d4: 00 47 87 93 addi	a5, a5, 4
0x800032d8: fc f4 9e e3 bne	s1, a5, 0x800032b4
0x800032b4: 00 07 a2 83 lw	t0, 0(a5)
0x800032b8: 00 d2 de 63 bge	t0, a3, 0x800032d4
0x800032bc: 00 14 04 13 addi	s0, s0, 1
0x800032c0: 00 24 17 13 slli	a4, s0, 2
0x800032c4: 00 e5 07 33 add	a4, a0, a4
0x800032c8: 00 07 23 83 lw	t2, 0(a4)
0x800032cc: 00 57 20 23 sw	t0, 0(a4)
0x800032d0: 00 77 a0 23 sw	t2, 0(a5)
0x800032d4: 00 47 87 93 addi	a5, a5, 4
0x800032d8: fc f4 9e e3 bne	s1, a5, 0x800032b4
0x800032b4: 00 07 a2 83 lw	t0, 0(a5)
0x800032b8: 00 d2 de 63 bge	t0, a3, 0x800032d4
0x800032bc: 00 14 04 13 addi	s0, s0, 1
0x800032c0: 00 24 17 13 slli	a4, s0, 2
0x800032c4: 00 e5 07 33 add	a4, a0, a4
0x800032c8: 00 07 23 83 lw	t2, 0(a4)
0x800032cc: 00 57 20 23 sw	t0, 0(a4)
0x800032d0: 00 77 a0 23 sw	t2, 0(a5)
0x800032d4: 00 47 87 93 addi	a5, a5, 4
0x800032d8: fc f4 9e e3 bne	s1, a5, 0x800032b4
0x800032b4: 00 07 a2 83 lw	t0, 0(a5)
0x800032b8: 00 d2 de 63 bge	t0, a3, 0x800032d4
0x800032d4: 00 47 87 93 addi	a5, a5, 4
0x800032d8: fc f4 9e e3 bne	s1, a5, 0x800032b4
0x800032b4: 00 07 a2 83 lw	t0, 0(a5)
0x800032b8: 00 d2 de 63 bge	t0, a3, 0x800032d4
0x800032d4: 00 47 87 93 addi	a5, a5, 4
0x800032d8: fc f4 9e e3 bne	s1, a5, 0x800032b4
0x800032b4: 00 07 a2 83 lw	t0, 0(a5)
0x800032b8: 00 d2 de 63 bge	t0, a3, 0x800032d4
0x800032d4: 00 47 87 93 addi	a5, a5, 4
0x800032d8: fc f4 9e e3 bne	s1, a5, 0x800032b4
0x800032b4: 00 07 a2 83 lw	t0, 0(a5)
0x800032b8: 00 d2 de 63 bge	t0, a3, 0x800032d4
0x800032bc: 00 14 04 13 addi	s0, s0, 1
0x800032c0: 00 24 17 13 slli	a4, s0, 2
0x800032c4: 00 e5 07 33 add	a4, a0, a4
0x800032c8: 00 07 23 83 lw	t2, 0(a4)
0x800032cc: 00 57 20 23 sw	t0, 0(a4)
0x800032d0: 00 77 a0 23 sw	t2, 0(a5)
0x800032d4: 00 47 87 93 addi	a5, a5, 4
0x800032d8: fc f4 9e e3 bne	s1, a5, 0x800032b4
0x800032b4: 00 07 a2 83 lw	t0, 0(a5)
0x800032b8: 00 d2 de 63 bge	t0, a3, 0x800032d4
0x800032d4: 00 47 87 93 addi	a5, a5, 4
0x800032d8: fc f4 9e e3 bne	s1, a5, 0x800032b4
0x800032b4: 00 07 a2 83 lw	t0, 0(a5)
0x800032b8: 00 d2 de 63 bge	t0, a3, 0x800032d4
0x800032bc: 00 14 04 13 addi	s0, s0, 1
0x800032c0: 00 24 17 13 slli	a4, s0, 2
0x800032c4: 00 e5 07 33 add	a4, a0, a4
0x800032c8: 00 07 23 83 lw	t2, 0(a4)
0x800032cc: 00 57 20 23 sw	t0, 0(a4)
0x800032d0: 00 77 a0 23 sw	t2, 0(a5)
0x800032d4: 00 47 87 93 addi	a5, a5, 4
0x800032d8: fc f4 9e e3 bne	s1, a5, 0x800032b4
0x800032b4: 00 07 a2 83 lw	t0, 0(a5)
0x800032b8: 00 d2 de 63 bge	t0, a3, 0x800032d4
0x800032d4: 00 47 87 93 addi	a5, a5, 4
0x800032d8: fc f4 9e e3 bne	s1, a5, 0x800032b4
0x800032b4: 00 07 a2 83 lw	t0, 0(a5)
0x800032b8: 00 d2 de 63 bge	t0, a3, 0x800032d4
0x800032bc: 00 14 04 13 addi	s0, s0, 1
0x800032c0: 00 24 17 13 slli	a4, s0, 2
0x800032c4: 00 e5 07 33 add	a4, a0, a4
0x800032c8: 00 07 23 83 lw	t2, 0(a4)
0x800032cc: 00 57 20 23 sw	t0, 0(a4)
0x800032d0: 00 77 a0 23 sw	t2, 0(a5)
0x800032d4: 00 47 87 93 addi	a5, a5, 4
0x800032d8: fc f4 9e e3 bne	s1, a5, 0x800032b4
0x800032b4: 00 07 a2 83 lw	t0, 0(a5)
0x800032b8: 00 d2 de 63 bge	t0, a3, 0x800032d4
0x800032d4: 00 47 87 93 addi	a5, a5, 4
0x800032d8: fc f4 9e e3 bne	s1, a5, 0x800032b4
0x800032b4: 00 07 a2 83 lw	t0, 0(a5)
0x800032b8: 00 d2 de 63 bge	t0, a3, 0x800032d4
0x800032d4: 00 47 87 93 addi	a5, a5, 4
0x800032d8: fc f4 9e e3 bne	s1, a5, 0x800032b4
0x800032b4: 00 07 a2 83 lw	t0, 0(a5)
0x800032b8: 00 d2 de 63 bge	t0, a3, 0x800032d4
0x800032d4: 00 47 87 93 addi	a5, a5, 4
0x800032d8: fc f4 9e e3 bne	s1, a5, 0x800032b4
0x800032b4: 00 07 a2 83 lw	t0, 0(a5)
0x800032b8: 00 d2 de 63 bge	t0, a3, 0x800032d4
0x800032d4: 00 47 87 93 addi	a5, a5, 4
0x800032d8: fc f4 9e e3 bne	s1, a5, 0x800032b4
0x800032b4: 00 07 a2 83 lw	t0, 0(a5)
0x800032b8: 00 d2 de 63 bge	t0, a3, 0x800032d4
0x800032bc: 00 14 04 13 addi	s0, s0, 1
0x800032c0: 00 24 17 13 slli	a4, s0, 2
0x800032c4: 00 e5 07 33 add	a4, a0, a4
0x800032c8: 00 07 23 83 lw	t2, 0(a4)
0x800032cc: 00 57 20 23 sw	t0, 0(a4)
0x800032d0: 00 77 a0 23 sw	t2, 0(a5)
0x800032d4: 00 47 87 93 addi	a5, a5, 4
0x800032d8: fc f4 9e e3 bne	s1, a5, 0x800032b4
0x800032b4: 00 07 a2 83 lw	t0, 0(a5)
0x800032b8: 00 d2 de 63 bge	t0, a3, 0x800032d4
0x800032d4: 00 47 87 93 addi	a5, a5, 4
0x800032d8: fc f4 9e e3 bne	s1, a5, 0x800032b4
0x800032b4: 00 07 a2 83 lw	t0, 0(a5)
0x800032b8: 00 d2 de 63 bge	t0, a3, 0x800032d4
0x800032d4: 00 47 87 93 addi	a5, a5, 4
0x800032d8: fc f4 9e e3 bne	s1, a5, 0x800032b4
0x800032b4: 00 07 a2 83 lw	t0, 0(a5)
0x800032b8: 00 d2 de 63 bge	t0, a3, 0x800032d4
0x800032d4: 00 47 87 93 addi	a5, a5, 4
0x800032d8: fc f4 9e e3 bne	s1, a5, 0x800032b4
0x800032b4: 00 07 a2 83 lw	t0, 0(a5)
0x800032b8: 00 d2 de 63 bge	t0, a3, 0x800032d4
0x800032d4: 00 47 87 93 addi	a5, a5, 4
0x800032d8: fc f4 9e e3 bne	s1, a5, 0x800032b4
0x800032b4: 00 07 a2 83 lw	t0, 0(a5)
0x800032b8: 00 d2 de 63 bge	t0, a3, 0x800032d4
0x800032d4: 00 47 87 93 addi	a5, a5, 4
0x800032d8: fc f4 9e e3 bne	s1, a5, 0x800032b4
0x800032b4: 00 07 a2 83 lw	t0, 0(a5)
0x800032b8: 00 d2 de 63 bge	t0, a3, 0x800032d4
0x800032d4: 00 47 87 93 addi	a5, a5, 4
0x800032d8: fc f4 9e e3 bne	s1, a5, 0x800032b4
0x800032b4: 00 07 a2 83 lw	t0, 0(a5)
0x800032b8: 00 d2 de 63 bge	t0, a3, 0x800032d4
0x800032d4: 00 47 87 93 addi	a5, a5, 4
0x800032d8: fc f4 9e e3 bne	s1, a5, 0x800032b4
0x800032b4: 00 07 a2 83 lw	t0, 0(a5)
0x800032b8: 00 d2 de 63 bge	t0, a3, 0x800032d4
0x800032d4: 00 47 87 93 addi	a5, a5, 4
0x800032d8: fc f4 9e e3 bne	s1, a5, 0x800032b4
0x800032b4: 00 07 a2 83 lw	t0, 0(a5)
0x800032b8: 00 d2 de 63 bge	t0, a3, 0x800032d4
0x800032d4: 00 47 87 93 addi	a5, a5, 4
0x800032d8: fc f4 9e e3 bne	s1, a5, 0x800032b4
0x800032b4: 00 07 a2 83 lw	t0, 0(a5)
0x800032b8: 00 d2 de 63 bge	t0, a3, 0x800032d4
0x800032d4: 00 47 87 93 addi	a5, a5, 4
0x800032d8: fc f4 9e e3 bne	s1, a5, 0x800032b4
0x800032b4: 00 07 a2 83 lw	t0, 0(a5)
0x800032b8: 00 d2 de 63 bge	t0, a3, 0x800032d4
0x800032d4: 00 47 87 93 addi	a5, a5, 4
0x800032d8: fc f4 9e e3 bne	s1, a5, 0x800032b4
0x800032b4: 00 07 a2 83 lw	t0, 0(a5)
0x800032b8: 00 d2 de 63 bge	t0, a3, 0x800032d4
0x800032d4: 00 47 87 93 addi	a5, a5, 4
0x800032d8: fc f4 9e e3 bne	s1, a5, 0x800032b4
0x800032b4: 00 07 a2 83 lw	t0, 0(a5)
0x800032b8: 00 d2 de 63 bge	t0, a3, 0x800032d4
0x800032d4: 00 47 87 93 addi	a5, a5, 4
0x800032d8: fc f4 9e e3 bne	s1, a5, 0x800032b4
0x800032b4: 00 07 a2 83 lw	t0, 0(a5)
0x800032b8: 00 d2 de 63 bge	t0, a3, 0x800032d4
0x800032bc: 00 14 04 13 addi	s0, s0, 1
0x800032c0: 00 24 17 13 slli	a4, s0, 2
0x800032c4: 00 e5 07 33 add	a4, a0, a4
0x800032c8: 00 07 23 83 lw	t2, 0(a4)
0x800032cc: 00 57 20 23 sw	t0, 0(a4)
0x800032d0: 00 77 a0 23 sw	t2, 0(a5)
0x800032d4: 00 47 87 93 addi	a5, a5, 4
0x800032d8: fc f4 9e e3 bne	s1, a5, 0x800032b4
0x800032b4: 00 07 a2 83 lw	t0, 0(a5)
0x800032b8: 00 d2 de 63 bge	t0, a3, 0x800032d4
0x800032d4: 00 47 87 93 addi	a5, a5, 4
0x800032d8: fc f4 9e e3 bne	s1, a5, 0x800032b4
0x800032b4: 00 07 a2 83 lw	t0, 0(a5)
0x800032b8: 00 d2 de 63 bge	t0, a3, 0x800032d4
0x800032d4: 00 47 87 93 addi	a5, a5, 4
0x800032d8: fc f4 9e e3 bne	s1, a5, 0x800032b4
0x800032b4: 00 07 a2 83 lw	t0, 0(a5)
0x800032b8: 00 d2 de 63 bge	t0, a3, 0x800032d4
0x800032d4: 00 47 87 93 addi	a5, a5, 4
0x800032d8: fc f4 9e e3 bne	s1, a5, 0x800032b4
0x800032b4: 00 07 a2 83 lw	t0, 0(a5)
0x800032b8: 00 d2 de 63 bge	t0, a3, 0x800032d4
0x800032d4: 00 47 87 93 addi	a5, a5, 4
0x800032d8: fc f4 9e e3 bne	s1, a5, 0x800032b4
0x800032b4: 00 07 a2 83 lw	t0, 0(a5)
0x800032b8: 00 d2 de 63 bge	t0, a3, 0x800032d4
0x800032d4: 00 47 87 93 addi	a5, a5, 4
0x800032d8: fc f4 9e e3 bne	s1, a5, 0x800032b4
0x800032b4: 00 07 a2 83 lw	t0, 0(a5)
0x800032b8: 00 d2 de 63 bge	t0, a3, 0x800032d4
0x800032bc: 00 14 04 13 addi	s0, s0, 1
0x800032c0: 00 24 17 13 slli	a4, s0, 2
0x800032c4: 00 e5 07 33 add	a4, a0, a4
0x800032c8: 00 07 23 83 lw	t2, 0(a4)
0x800032cc: 00 57 20 23 sw	t0, 0(a4)
0x800032d0: 00 77 a0 23 sw	t2, 0(a5)
0x800032d4: 00 47 87 93 addi	a5, a5, 4
0x800032d8: fc f4 9e e3 bne	s1, a5, 0x800032b4
0x800032b4: 00 07 a2 83 lw	t0, 0(a5)
0x800032b8: 00 d2 de 63 bge	t0, a3, 0x800032d4
0x800032d4: 00 47 87 93 addi	a5, a5, 4
0x800032d8: fc f4 9e e3 bne	s1, a5, 0x800032b4
0x800032b4: 00 07 a2 83 lw	t0, 0(a5)
0x800032b8: 00 d2 de 63 bge	t0, a3, 0x800032d4
0x800032d4: 00 47 87 93 addi	a5, a5, 4
0x800032d8: fc f4 9e e3 bne	s1, a5, 0x800032b4
0x800032b4: 00 07 a2 83 lw	t0, 0(a5)
0x800032b8: 00 d2 de 63 bge	t0, a3, 0x800032d4
0x800032bc: 00 14 04 13 addi	s0, s0, 1
0x800032c0: 00 24 17 13 slli	a4, s0, 2
0x800032c4: 00 e5 07 33 add	a4, a0, a4
0x800032c8: 00 07 23 83 lw	t2, 0(a4)
0x800032cc: 00 57 20 23 sw	t0, 0(a4)
0x800032d0: 00 77 a0 23 sw	t2, 0(a5)
0x800032d4: 00 47 87 93 addi	a5, a5, 4
0x800032d8: fc f4 9e e3 bne	s1, a5, 0x800032b4
0x800032b4: 00 07 a2 83 lw	t0, 0(a5)
0x800032b8: 00 d2 de 63 bge	t0, a3, 0x800032d4
0x800032d4: 00 47 87 93 addi	a5, a5, 4
0x800032d8: fc f4 9e e3 bne	s1, a5, 0x800032b4
0x800032b4: 00 07 a2 83 lw	t0, 0(a5)
0x800032b8: 00 d2 de 63 bge	t0, a3, 0x800032d4
0x800032d4: 00 47 87 93 addi	a5, a5, 4
0x800032d8: fc f4 9e e3 bne	s1, a5, 0x800032b4
0x800032b4: 00 07 a2 83 lw	t0, 0(a5)
0x800032b8: 00 d2 de 63 bge	t0, a3, 0x800032d4
0x800032d4: 00 47 87 93 addi	a5, a5, 4
0x800032d8: fc f4 9e e3 bne	s1, a5, 0x800032b4
0x800032b4: 00 07 a2 83 lw	t0, 0(a5)
0x800032b8: 00 d2 de 63 bge	t0, a3, 0x800032d4
0x800032bc: 00 14 04 13 addi	s0, s0, 1
0x800032c0: 00 24 17 13 slli	a4, s0, 2
0x800032c4: 00 e5 07 33 add	a4, a0, a4
0x800032c8: 00 07 23 83 lw	t2, 0(a4)
0x800032cc: 00 57 20 23 sw	t0, 0(a4)
0x800032d0: 00 77 a0 23 sw	t2, 0(a5)
0x800032d4: 00 47 87 93 addi	a5, a5, 4
0x800032d8: fc f4 9e e3 bne	s1, a5, 0x800032b4
0x800032b4: 00 07 a2 83 lw	t0, 0(a5)
0x800032b8: 00 d2 de 63 bge	t0, a3, 0x800032d4
0x800032d4: 00 47 87 93 addi	a5, a5, 4
0x800032d8: fc f4 9e e3 bne	s1, a5, 0x800032b4
0x800032b4: 00 07 a2 83 lw	t0, 0(a5)
0x800032b8: 00 d2 de 63 bge	t0, a3, 0x800032d4
0x800032d4: 00 47 87 93 addi	a5, a5, 4
0x800032d8: fc f4 9e e3 bne	s1, a5, 0x800032b4
0x800032b4: 00 07 a2 83 lw	t0, 0(a5)
0x800032b8: 00 d2 de 63 bge	t0, a3, 0x800032d4
0x800032d4: 00 47 87 93 addi	a5, a5, 4
0x800032d8: fc f4 9e e3 bne	s1, a5, 0x800032b4
0x800032b4: 00 07 a2 83 lw	t0, 0(a5)
0x800032b8: 00 d2 de 63 bge	t0, a3, 0x800032d4
0x800032bc: 00 14 04 13 addi	s0, s0, 1
0x800032c0: 00 24 17 13 slli	a4, s0, 2
0x800032c4: 00 e5 07 33 add	a4, a0, a4
0x800032c8: 00 07 23 83 lw	t2, 0(a4)
0x800032cc: 00 57 20 23 sw	t0, 0(a4)
0x800032d0: 00 77 a0 23 sw	t2, 0(a5)
0x800032d4: 00 47 87 93 addi	a5, a5, 4
0x800032d8: fc f4 9e e3 bne	s1, a5, 0x800032b4
0x800032b4: 00 07 a2 83 lw	t0, 0(a5)
0x800032b8: 00 d2 de 63 bge	t0, a3, 0x800032d4
0x800032d4: 00 47 87 93 addi	a5, a5, 4
0x800032d8: fc f4 9e e3 bne	s1, a5, 0x800032b4
0x800032b4: 00 07 a2 83 lw	t0, 0(a5)
0x800032b8: 00 d2 de 63 bge	t0, a3, 0x800032d4
0x800032d4: 00 47 87 93 addi	a5, a5, 4
0x800032d8: fc f4 9e e3 bne	s1, a5, 0x800032b4
0x800032b4: 00 07 a2 83 lw	t0, 0(a5)
0x800032b8: 00 d2 de 63 bge	t0, a3, 0x800032d4
0x800032d4: 00 47 87 93 addi	a5, a5, 4
0x800032d8: fc f4 9e e3 bne	s1, a5, 0x800032b4
0x800032b4: 00 07 a2 83 lw	t0, 0(a5)
0x800032b8: 00 d2 de 63 bge	t0, a3, 0x800032d4
0x800032d4: 00 47 87 93 addi	a5, a5, 4
0x800032d8: fc f4 9e e3 bne	s1, a5, 0x800032b4
0x800032dc: 00 24 17 93 slli	a5, s0, 2
0x800032e0: 00 06 26 83 lw	a3, 0(a2)
0x800032e4: 00 f5 07 b3 add	a5, a0, a5
0x800032e8: 00 07 a7 03 lw	a4, 0(a5)
0x800032ec: 00 d7 a0 23 sw	a3, 0(a5)
0x800032f0: 00 61 22 23 sw	t1, 4(sp)
0x800032f4: 00 e6 20 23 sw	a4, 0(a2)
0x800032f8: 00 04 06 13 addi	a2, s0, 0
0x800032fc: 00 a1 20 23 sw	a0, 0(sp)
0x80003300: f7 5f f0 ef jal	ra, 0x80003274
0x80003274: 00 06 03 13 addi	t1, a2, 0
0x80003278: 0c c5 d6 63 bge	a1, a2, 0x80003344
0x8000327c: fe c1 01 13 addi	sp, sp, -20
0x80003280: 00 11 28 23 sw	ra, 16(sp)
0x80003284: 00 81 26 23 sw	s0, 12(sp)
0x80003288: 00 91 24 23 sw	s1, 8(sp)
0x8000328c: 00 23 14 93 slli	s1, t1, 2
0x80003290: 00 95 04 b3 add	s1, a0, s1
0x80003294: 00 25 97 93 slli	a5, a1, 2
0x80003298: 00 f5 06 33 add	a2, a0, a5
0x8000329c: 00 15 87 13 addi	a4, a1, 1
0x800032a0: 00 06 26 83 lw	a3, 0(a2)
0x800032a4: 08 67 52 63 bge	a4, t1, 0x80003328
0x800032a8: 00 47 87 93 addi	a5, a5, 4
0x800032ac: 00 f5 07 b3 add	a5, a0, a5
0x800032b0: 00 05 84 13 addi	s0, a1, 0
0x800032b4: 00 07 a2 83 lw	t0, 0(a5)
0x800032b8: 00 d2 de 63 bge	t0, a3, 0x800032d4
0x800032d4: 00 47 87 93 addi	a5, a5, 4
0x800032d8: fc f4 9e e3 bne	s1, a5, 0x800032b4
0x800032b4: 00 07 a2 83 lw	t0, 0(a5)
0x800032b8: 00 d2 de 63 bge	t0, a3, 0x800032d4
0x800032bc: 00 14 04 13 addi	s0, s0, 1
0x800032c0: 00 24 17 13 slli	a4, s0, 2
0x800032c4: 00 e5 07 33 add	a4, a0, a4
0x800032c8: 00 07 23 83 lw	t2, 0(a4)
0x800032cc: 00 57 20 23 sw	t0, 0(a4)
0x800032d0: 00 77 a0 23 sw	t2, 0(a5)
0x800032d4: 00 47 87 93 addi	a5, a5, 4
0x800032d8: fc f4 9e e3 bne	s1, a5, 0x800032b4
0x800032b4: 00 07 a2 83 lw	t0, 0(a5)
0x800032b8: 00 d2 de 63 bge	t0, a3, 0x800032d4
0x800032d4: 00 47 87 93 addi	a5, a5, 4
0x800032d8: fc f4 9e e3 bne	s1, a5, 0x800032b4
0x800032b4: 00 07 a2 83 lw	t0, 0(a5)
0x800032b8: 00 d2 de 63 bge	t0, a3, 0x800032d4
0x800032d4: 00 47 87 93 addi	a5, a5, 4
0x800032d8: fc f4 9e e3 bne	s1, a5, 0x800032b4
0x800032b4: 00 07 a2 83 lw	t0, 0(a5)
0x800032b8: 00 d2 de 63 bge	t0, a3, 0x800032d4
0x800032bc: 00 14 04 13 addi	s0, s0, 1
0x800032c0: 00 24 17 13 slli	a4, s0, 2
0x800032c4: 00 e5 07 33 add	a4, a0, a4
0x800032c8: 00 07 23 83 lw	t2, 0(a4)
0x800032cc: 00 57 20 23 sw	t0, 0(a4)
0x800032d0: 00 77 a0 23 sw	t2, 0(a5)
0x800032d4: 00 47 87 93 addi	a5, a5, 4
0x800032d8: fc f4 9e e3 bne	s1, a5, 0x800032b4
0x800032b4: 00 07 a2 83 lw	t0, 0(a5)
0x800032b8: 00 d2 de 63 bge	t0, a3, 0x800032d4
0x800032d4: 00 47 87 93 addi	a5, a5, 4
0x800032d8: fc f4 9e e3 bne	s1, a5, 0x800032b4
0x800032b4: 00 07 a2 83 lw	t0, 0(a5)
0x800032b8: 00 d2 de 63 bge	t0, a3, 0x800032d4
0x800032bc: 00 14 04 13 addi	s0, s0, 1
0x800032c0: 00 24 17 13 slli	a4, s0, 2
0x800032c4: 00 e5 07 33 add	a4, a0, a4
0x800032c8: 00 07 23 83 lw	t2, 0(a4)
0x800032cc: 00 57 20 23 sw	t0, 0(a4)
0x800032d0: 00 77 a0 23 sw	t2, 0(a5)
0x800032d4: 00 47 87 93 addi	a5, a5, 4
0x800032d8: fc f4 9e e3 bne	s1, a5, 0x800032b4
0x800032b4: 00 07 a2 83 lw	t0, 0(a5)
0x800032b8: 00 d2 de 63 bge	t0, a3, 0x800032d4
0x800032bc: 00 14 04 13 addi	s0, s0, 1
0x800032c0: 00 24 17 13 slli	a4, s0, 2
0x800032c4: 00 e5 07 33 add	a4, a0, a4
0x800032c8: 00 07 23 83 lw	t2, 0(a4)
0x800032cc: 00 57 20 23 sw	t0, 0(a4)
0x800032d0: 00 77 a0 23 sw	t2, 0(a5)
0x800032d4: 00 47 87 93 addi	a5, a5, 4
0x800032d8: fc f4 9e e3 bne	s1, a5, 0x800032b4
0x800032b4: 00 07 a2 83 lw	t0, 0(a5)
0x800032b8: 00 d2 de 63 bge	t0, a3, 0x800032d4
0x800032d4: 00 47 87 93 addi	a5, a5, 4
0x800032d8: fc f4 9e e3 bne	s1, a5, 0x800032b4
0x800032b4: 00 07 a2 83 lw	t0, 0(a5)
0x800032b8: 00 d2 de 63 bge	t0, a3, 0x800032d4
0x800032d4: 00 47 87 93 addi	a5, a5, 4
0x800032d8: fc f4 9e e3 bne	s1, a5, 0x800032b4
0x800032b4: 00 07 a2 83 lw	t0, 0(a5)
0x800032b8: 00 d2 de 63 bge	t0, a3, 0x800032d4
0x800032d4: 00 47 87 93 addi	a5, a5, 4
0x800032d8: fc f4 9e e3 bne	s1, a5, 0x800032b4
0x800032b4: 00 07 a2 83 lw	t0, 0(a5)
0x800032b8: 00 d2 de 63 bge	t0, a3, 0x800032d4
0x800032d4: 00 47 87 93 addi	a5, a5, 4
0x800032d8: fc f4 9e e3 bne	s1, a5, 0x800032b4
0x800032b4: 00 07 a2 83 lw	t0, 0(a5)
0x800032b8: 00 d2 de 63 bge	t0, a3, 0x800032d4
0x800032d4: 00 47 87 93 addi	a5, a5, 4
0x800032d8: fc f4 9e e3 bne	s1, a5, 0x800032b4
0x800032b4: 00 07 a2 83 lw	t0, 0(a5)
0x800032b8: 00 d2 de 63 bge	t0, a3, 0x800032d4
0x800032d4: 00 47 87 93 addi	a5, a5, 4
0x800032d8: fc f4 9e e3 bne	s1, a5, 0x800032b4
0x800032b4: 00 07 a2 83 lw	t0, 0(a5)
0x800032b8: 00 d2 de 63 bge	t0, a3, 0x800032d4
0x800032d4: 00 47 87 93 addi	a5, a5, 4
0x800032d8: fc f4 9e e3 bne	s1, a5, 0x800032b4
0x800032b4: 00 07 a2 83 lw	t0, 0(a5)
0x800032b8: 00 d2 de 63 bge	t0, a3, 0x800032d4
0x800032d4: 00 47 87 93 addi	a5, a5, 4
0x800032d8: fc f4 9e e3 bne	s1, a5, 0x800032b4
0x800032b4: 00 07 a2 83 lw	t0, 0(a5)
0x800032b8: 00 d2 de 63 bge	t0, a3, 0x800032d4
0x800032bc: 00 14 04 13 addi	s0, s0, 1
0x800032c0: 00 24 17 13 slli	a4, s0, 2
0x800032c4: 00 e5 07 33 add	a4, a0, a4
0x800032c8: 00 07 23 83 lw	t2, 0(a4)
0x800032cc: 00 57 20 23 sw	t0, 0(a4)
0x800032d0: 00 77 a0 23 sw	t2, 0(a5)
0x800032d4: 00 47 87 93 addi	a5, a5, 4
0x800032d8: fc f4 9e e3 bne	s1, a5, 0x800032b4
0x800032b4: 00 07 a2 83 lw	t0, 0(a5)
0x800032b8: 00 d2 de 63 bge	t0, a3, 0x800032d4
0x800032bc: 00 14 04 13 addi	s0, s0, 1
0x800032c0: 00 24 17 13 slli	a4, s0, 2
0x800032c4: 00 e5 07 33 add	a4, a0, a4
0x800032c8: 00 07 23 83 lw	t2, 0(a4)
0x800032cc: 00 57 20 23 sw	t0, 0(a4)
0x800032d0: 00 77 a0 23 sw	t2, 0(a5)
0x800032d4: 00 47 87 93 addi	a5, a5, 4
0x800032d8: fc f4 9e e3 bne	s1, a5, 0x800032b4
0x800032b4: 00 07 a2 83 lw	t0, 0(a5)
0x800032b8: 00 d2 de 63 bge	t0, a3, 0x800032d4
0x800032d4: 00 47 87 93 addi	a5, a5, 4
0x800032d8: fc f4 9e e3 bne	s1, a5, 0x800032b4
0x800032b4: 00 07 a2 83 lw	t0, 0(a5)
0x800032b8: 00 d2 de 63 bge	t0, a3, 0x800032d4
0x800032bc: 00 14 04 13 addi	s0, s0, 1
0x800032c0: 00 24 17 13 slli	a4, s0, 2
0x800032c4: 00 e5 07 33 add	a4, a0, a4
0x800032c8: 00 07 23 83 lw	t2, 0(a4)
0x800032cc: 00 57 20 23 sw	t0, 0(a4)
0x800032d0: 00 77 a0 23 sw	t2, 0(a5)
0x800032d4: 00 47 87 93 addi	a5, a5, 4
0x800032d8: fc f4 9e e3 bne	s1, a5, 0x800032b4
0x800032dc: 00 24 17 93 slli	a5, s0, 2
0x800032e0: 00 06 26 83 lw	a3, 0(a2)
0x800032e4: 00 f5 07 b3 add	a5, a0, a5
0x800032e8: 00 07 a7 03 lw	a4, 0(a5)
0x800032ec: 00 d7 a0 23 sw	a3, 0(a5)
0x800032f0: 00 61 22 23 sw	t1, 4(sp)
0x800032f4: 00 e6 20 23 sw	a4, 0(a2)
0x800032f8: 00 04 06 13 addi	a2, s0, 0
0x800032fc: 00 a1 20 23 sw	a0, 0(sp)
0x80003300: f7 5f f0 ef jal	ra, 0x80003274
0x80003274: 00 06 03 13 addi	t1, a2, 0
0x80003278: 0c c5 d6 63 bge	a1, a2, 0x80003344
0x8000327c: fe c1 01 13 addi	sp, sp, -20
0x80003280: 00 11 28 23 sw	ra, 16(sp)
0x80003284: 00 81 26 23 sw	s0, 12(sp)
0x80003288: 00 91 24 23 sw	s1, 8(sp)
0x8000328c: 00 23 14 93 slli	s1, t1, 2
0x80003290: 00 95 04 b3 add	s1, a0, s1
0x80003294: 00 25 97 93 slli	a5, a1, 2
0x80003298: 00 f5 06 33 add	a2, a0, a5
0x8000329c: 00 15 87 13 addi	a4, a1, 1
0x800032a0: 00 06 26 83 lw	a3, 0(a2)
0x800032a4: 08 67 52 63 bge	a4, t1, 0x80003328
0x800032a8: 00 47 87 93 addi	a5, a5, 4
0x800032ac: 00 f5 07 b3 add	a5, a0, a5
0x800032b0: 00 05 84 13 addi	s0, a1, 0
0x800032b4: 00 07 a2 83 lw	t0, 0(a5)
0x800032b8: 00 d2 de 63 bge	t0, a3, 0x800032d4
0x800032d4: 00 47 87 93 addi	a5, a5, 4
0x800032d8: fc f4 9e e3 bne	s1, a5, 0x800032b4
0x800032b4: 00 07 a2 83 lw	t0, 0(a5)
0x800032b8: 00 d2 de 63 bge	t0, a3, 0x800032d4
0x800032d4: 00 47 87 93 addi	a5, a5, 4
0x800032d8: fc f4 9e e3 bne	s1, a5, 0x800032b4
0x800032b4: 00 07 a2 83 lw	t0, 0(a5)
0x800032b8: 00 d2 de 63 bge	t0, a3, 0x800032d4
0x800032d4: 00 47 87 93 addi	a5, a5, 4
0x800032d8: fc f4 9e e3 bne	s1, a5, 0x800032b4
0x800032b4: 00 07 a2 83 lw	t0, 0(a5)
0x800032b8: 00 d2 de 63 bge	t0, a3, 0x800032d4
0x800032d4: 00 47 87 93 addi	a5, a5, 4
0x800032d8: fc f4 9e e3 bne	s1, a5, 0x800032b4
0x800032b4: 00 07 a2 83 lw	t0, 0(a5)
0x800032b8: 00 d2 de 63 bge	t0, a3, 0x800032d4
0x800032d4: 00 47 87 93 addi	a5, a5, 4
0x800032d8: fc f4 9e e3 bne	s1, a5, 0x800032b4
0x800032b4: 00 07 a2 83 lw	t0, 0(a5)
0x800032b8: 00 d2 de 63 bge	t0, a3, 0x800032d4
0x800032d4: 00 47 87 93 addi	a5, a5, 4
0x800032d8: fc f4 9e e3 bne	s1, a5, 0x800032b4
0x800032dc: 00 24 17 93 slli	a5, s0, 2
0x800032e0: 00 06 26 83 lw	a3, 0(a2)
0x800032e4: 00 f5 07 b3 add	a5, a0, a5
0x800032e8: 00 07 a7 03 lw	a4, 0(a5)
0x800032ec: 00 d7 a0 23 sw	a3, 0(a5)
0x800032f0: 00 61 22 23 sw	t1, 4(sp)
0x800032f4: 00 e6 20 23 sw	a4, 0(a2)
0x800032f8: 00 04 06 13 addi	a2, s0, 0
0x800032fc: 00 a1 20 23 sw	a0, 0(sp)
0x80003300: f7 5f f0 ef jal	ra, 0x80003274
0x80003274: 00 06 03 13 addi	t1, a2, 0
0x80003278: 0c c5 d6 63 bge	a1, a2, 0x80003344
0x80003344: 00 00 80 67 jalr	zero, 0(ra)
0x80003304: 00 41 23 03 lw	t1, 4(sp)
0x80003308: 00 14 05 93 addi	a1, s0, 1
0x8000330c: 00 01 25 03 lw	a0, 0(sp)
0x80003310: f8 65 c2 e3 blt	a1, t1, 0x80003294
0x80003294: 00 25 97 93 slli	a5, a1, 2
0x80003298: 00 f5 06 33 add	a2, a0, a5
0x8000329c: 00 15 87 13 addi	a4, a1, 1
0x800032a0: 00 06 26 83 lw	a3, 0(a2)
0x800032a4: 08 67 52 63 bge	a4, t1, 0x80003328
0x800032a8: 00 47 87 93 addi	a5, a5, 4
0x800032ac: 00 f5 07 b3 add	a5, a0, a5
0x800032b0: 00 05 84 13 addi	s0, a1, 0
0x800032b4: 00 07 a2 83 lw	t0, 0(a5)
0x800032b8: 00 d2 de 63 bge	t0, a3, 0x800032d4
0x800032bc: 00 14 04 13 addi	s0, s0, 1
0x800032c0: 00 24 17 13 slli	a4, s0, 2
0x800032c4: 00 e5 07 33 add	a4, a0, a4
0x800032c8: 00 07 23 83 lw	t2, 0(a4)
0x800032cc: 00 57 20 23 sw	t0, 0(a4)
0x800032d0: 00 77 a0 23 sw	t2, 0(a5)
0x800032d4: 00 47 87 93 addi	a5, a5, 4
0x800032d8: fc f4 9e e3 bne	s1, a5, 0x800032b4
0x800032b4: 00 07 a2 83 lw	t0, 0(a5)
0x800032b8: 00 d2 de 63 bge	t0, a3, 0x800032d4
0x800032bc: 00 14 04 13 addi	s0, s0, 1
0x800032c0: 00 24 17 13 slli	a4, s0, 2
0x800032c4: 00 e5 07 33 add	a4, a0, a4
0x800032c8: 00 07 23 83 lw	t2, 0(a4)
0x800032cc: 00 57 20 23 sw	t0, 0(a4)
0x800032d0: 00 77 a0 23 sw	t2, 0(a5)
0x800032d4: 00 47 87 93 addi	a5, a5, 4
0x800032d8: fc f4 9e e3 bne	s1, a5, 0x800032b4
0x800032b4: 00 07 a2 83 lw	t0, 0(a5)
0x800032b8: 00 d2 de 63 bge	t0, a3, 0x800032d4
0x800032bc: 00 14 04 13 addi	s0, s0, 1
0x800032c0: 00 24 17 13 slli	a4, s0, 2
0x800032c4: 00 e5 07 33 add	a4, a0, a4
0x800032c8: 00 07 23 83 lw	t2, 0(a4)
0x800032cc: 00 57 20 23 sw	t0, 0(a4)
0x800032d0: 00 77 a0 23 sw	t2, 0(a5)
0x800032d4: 00 47 87 93 addi	a5, a5, 4
0x800032d8: fc f4 9e e3 bne	s1, a5, 0x800032b4
0x800032b4: 00 07 a2 83 lw	t0, 0(a5)
0x800032b8: 00 d2 de 63 bge	t0, a3, 0x800032d4
0x800032bc: 00 14 04 13 addi	s0, s0, 1
0x800032c0: 00 24 17 13 slli	a4, s0, 2
0x800032c4: 00 e5 07 33 add	a4, a0, a4
0x800032c8: 00 07 23 83 lw	t2, 0(a4)
0x800032cc: 00 57 20 23 sw	t0, 0(a4)
0x800032d0: 00 77 a0 23 sw	t2, 0(a5)
0x800032d4: 00 47 87 93 addi	a5, a5, 4
0x800032d8: fc f4 9e e3 bne	s1, a5, 0x800032b4
0x800032b4: 00 07 a2 83 lw	t0, 0(a5)
0x800032b8: 00 d2 de 63 bge	t0, a3, 0x800032d4
0x800032d4: 00 47 87 93 addi	a5, a5, 4
0x800032d8: fc f4 9e e3 bne	s1, a5, 0x800032b4
0x800032dc: 00 24 17 93 slli	a5, s0, 2
0x800032e0: 00 06 26 83 lw	a3, 0(a2)
0x800032e4: 00 f5 07 b3 add	a5, a0, a5
0x800032e8: 00 07 a7 03 lw	a4, 0(a5)
0x800032ec: 00 d7 a0 23 sw	a3, 0(a5)
0x800032f0: 00 61 22 23 sw	t1, 4(sp)
0x800032f4: 00 e6 20 23 sw	a4, 0(a2)
0x800032f8: 00 04 06 13 addi	a2, s0, 0
0x800032fc: 00 a1 20 23 sw	a0, 0(sp)
0x80003300: f7 5f f0 ef jal	ra, 0x80003274
0x80003274: 00 06 03 13 addi	t1, a2, 0
0x80003278: 0c c5 d6 63 bge	a1, a2, 0x80003344
0x8000327c: fe c1 01 13 addi	sp, sp, -20
0x80003280: 00 11 28 23 sw	ra, 16(sp)
0x80003284: 00 81 26 23 sw	s0, 12(sp)
0x80003288: 00 91 24 23 sw	s1, 8(sp)
0x8000328c: 00 23 14 93 slli	s1, t1, 2
0x80003290: 00 95 04 b3 add	s1, a0, s1
0x80003294: 00 25 97 93 slli	a5, a1, 2
0x80003298: 00 f5 06 33 add	a2, a0, a5
0x8000329c: 00 15 87 13 addi	a4, a1, 1
0x800032a0: 00 06 26 83 lw	a3, 0(a2)
0x800032a4: 08 67 52 63 bge	a4, t1, 0x80003328
0x800032a8: 00 47 87 93 addi	a5, a5, 4
0x800032ac: 00 f5 07 b3 add	a5, a0, a5
0x800032b0: 00 05 84 13 addi	s0, a1, 0
0x800032b4: 00 07 a2 83 lw	t0, 0(a5)
0x800032b8: 00 d2 de 63 bge	t0, a3, 0x800032d4
0x800032bc: 00 14 04 13 addi	s0, s0, 1
0x800032c0: 00 24 17 13 slli	a4, s0, 2
0x800032c4: 00 e5 07 33 add	a4, a0, a4
0x800032c8: 00 07 23 83 lw	t2, 0(a4)
0x800032cc: 00 57 20 23 sw	t0, 0(a4)
0x800032d0: 00 77 a0 23 sw	t2, 0(a5)
0x800032d4: 00 47 87 93 addi	a5, a5, 4
0x800032d8: fc f4 9e e3 bne	s1, a5, 0x800032b4
0x800032b4: 00 07 a2 83 lw	t0, 0(a5)
0x800032b8: 00 d2 de 63 bge	t0, a3, 0x800032d4
0x800032d4: 00 47 87 93 addi	a5, a5, 4
0x800032d8: fc f4 9e e3 bne	s1, a5, 0x800032b4
0x800032b4: 00 07 a2 83 lw	t0, 0(a5)
0x800032b8: 00 d2 de 63 bge	t0, a3, 0x800032d4
0x800032bc: 00 14 04 13 addi	s0, s0, 1
0x800032c0: 00 24 17 13 slli	a4, s0, 2
0x800032c4: 00 e5 07 33 add	a4, a0, a4
0x800032c8: 00 07 23 83 lw	t2, 0(a4)
0x800032cc: 00 57 20 23 sw	t0, 0(a4)
0x800032d0: 00 77 a0 23 sw	t2, 0(a5)
0x800032d4: 00 47 87 93 addi	a5, a5, 4
0x800032d8: fc f4 9e e3 bne	s1, a5, 0x800032b4
0x800032dc: 00 24 17 93 slli	a5, s0, 2
0x800032e0: 00 06 26 83 lw	a3, 0(a2)
0x800032e4: 00 f5 07 b3 add	a5, a0, a5
0x800032e8: 00 07 a7 03 lw	a4, 0(a5)
0x800032ec: 00 d7 a0 23 sw	a3, 0(a5)
0x800032f0: 00 61 22 23 sw	t1, 4(sp)
0x800032f4: 00 e6 20 23 sw	a4, 0(a2)
0x800032f8: 00 04 06 13 addi	a2, s0, 0
0x800032fc: 00 a1 20 23 sw	a0, 0(sp)
0x80003300: f7 5f f0 ef jal	ra, 0x80003274
0x80003274: 00 06 03 13 addi	t1, a2, 0
0x80003278: 0c c5 d6 63 bge	a1, a2, 0x80003344
0x8000327c: fe c1 01 13 addi	sp, sp, -20
0x80003280: 00 11 28 23 sw	ra, 16(sp)
0x80003284: 00 81 26 23 sw	s0, 12(sp)
0x80003288: 00 91 24 23 sw	s1, 8(sp)
0x8000328c: 00 23 14 93 slli	s1, t1, 2
0x80003290: 00 95 04 b3 add	s1, a0, s1
0x80003294: 00 25 97 93 slli	a5, a1, 2
0x80003298: 00 f5 06 33 add	a2, a0, a5
0x8000329c: 00 15 87 13 addi	a4, a1, 1
0x800032a0: 00 06 26 83 lw	a3, 0(a2)
0x800032a4: 08 67 52 63 bge	a4, t1, 0x80003328
0x800032a8: 00 47 87 93 addi	a5, a5, 4
0x800032ac: 00 f5 07 b3 add	a5, a0, a5
0x800032b0: 00 05 84 13 addi	s0, a1, 0
0x800032b4: 00 07 a2 83 lw	t0, 0(a5)
0x800032b8: 00 d2 de 63 bge	t0, a3, 0x800032d4
0x800032d4: 00 47 87 93 addi	a5, a5, 4
0x800032d8: fc f4 9e e3 bne	s1, a5, 0x800032b4
0x800032dc: 00 24 17 93 slli	a5, s0, 2
0x800032e0: 00 06 26 83 lw	a3, 0(a2)
0x800032e4: 00 f5 07 b3 add	a5, a0, a5
0x800032e8: 00 07 a7 03 lw	a4, 0(a5)
0x800032ec: 00 d7 a0 23 sw	a3, 0(a5)
0x800032f0: 00 61 22 23 sw	t1, 4(sp)
0x800032f4: 00 e6 20 23 sw	a4, 0(a2)
0x800032f8: 00 04 06 13 addi	a2, s0, 0
0x800032fc: 00 a1 20 23 sw	a0, 0(sp)
0x80003300: f7 5f f0 ef jal	ra, 0x80003274
0x80003274: 00 06 03 13 addi	t1, a2, 0
0x80003278: 0c c5 d6 63 bge	a1, a2, 0x80003344
0x80003344: 00 00 80 67 jalr	zero, 0(ra)
0x80003304: 00 41 23 03 lw	t1, 4(sp)
0x80003308: 00 14 05 93 addi	a1, s0, 1
0x8000330c: 00 01 25 03 lw	a0, 0(sp)
0x80003310: f8 65 c2 e3 blt	a1, t1, 0x80003294
0x80003294: 00 25 97 93 slli	a5, a1, 2
0x80003298: 00 f5 06 33 add	a2, a0, a5
0x8000329c: 00 15 87 13 addi	a4, a1, 1
0x800032a0: 00 06 26 83 lw	a3, 0(a2)
0x800032a4: 08 67 52 63 bge	a4, t1, 0x80003328
0x80003328: 00 05 83 13 addi	t1, a1, 0
0x8000332c: f6 b5 c0 e3 blt	a1, a1, 0x8000328c
0x80003330: 01 01 20 83 lw	ra, 16(sp)
0x80003334: 00 c1 24 03 lw	s0, 12(sp)
0x80003338: 00 81 24 83 lw	s1, 8(sp)
0x8000333c: 01 41 01 13 addi	sp, sp, 20
0x80003340: 00 00 80 67 jalr	zero, 0(ra)
0x80003304: 00 41 23 03 lw	t1, 4(sp)
0x80003308: 00 14 05 93 addi	a1, s0, 1
0x8000330c: 00 01 25 03 lw	a0, 0(sp)
0x80003310: f8 65 c2 e3 blt	a1, t1, 0x80003294
0x80003294: 00 25 97 93 slli	a5, a1, 2
0x80003298: 00 f5 06 33 add	a2, a0, a5
0x8000329c: 00 15 87 13 addi	a4, a1, 1
0x800032a0: 00 06 26 83 lw	a3, 0(a2)
0x800032a4: 08 67 52 63 bge	a4, t1, 0x80003328
0x80003328: 00 05 83 13 addi	t1, a1, 0
0x8000332c: f6 b5 c0 e3 blt	a1, a1, 0x8000328c
0x80003330: 01 01 20 83 lw	ra, 16(sp)
0x80003334: 00 c1 24 03 lw	s0, 12(sp)
0x80003338: 00 81 24 83 lw	s1, 8(sp)
0x8000333c: 01 41 01 13 addi	sp, sp, 20
0x80003340: 00 00 80 67 jalr	zero, 0(ra)
0x80003304: 00 41 23 03 lw	t1, 4(sp)
0x80003308: 00 14 05 93 addi	a1, s0, 1
0x8000330c: 00 01 25 03 lw	a0, 0(sp)
0x80003310: f8 65 c2 e3 blt	a1, t1, 0x80003294
0x80003294: 00 25 97 93 slli	a5, a1, 2
0x80003298: 00 f5 06 33 add	a2, a0, a5
0x8000329c: 00 15 87 13 addi	a4, a1, 1
0x800032a0: 00 06 26 83 lw	a3, 0(a2)
0x800032a4: 08 67 52 63 bge	a4, t1, 0x80003328
0x80003328: 00 05 83 13 addi	t1, a1, 0
0x8000332c: f6 b5 c0 e3 blt	a1, a1, 0x8000328c
0x80003330: 01 01 20 83 lw	ra, 16(sp)
0x80003334: 00 c1 24 03 lw	s0, 12(sp)
0x80003338: 00 81 24 83 lw	s1, 8(sp)
0x8000333c: 01 41 01 13 addi	sp, sp, 20
0x80003340: 00 00 80 67 jalr	zero, 0(ra)
0x80003304: 00 41 23 03 lw	t1, 4(sp)
0x80003308: 00 14 05 93 addi	a1, s0, 1
0x8000330c: 00 01 25 03 lw	a0, 0(sp)
0x80003310: f8 65 c2 e3 blt	a1, t1, 0x80003294
0x80003294: 00 25 97 93 slli	a5, a1, 2
0x80003298: 00 f5 06 33 add	a2, a0, a5
0x8000329c: 00 15 87 13 addi	a4, a1, 1
0x800032a0: 00 06 26 83 lw	a3, 0(a2)
0x800032a4: 08 67 52 63 bge	a4, t1, 0x80003328
0x800032a8: 00 47 87 93 addi	a5, a5, 4
0x800032ac: 00 f5 07 b3 add	a5, a0, a5
0x800032b0: 00 05 84 13 addi	s0, a1, 0
0x800032b4: 00 07 a2 83 lw	t0, 0(a5)
0x800032b8: 00 d2 de 63 bge	t0, a3, 0x800032d4
0x800032d4: 00 47 87 93 addi	a5, a5, 4
0x800032d8: fc f4 9e e3 bne	s1, a5, 0x800032b4
0x800032b4: 00 07 a2 83 lw	t0, 0(a5)
0x800032b8: 00 d2 de 63 bge	t0, a3, 0x800032d4
0x800032d4: 00 47 87 93 addi	a5, a5, 4
0x800032d8: fc f4 9e e3 bne	s1, a5, 0x800032b4
0x800032b4: 00 07 a2 83 lw	t0, 0(a5)
0x800032b8: 00 d2 de 63 bge	t0, a3, 0x800032d4
0x800032d4: 00 47 87 93 addi	a5, a5, 4
0x800032d8: fc f4 9e e3 bne	s1, a5, 0x800032b4
0x800032b4: 00 07 a2 83 lw	t0, 0(a5)
0x800032b8: 00 d2 de 63 bge	t0, a3, 0x800032d4
0x800032d4: 00 47 87 93 addi	a5, a5, 4
0x800032d8: fc f4 9e e3 bne	s1, a5, 0x800032b4
0x800032b4: 00 07 a2 83 lw	t0, 0(a5)
0x800032b8: 00 d2 de 63 bge	t0, a3, 0x800032d4
0x800032d4: 00 47 87 93 addi	a5, a5, 4
0x800032d8: fc f4 9e e3 bne	s1, a5, 0x800032b4
0x800032b4: 00 07 a2 83 lw	t0, 0(a5)
0x800032b8: 00 d2 de 63 bge	t0, a3, 0x800032d4
0x800032d4: 00 47 87 93 addi	a5, a5, 4
0x800032d8: fc f4 9e e3 bne	s1, a5, 0x800032b4
0x800032b4: 00 07 a2 83 lw	t0, 0(a5)
0x800032b8: 00 d2 de 63 bge	t0, a3, 0x800032d4
0x800032d4: 00 47 87 93 addi	a5, a5, 4
0x800032d8: fc f4 9e e3 bne	s1, a5, 0x800032b4
0x800032b4: 00 07 a2 83 lw	t0, 0(a5)
0x800032b8: 00 d2 de 63 bge	t0, a3, 0x800032d4
0x800032d4: 00 47 87 93 addi	a5, a5, 4
0x800032d8: fc f4 9e e3 bne	s1, a5, 0x800032b4
0x800032b4: 00 07 a2 83 lw	t0, 0(a5)
0x800032b8: 00 d2 de 63 bge	t0, a3, 0x800032d4
0x800032d4: 00 47 87 93 addi	a5, a5, 4
0x800032d8: fc f4 9e e3 bne	s1, a5, 0x800032b4
0x800032b4: 00 07 a2 83 lw	t0, 0(a5)
0x800032b8: 00 d2 de 63 bge	t0, a3, 0x800032d4
0x800032d4: 00 47 87 93 addi	a5, a5, 4
0x800032d8: fc f4 9e e3 bne	s1, a5, 0x800032b4
0x800032b4: 00 07 a2 83 lw	t0, 0(a5)
0x800032b8: 00 d2 de 63 bge	t0, a3, 0x800032d4
0x800032d4: 00 47 87 93 addi	a5, a5, 4
0x800032d8: fc f4 9e e3 bne	s1, a5, 0x800032b4
0x800032b4: 00 07 a2 83 lw	t0, 0(a5)
0x800032b8: 00 d2 de 63 bge	t0, a3, 0x800032d4
0x800032d4: 00 47 87 93 addi	a5, a5, 4
0x800032d8: fc f4 9e e3 bne	s1, a5, 0x800032b4
0x800032dc: 00 24 17 93 slli	a5, s0, 2
0x800032e0: 00 06 26 83 lw	a3, 0(a2)
0x800032e4: 00 f5 07 b3 add	a5, a0, a5
0x800032e8: 00 07 a7 03 lw	a4, 0(a5)
0x800032ec: 00 d7 a0 23 sw	a3, 0(a5)
0x800032f0: 00 61 22 23 sw	t1, 4(sp)
0x800032f4: 00 e6 20 23 sw	a4, 0(a2)
0x800032f8: 00 04 06 13 addi	a2, s0, 0
0x800032fc: 00 a1 20 23 sw	a0, 0(sp)
0x80003300: f7 5f f0 ef jal	ra, 0x80003274
0x80003274: 00 06 03 13 addi	t1, a2, 0
0x80003278: 0c c5 d6 63 bge	a1, a2, 0x80003344
0x80003344: 00 00 80 67 jalr	zero, 0(ra)
0x80003304: 00 41 23 03 lw	t1, 4(sp)
0x80003308: 00 14 05 93 addi	a1, s0, 1
0x8000330c: 00 01 25 03 lw	a0, 0(sp)
0x80003310: f8 65 c2 e3 blt	a1, t1, 0x80003294
0x80003294: 00 25 97 93 slli	a5, a1, 2
0x80003298: 00 f5 06 33 add	a2, a0, a5
0x8000329c: 00 15 87 13 addi	a4, a1, 1
0x800032a0: 00 06 26 83 lw	a3, 0(a2)
0x800032a4: 08 67 52 63 bge	a4, t1, 0x80003328
0x800032a8: 00 47 87 93 addi	a5, a5, 4
0x800032ac: 00 f5 07 b3 add	a5, a0, a5
0x800032b0: 00 05 84 13 addi	s0, a1, 0
0x800032b4: 00 07 a2 83 lw	t0, 0(a5)
0x800032b8: 00 d2 de 63 bge	t0, a3, 0x800032d4
0x800032d4: 00 47 87 93 addi	a5, a5, 4
0x800032d8: fc f4 9e e3 bne	s1, a5, 0x800032b4
0x800032b4: 00 07 a2 83 lw	t0, 0(a5)
0x800032b8: 00 d2 de 63 bge	t0, a3, 0x800032d4
0x800032bc: 00 14 04 13 addi	s0, s0, 1
0x800032c0: 00 24 17 13 slli	a4, s0, 2
0x800032c4: 00 e5 07 33 add	a4, a0, a4
0x800032c8: 00 07 23 83 lw	t2, 0(a4)
0x800032cc: 00 57 20 23 sw	t0, 0(a4)
0x800032d0: 00 77 a0 23 sw	t2, 0(a5)
0x800032d4: 00 47 87 93 addi	a5, a5, 4
0x800032d8: fc f4 9e e3 bne	s1, a5, 0x800032b4
0x800032b4: 00 07 a2 83 lw	t0, 0(a5)
0x800032b8: 00 d2 de 63 bge	t0, a3, 0x800032d4
0x800032bc: 00 14 04 13 addi	s0, s0, 1
0x800032c0: 00 24 17 13 slli	a4, s0, 2
0x800032c4: 00 e5 07 33 add	a4, a0, a4
0x800032c8: 00 07 23 83 lw	t2, 0(a4)
0x800032cc: 00 57 20 23 sw	t0, 0(a4)
0x800032d0: 00 77 a0 23 sw	t2, 0(a5)
0x800032d4: 00 47 87 93 addi	a5, a5, 4
0x800032d8: fc f4 9e e3 bne	s1, a5, 0x800032b4
0x800032b4: 00 07 a2 83 lw	t0, 0(a5)
0x800032b8: 00 d2 de 63 bge	t0, a3, 0x800032d4
0x800032d4: 00 47 87 93 addi	a5, a5, 4
0x800032d8: fc f4 9e e3 bne	s1, a5, 0x800032b4
0x800032b4: 00 07 a2 83 lw	t0, 0(a5)
0x800032b8: 00 d2 de 63 bge	t0, a3, 0x800032d4
0x800032d4: 00 47 87 93 addi	a5, a5, 4
0x800032d8: fc f4 9e e3 bne	s1, a5, 0x800032b4
0x800032b4: 00 07 a2 83 lw	t0, 0(a5)
0x800032b8: 00 d2 de 63 bge	t0, a3, 0x800032d4
0x800032d4: 00 47 87 93 addi	a5, a5, 4
0x800032d8: fc f4 9e e3 bne	s1, a5, 0x800032b4
0x800032b4: 00 07 a2 83 lw	t0, 0(a5)
0x800032b8: 00 d2 de 63 bge	t0, a3, 0x800032d4
0x800032bc: 00 14 04 13 addi	s0, s0, 1
0x800032c0: 00 24 17 13 slli	a4, s0, 2
0x800032c4: 00 e5 07 33 add	a4, a0, a4
0x800032c8: 00 07 23 83 lw	t2, 0(a4)
0x800032cc: 00 57 20 23 sw	t0, 0(a4)
0x800032d0: 00 77 a0 23 sw	t2, 0(a5)
0x800032d4: 00 47 87 93 addi	a5, a5, 4
0x800032d8: fc f4 9e e3 bne	s1, a5, 0x800032b4
0x800032b4: 00 07 a2 83 lw	t0, 0(a5)
0x800032b8: 00 d2 de 63 bge	t0, a3, 0x800032d4
0x800032d4: 00 47 87 93 addi	a5, a5, 4
0x800032d8: fc f4 9e e3 bne	s1, a5, 0x800032b4
0x800032b4: 00 07 a2 83 lw	t0, 0(a5)
0x800032b8: 00 d2 de 63 bge	t0, a3, 0x800032d4
0x800032d4: 00 47 87 93 addi	a5, a5, 4
0x800032d8: fc f4 9e e3 bne	s1, a5, 0x800032b4
0x800032b4: 00 07 a2 83 lw	t0, 0(a5)
0x800032b8: 00 d2 de 63 bge	t0, a3, 0x800032d4
0x800032bc: 00 14 04 13 addi	s0, s0, 1
0x800032c0: 00 24 17 13 slli	a4, s0, 2
0x800032c4: 00 e5 07 33 add	a4, a0, a4
0x800032c8: 00 07 23 83 lw	t2, 0(a4)
0x800032cc: 00 57 20 23 sw	t0, 0(a4)
0x800032d0: 00 77 a0 23 sw	t2, 0(a5)
0x800032d4: 00 47 87 93 addi	a5, a5, 4
0x800032d8: fc f4 9e e3 bne	s1, a5, 0x800032b4
0x800032b4: 00 07 a2 83 lw	t0, 0(a5)
0x800032b8: 00 d2 de 63 bge	t0, a3, 0x800032d4
0x800032bc: 00 14 04 13 addi	s0, s0, 1
0x800032c0: 00 24 17 13 slli	a4, s0, 2
0x800032c4: 00 e5 07 33 add	a4, a0, a4
0x800032c8: 00 07 23 83 lw	t2, 0(a4)
0x800032cc: 00 57 20 23 sw	t0, 0(a4)
0x800032d0: 00 77 a0 23 sw	t2, 0(a5)
0x800032d4: 00 47 87 93 addi	a5, a5, 4
0x800032d8: fc f4 9e e3 bne	s1, a5, 0x800032b4
0x800032dc: 00 24 17 93 slli	a5, s0, 2
0x800032e0: 00 06 26 83 lw	a3, 0(a2)
0x800032e4: 00 f5 07 b3 add	a5, a0, a5
0x800032e8: 00 07 a7 03 lw	a4, 0(a5)
0x800032ec: 00 d7 a0 23 sw	a3, 0(a5)
0x800032f0: 00 61 22 23 sw	t1, 4(sp)
0x800032f4: 00 e6 20 23 sw	a4, 0(a2)
0x800032f8: 00 04 06 13 addi	a2, s0, 0
0x800032fc: 00 a1 20 23 sw	a0, 0(sp)
0x80003300: f7 5f f0 ef jal	ra, 0x80003274
0x80003274: 00 06 03 13 addi	t1, a2, 0
0x80003278: 0c c5 d6 63 bge	a1, a2, 0x80003344
0x8000327c: fe c1 01 13 addi	sp, sp, -20
0x80003280: 00 11 28 23 sw	ra, 16(sp)
0x80003284: 00 81 26 23 sw	s0, 12(sp)
0x80003288: 00 91 24 23 sw	s1, 8(sp)
0x8000328c: 00 23 14 93 slli	s1, t1, 2
0x80003290: 00 95 04 b3 add	s1, a0, s1
0x80003294: 00 25 97 93 slli	a5, a1, 2
0x80003298: 00 f5 06 33 add	a2, a0, a5
0x8000329c: 00 15 87 13 addi	a4, a1, 1
0x800032a0: 00 06 26 83 lw	a3, 0(a2)
0x800032a4: 08 67 52 63 bge	a4, t1, 0x80003328
0x800032a8: 00 47 87 93 addi	a5, a5, 4
0x800032ac: 00 f5 07 b3 add	a5, a0, a5
0x800032b0: 00 05 84 13 addi	s0, a1, 0
0x800032b4: 00 07 a2 83 lw	t0, 0(a5)
0x800032b8: 00 d2 de 63 bge	t0, a3, 0x800032d4
0x800032d4: 00 47 87 93 addi	a5, a5, 4
0x800032d8: fc f4 9e e3 bne	s1, a5, 0x800032b4
0x800032b4: 00 07 a2 83 lw	t0, 0(a5)
0x800032b8: 00 d2 de 63 bge	t0, a3, 0x800032d4
0x800032bc: 00 14 04 13 addi	s0, s0, 1
0x800032c0: 00 24 17 13 slli	a4, s0, 2
0x800032c4: 00 e5 07 33 add	a4, a0, a4
0x800032c8: 00 07 23 83 lw	t2, 0(a4)
0x800032cc: 00 57 20 23 sw	t0, 0(a4)
0x800032d0: 00 77 a0 23 sw	t2, 0(a5)
0x800032d4: 00 47 87 93 addi	a5, a5, 4
0x800032d8: fc f4 9e e3 bne	s1, a5, 0x800032b4
0x800032b4: 00 07 a2 83 lw	t0, 0(a5)
0x800032b8: 00 d2 de 63 bge	t0, a3, 0x800032d4
0x800032bc: 00 14 04 13 addi	s0, s0, 1
0x800032c0: 00 24 17 13 slli	a4, s0, 2
0x800032c4: 00 e5 07 33 add	a4, a0, a4
0x800032c8: 00 07 23 83 lw	t2, 0(a4)
0x800032cc: 00 57 20 23 sw	t0, 0(a4)
0x800032d0: 00 77 a0 23 sw	t2, 0(a5)
0x800032d4: 00 47 87 93 addi	a5, a5, 4
0x800032d8: fc f4 9e e3 bne	s1, a5, 0x800032b4
0x800032b4: 00 07 a2 83 lw	t0, 0(a5)
0x800032b8: 00 d2 de 63 bge	t0, a3, 0x800032d4
0x800032bc: 00 14 04 13 addi	s0, s0, 1
0x800032c0: 00 24 17 13 slli	a4, s0, 2
0x800032c4: 00 e5 07 33 add	a4, a0, a4
0x800032c8: 00 07 23 83 lw	t2, 0(a4)
0x800032cc: 00 57 20 23 sw	t0, 0(a4)
0x800032d0: 00 77 a0 23 sw	t2, 0(a5)
0x800032d4: 00 47 87 93 addi	a5, a5, 4
0x800032d8: fc f4 9e e3 bne	s1, a5, 0x800032b4
0x800032dc: 00 24 17 93 slli	a5, s0, 2
0x800032e0: 00 06 26 83 lw	a3, 0(a2)
0x800032e4: 00 f5 07 b3 add	a5, a0, a5
0x800032e8: 00 07 a7 03 lw	a4, 0(a5)
0x800032ec: 00 d7 a0 23 sw	a3, 0(a5)
0x800032f0: 00 61 22 23 sw	t1, 4(sp)
0x800032f4: 00 e6 20 23 sw	a4, 0(a2)
0x800032f8: 00 04 06 13 addi	a2, s0, 0
0x800032fc: 00 a1 20 23 sw	a0, 0(sp)
0x80003300: f7 5f f0 ef jal	ra, 0x80003274
0x80003274: 00 06 03 13 addi	t1, a2, 0
0x80003278: 0c c5 d6 63 bge	a1, a2, 0x80003344
0x8000327c: fe c1 01 13 addi	sp, sp, -20
0x80003280: 00 11 28 23 sw	ra, 16(sp)
0x80003284: 00 81 26 23 sw	s0, 12(sp)
0x80003288: 00 91 24 23 sw	s1, 8(sp)
0x8000328c: 00 23 14 93 slli	s1, t1, 2
0x80003290: 00 95 04 b3 add	s1, a0, s1
0x80003294: 00 25 97 93 slli	a5, a1, 2
0x80003298: 00 f5 06 33 add	a2, a0, a5
0x8000329c: 00 15 87 13 addi	a4, a1, 1
0x800032a0: 00 06 26 83 lw	a3, 0(a2)
0x800032a4: 08 67 52 63 bge	a4, t1, 0x80003328
0x800032a8: 00 47 87 93 addi	a5, a5, 4
0x800032ac: 00 f5 07 b3 add	a5, a0, a5
0x800032b0: 00 05 84 13 addi	s0, a1, 0
0x800032b4: 00 07 a2 83 lw	t0, 0(a5)
0x800032b8: 00 d2 de 63 bge	t0, a3, 0x800032d4
0x800032d4: 00 47 87 93 addi	a5, a5, 4
0x800032d8: fc f4 9e e3 bne	s1, a5, 0x800032b4
0x800032b4: 00 07 a2 83 lw	t0, 0(a5)
0x800032b8: 00 d2 de 63 bge	t0, a3, 0x800032d4
0x800032bc: 00 14 04 13 addi	s0, s0, 1
0x800032c0: 00 24 17 13 slli	a4, s0, 2
0x800032c4: 00 e5 07 33 add	a4, a0, a4
0x800032c8: 00 07 23 83 lw	t2, 0(a4)
0x800032cc: 00 57 20 23 sw	t0, 0(a4)
0x800032d0: 00 77 a0 23 sw	t2, 0(a5)
0x800032d4: 00 47 87 93 addi	a5, a5, 4
0x800032d8: fc f4 9e e3 bne	s1, a5, 0x800032b4
0x800032dc: 00 24 17 93 slli	a5, s0, 2
0x800032e0: 00 06 26 83 lw	a3, 0(a2)
0x800032e4: 00 f5 07 b3 add	a5, a0, a5
0x800032e8: 00 07 a7 03 lw	a4, 0(a5)
0x800032ec: 00 d7 a0 23 sw	a3, 0(a5)
0x800032f0: 00 61 22 23 sw	t1, 4(sp)
0x800032f4: 00 e6 20 23 sw	a4, 0(a2)
0x800032f8: 00 04 06 13 addi	a2, s0, 0
0x800032fc: 00 a1 20 23 sw	a0, 0(sp)
0x80003300: f7 5f f0 ef jal	ra, 0x80003274
0x80003274: 00 06 03 13 addi	t1, a2, 0
0x80003278: 0c c5 d6 63 bge	a1, a2, 0x80003344
0x8000327c: fe c1 01 13 addi	sp, sp, -20
0x80003280: 00 11 28 23 sw	ra, 16(sp)
0x80003284: 00 81 26 23 sw	s0, 12(sp)
0x80003288: 00 91 24 23 sw	s1, 8(sp)
0x8000328c: 00 23 14 93 slli	s1, t1, 2
0x80003290: 00 95 04 b3 add	s1, a0, s1
0x80003294: 00 25 97 93 slli	a5, a1, 2
0x80003298: 00 f5 06 33 add	a2, a0, a5
0x8000329c: 00 15 87 13 addi	a4, a1, 1
0x800032a0: 00 06 26 83 lw	a3, 0(a2)
0x800032a4: 08 67 52 63 bge	a4, t1, 0x80003328
0x80003328: 00 05 83 13 addi	t1, a1, 0
0x8000332c: f6 b5 c0 e3 blt	a1, a1, 0x8000328c
0x80003330: 01 01 20 83 lw	ra, 16(sp)
0x80003334: 00 c1 24 03 lw	s0, 12(sp)
0x80003338: 00 81 24 83 lw	s1, 8(sp)
0x8000333c: 01 41 01 13 addi	sp, sp, 20
0x80003340: 00 00 80 67 jalr	zero, 0(ra)
0x80003304: 00 41 23 03 lw	t1, 4(sp)
0x80003308: 00 14 05 93 addi	a1, s0, 1
0x8000330c: 00 01 25 03 lw	a0, 0(sp)
0x80003310: f8 65 c2 e3 blt	a1, t1, 0x80003294
0x80003294: 00 25 97 93 slli	a5, a1, 2
0x80003298: 00 f5 06 33 add	a2, a0, a5
0x8000329c: 00 15 87 13 addi	a4, a1, 1
0x800032a0: 00 06 26 83 lw	a3, 0(a2)
0x800032a4: 08 67 52 63 bge	a4, t1, 0x80003328
0x80003328: 00 05 83 13 addi	t1, a1, 0
0x8000332c: f6 b5 c0 e3 blt	a1, a1, 0x8000328c
0x80003330: 01 01 20 83 lw	ra, 16(sp)
0x80003334: 00 c1 24 03 lw	s0, 12(sp)
0x80003338: 00 81 24 83 lw	s1, 8(sp)
0x8000333c: 01 41 01 13 addi	sp, sp, 20
0x80003340: 00 00 80 67 jalr	zero, 0(ra)
0x80003304: 00 41 23 03 lw	t1, 4(sp)
0x80003308: 00 14 05 93 addi	a1, s0, 1
0x8000330c: 00 01 25 03 lw	a0, 0(sp)
0x80003310: f8 65 c2 e3 blt	a1, t1, 0x80003294
0x80003294: 00 25 97 93 slli	a5, a1, 2
0x80003298: 00 f5 06 33 add	a2, a0, a5
0x8000329c: 00 15 87 13 addi	a4, a1, 1
0x800032a0: 00 06 26 83 lw	a3, 0(a2)
0x800032a4: 08 67 52 63 bge	a4, t1, 0x80003328
0x80003328: 00 05 83 13 addi	t1, a1, 0
0x8000332c: f6 b5 c0 e3 blt	a1, a1, 0x8000328c
0x80003330: 01 01 20 83 lw	ra, 16(sp)
0x80003334: 00 c1 24 03 lw	s0, 12(sp)
0x80003338: 00 81 24 83 lw	s1, 8(sp)
0x8000333c: 01 41 01 13 addi	sp, sp, 20
0x80003340: 00 00 80 67 jalr	zero, 0(ra)
0x80003304: 00 41 23 03 lw	t1, 4(sp)
0x80003308: 00 14 05 93 addi	a1, s0, 1
0x8000330c: 00 01 25 03 lw	a0, 0(sp)
0x80003310: f8 65 c2 e3 blt	a1, t1, 0x80003294
0x80003294: 00 25 97 93 slli	a5, a1, 2
0x80003298: 00 f5 06 33 add	a2, a0, a5
0x8000329c: 00 15 87 13 addi	a4, a1, 1
0x800032a0: 00 06 26 83 lw	a3, 0(a2)
0x800032a4: 08 67 52 63 bge	a4, t1, 0x80003328
0x800032a8: 00 47 87 93 addi	a5, a5, 4
0x800032ac: 00 f5 07 b3 add	a5, a0, a5
0x800032b0: 00 05 84 13 addi	s0, a1, 0
0x800032b4: 00 07 a2 83 lw	t0, 0(a5)
0x800032b8: 00 d2 de 63 bge	t0, a3, 0x800032d4
0x800032d4: 00 47 87 93 addi	a5, a5, 4
0x800032d8: fc f4 9e e3 bne	s1, a5, 0x800032b4
0x800032b4: 00 07 a2 83 lw	t0, 0(a5)
0x800032b8: 00 d2 de 63 bge	t0, a3, 0x800032d4
0x800032d4: 00 47 87 93 addi	a5, a5, 4
0x800032d8: fc f4 9e e3 bne	s1, a5, 0x800032b4
0x800032b4: 00 07 a2 83 lw	t0, 0(a5)
0x800032b8: 00 d2 de 63 bge	t0, a3, 0x800032d4
0x800032d4: 00 47 87 93 addi	a5, a5, 4
0x800032d8: fc f4 9e e3 bne	s1, a5, 0x800032b4
0x800032b4: 00 07 a2 83 lw	t0, 0(a5)
0x800032b8: 00 d2 de 63 bge	t0, a3, 0x800032d4
0x800032bc: 00 14 04 13 addi	s0, s0, 1
0x800032c0: 00 24 17 13 slli	a4, s0, 2
0x800032c4: 00 e5 07 33 add	a4, a0, a4
0x800032c8: 00 07 23 83 lw	t2, 0(a4)
0x800032cc: 00 57 20 23 sw	t0, 0(a4)
0x800032d0: 00 77 a0 23 sw	t2, 0(a5)
0x800032d4: 00 47 87 93 addi	a5, a5, 4
0x800032d8: fc f4 9e e3 bne	s1, a5, 0x800032b4
0x800032b4: 00 07 a2 83 lw	t0, 0(a5)
0x800032b8: 00 d2 de 63 bge	t0, a3, 0x800032d4
0x800032d4: 00 47 87 93 addi	a5, a5, 4
0x800032d8: fc f4 9e e3 bne	s1, a5, 0x800032b4
0x800032dc: 00 24 17 93 slli	a5, s0, 2
0x800032e0: 00 06 26 83 lw	a3, 0(a2)
0x800032e4: 00 f5 07 b3 add	a5, a0, a5
0x800032e8: 00 07 a7 03 lw	a4, 0(a5)
0x800032ec: 00 d7 a0 23 sw	a3, 0(a5)
0x800032f0: 00 61 22 23 sw	t1, 4(sp)
0x800032f4: 00 e6 20 23 sw	a4, 0(a2)
0x800032f8: 00 04 06 13 addi	a2, s0, 0
0x800032fc: 00 a1 20 23 sw	a0, 0(sp)
0x80003300: f7 5f f0 ef jal	ra, 0x80003274
0x80003274: 00 06 03 13 addi	t1, a2, 0
0x80003278: 0c c5 d6 63 bge	a1, a2, 0x80003344
0x8000327c: fe c1 01 13 addi	sp, sp, -20
0x80003280: 00 11 28 23 sw	ra, 16(sp)
0x80003284: 00 81 26 23 sw	s0, 12(sp)
0x80003288: 00 91 24 23 sw	s1, 8(sp)
0x8000328c: 00 23 14 93 slli	s1, t1, 2
0x80003290: 00 95 04 b3 add	s1, a0, s1
0x80003294: 00 25 97 93 slli	a5, a1, 2
0x80003298: 00 f5 06 33 add	a2, a0, a5
0x8000329c: 00 15 87 13 addi	a4, a1, 1
0x800032a0: 00 06 26 83 lw	a3, 0(a2)
0x800032a4: 08 67 52 63 bge	a4, t1, 0x80003328
0x80003328: 00 05 83 13 addi	t1, a1, 0
0x8000332c: f6 b5 c0 e3 blt	a1, a1, 0x8000328c
0x80003330: 01 01 20 83 lw	ra, 16(sp)
0x80003334: 00 c1 24 03 lw	s0, 12(sp)
0x80003338: 00 81 24 83 lw	s1, 8(sp)
0x8000333c: 01 41 01 13 addi	sp, sp, 20
0x80003340: 00 00 80 67 jalr	zero, 0(ra)
0x80003304: 00 41 23 03 lw	t1, 4(sp)
0x80003308: 00 14 05 93 addi	a1, s0, 1
0x8000330c: 00 01 25 03 lw	a0, 0(sp)
0x80003310: f8 65 c2 e3 blt	a1, t1, 0x80003294
0x80003294: 00 25 97 93 slli	a5, a1, 2
0x80003298: 00 f5 06 33 add	a2, a0, a5
0x8000329c: 00 15 87 13 addi	a4, a1, 1
0x800032a0: 00 06 26 83 lw	a3, 0(a2)
0x800032a4: 08 67 52 63 bge	a4, t1, 0x80003328
0x800032a8: 00 47 87 93 addi	a5, a5, 4
0x800032ac: 00 f5 07 b3 add	a5, a0, a5
0x800032b0: 00 05 84 13 addi	s0, a1, 0
0x800032b4: 00 07 a2 83 lw	t0, 0(a5)
0x800032b8: 00 d2 de 63 bge	t0, a3, 0x800032d4
0x800032bc: 00 14 04 13 addi	s0, s0, 1
0x800032c0: 00 24 17 13 slli	a4, s0, 2
0x800032c4: 00 e5 07 33 add	a4, a0, a4
0x800032c8: 00 07 23 83 lw	t2, 0(a4)
0x800032cc: 00 57 20 23 sw	t0, 0(a4)
0x800032d0: 00 77 a0 23 sw	t2, 0(a5)
0x800032d4: 00 47 87 93 addi	a5, a5, 4
0x800032d8: fc f4 9e e3 bne	s1, a5, 0x800032b4
0x800032b4: 00 07 a2 83 lw	t0, 0(a5)
0x800032b8: 00 d2 de 63 bge	t0, a3, 0x800032d4
0x800032bc: 00 14 04 13 addi	s0, s0, 1
0x800032c0: 00 24 17 13 slli	a4, s0, 2
0x800032c4: 00 e5 07 33 add	a4, a0, a4
0x800032c8: 00 07 23 83 lw	t2, 0(a4)
0x800032cc: 00 57 20 23 sw	t0, 0(a4)
0x800032d0: 00 77 a0 23 sw	t2, 0(a5)
0x800032d4: 00 47 87 93 addi	a5, a5, 4
0x800032d8: fc f4 9e e3 bne	s1, a5, 0x800032b4
0x800032b4: 00 07 a2 83 lw	t0, 0(a5)
0x800032b8: 00 d2 de 63 bge	t0, a3, 0x800032d4
0x800032d4: 00 47 87 93 addi	a5, a5, 4
0x800032d8: fc f4 9e e3 bne	s1, a5, 0x800032b4
0x800032dc: 00 24 17 93 slli	a5, s0, 2
0x800032e0: 00 06 26 83 lw	a3, 0(a2)
0x800032e4: 00 f5 07 b3 add	a5, a0, a5
0x800032e8: 00 07 a7 03 lw	a4, 0(a5)
0x800032ec: 00 d7 a0 23 sw	a3, 0(a5)
0x800032f0: 00 61 22 23 sw	t1, 4(sp)
0x800032f4: 00 e6 20 23 sw	a4, 0(a2)
0x800032f8: 00 04 06 13 addi	a2, s0, 0
0x800032fc: 00 a1 20 23 sw	a0, 0(sp)
0x80003300: f7 5f f0 ef jal	ra, 0x80003274
0x80003274: 00 06 03 13 addi	t1, a2, 0
0x80003278: 0c c5 d6 63 bge	a1, a2, 0x80003344
0x8000327c: fe c1 01 13 addi	sp, sp, -20
0x80003280: 00 11 28 23 sw	ra, 16(sp)
0x80003284: 00 81 26 23 sw	s0, 12(sp)
0x80003288: 00 91 24 23 sw	s1, 8(sp)
0x8000328c: 00 23 14 93 slli	s1, t1, 2
0x80003290: 00 95 04 b3 add	s1, a0, s1
0x80003294: 00 25 97 93 slli	a5, a1, 2
0x80003298: 00 f5 06 33 add	a2, a0, a5
0x8000329c: 00 15 87 13 addi	a4, a1, 1
0x800032a0: 00 06 26 83 lw	a3, 0(a2)
0x800032a4: 08 67 52 63 bge	a4, t1, 0x80003328
0x800032a8: 00 47 87 93 addi	a5, a5, 4
0x800032ac: 00 f5 07 b3 add	a5, a0, a5
0x800032b0: 00 05 84 13 addi	s0, a1, 0
0x800032b4: 00 07 a2 83 lw	t0, 0(a5)
0x800032b8: 00 d2 de 63 bge	t0, a3, 0x800032d4
0x800032bc: 00 14 04 13 addi	s0, s0, 1
0x800032c0: 00 24 17 13 slli	a4, s0, 2
0x800032c4: 00 e5 07 33 add	a4, a0, a4
0x800032c8: 00 07 23 83 lw	t2, 0(a4)
0x800032cc: 00 57 20 23 sw	t0, 0(a4)
0x800032d0: 00 77 a0 23 sw	t2, 0(a5)
0x800032d4: 00 47 87 93 addi	a5, a5, 4
0x800032d8: fc f4 9e e3 bne	s1, a5, 0x800032b4
0x800032dc: 00 24 17 93 slli	a5, s0, 2
0x800032e0: 00 06 26 83 lw	a3, 0(a2)
0x800032e4: 00 f5 07 b3 add	a5, a0, a5
0x800032e8: 00 07 a7 03 lw	a4, 0(a5)
0x800032ec: 00 d7 a0 23 sw	a3, 0(a5)
0x800032f0: 00 61 22 23 sw	t1, 4(sp)
0x800032f4: 00 e6 20 23 sw	a4, 0(a2)
0x800032f8: 00 04 06 13 addi	a2, s0, 0
0x800032fc: 00 a1 20 23 sw	a0, 0(sp)
0x80003300: f7 5f f0 ef jal	ra, 0x80003274
0x80003274: 00 06 03 13 addi	t1, a2, 0
0x80003278: 0c c5 d6 63 bge	a1, a2, 0x80003344
0x8000327c: fe c1 01 13 addi	sp, sp, -20
0x80003280: 00 11 28 23 sw	ra, 16(sp)
0x80003284: 00 81 26 23 sw	s0, 12(sp)
0x80003288: 00 91 24 23 sw	s1, 8(sp)
0x8000328c: 00 23 14 93 slli	s1, t1, 2
0x80003290: 00 95 04 b3 add	s1, a0, s1
0x80003294: 00 25 97 93 slli	a5, a1, 2
0x80003298: 00 f5 06 33 add	a2, a0, a5
0x8000329c: 00 15 87 13 addi	a4, a1, 1
0x800032a0: 00 06 26 83 lw	a3, 0(a2)
0x800032a4: 08 67 52 63 bge	a4, t1, 0x80003328
0x80003328: 00 05 83 13 addi	t1, a1, 0
0x8000332c: f6 b5 c0 e3 blt	a1, a1, 0x8000328c
0x80003330: 01 01 20 83 lw	ra, 16(sp)
0x80003334: 00 c1 24 03 lw	s0, 12(sp)
0x80003338: 00 81 24 83 lw	s1, 8(sp)
0x8000333c: 01 41 01 13 addi	sp, sp, 20
0x80003340: 00 00 80 67 jalr	zero, 0(ra)
0x80003304: 00 41 23 03 lw	t1, 4(sp)
0x80003308: 00 14 05 93 addi	a1, s0, 1
0x8000330c: 00 01 25 03 lw	a0, 0(sp)
0x80003310: f8 65 c2 e3 blt	a1, t1, 0x80003294
0x80003314: 01 01 20 83 lw	ra, 16(sp)
0x80003318: 00 c1 24 03 lw	s0, 12(sp)
0x8000331c: 00 81 24 83 lw	s1, 8(sp)
0x80003320: 01 41 01 13 addi	sp, sp, 20
0x80003324: 00 00 80 67 jalr	zero, 0(ra)
0x80003304: 00 41 23 03 lw	t1, 4(sp)
0x80003308: 00 14 05 93 addi	a1, s0, 1
0x8000330c: 00 01 25 03 lw	a0, 0(sp)
0x80003310: f8 65 c2 e3 blt	a1, t1, 0x80003294
0x80003294: 00 25 97 93 slli	a5, a1, 2
0x80003298: 00 f5 06 33 add	a2, a0, a5
0x8000329c: 00 15 87 13 addi	a4, a1, 1
0x800032a0: 00 06 26 83 lw	a3, 0(a2)
0x800032a4: 08 67 52 63 bge	a4, t1, 0x80003328
0x80003328: 00 05 83 13 addi	t1, a1, 0
0x8000332c: f6 b5 c0 e3 blt	a1, a1, 0x8000328c
0x80003330: 01 01 20 83 lw	ra, 16(sp)
0x80003334: 00 c1 24 03 lw	s0, 12(sp)
0x80003338: 00 81 24 83 lw	s1, 8(sp)
0x8000333c: 01 41 01 13 addi	sp, sp, 20
0x80003340: 00 00 80 67 jalr	zero, 0(ra)
0x80003304: 00 41 23 03 lw	t1, 4(sp)
0x80003308: 00 14 05 93 addi	a1, s0, 1
0x8000330c: 00 01 25 03 lw	a0, 0(sp)
0x80003310: f8 65 c2 e3 blt	a1, t1, 0x80003294
0x80003294: 00 25 97 93 slli	a5, a1, 2
0x80003298: 00 f5 06 33 add	a2, a0, a5
0x8000329c: 00 15 87 13 addi	a4, a1, 1
0x800032a0: 00 06 26 83 lw	a3, 0(a2)
0x800032a4: 08 67 52 63 bge	a4, t1, 0x80003328
0x800032a8: 00 47 87 93 addi	a5, a5, 4
0x800032ac: 00 f5 07 b3 add	a5, a0, a5
0x800032b0: 00 05 84 13 addi	s0, a1, 0
0x800032b4: 00 07 a2 83 lw	t0, 0(a5)
0x800032b8: 00 d2 de 63 bge	t0, a3, 0x800032d4
0x800032d4: 00 47 87 93 addi	a5, a5, 4
0x800032d8: fc f4 9e e3 bne	s1, a5, 0x800032b4
0x800032b4: 00 07 a2 83 lw	t0, 0(a5)
0x800032b8: 00 d2 de 63 bge	t0, a3, 0x800032d4
0x800032d4: 00 47 87 93 addi	a5, a5, 4
0x800032d8: fc f4 9e e3 bne	s1, a5, 0x800032b4
0x800032b4: 00 07 a2 83 lw	t0, 0(a5)
0x800032b8: 00 d2 de 63 bge	t0, a3, 0x800032d4
0x800032d4: 00 47 87 93 addi	a5, a5, 4
0x800032d8: fc f4 9e e3 bne	s1, a5, 0x800032b4
0x800032b4: 00 07 a2 83 lw	t0, 0(a5)
0x800032b8: 00 d2 de 63 bge	t0, a3, 0x800032d4
0x800032d4: 00 47 87 93 addi	a5, a5, 4
0x800032d8: fc f4 9e e3 bne	s1, a5, 0x800032b4
0x800032b4: 00 07 a2 83 lw	t0, 0(a5)
0x800032b8: 00 d2 de 63 bge	t0, a3, 0x800032d4
0x800032bc: 00 14 04 13 addi	s0, s0, 1
0x800032c0: 00 24 17 13 slli	a4, s0, 2
0x800032c4: 00 e5 07 33 add	a4, a0, a4
0x800032c8: 00 07 23 83 lw	t2, 0(a4)
0x800032cc: 00 57 20 23 sw	t0, 0(a4)
0x800032d0: 00 77 a0 23 sw	t2, 0(a5)
0x800032d4: 00 47 87 93 addi	a5, a5, 4
0x800032d8: fc f4 9e e3 bne	s1, a5, 0x800032b4
0x800032b4: 00 07 a2 83 lw	t0, 0(a5)
0x800032b8: 00 d2 de 63 bge	t0, a3, 0x800032d4
0x800032d4: 00 47 87 93 addi	a5, a5, 4
0x800032d8: fc f4 9e e3 bne	s1, a5, 0x800032b4
0x800032b4: 00 07 a2 83 lw	t0, 0(a5)
0x800032b8: 00 d2 de 63 bge	t0, a3, 0x800032d4
0x800032bc: 00 14 04 13 addi	s0, s0, 1
0x800032c0: 00 24 17 13 slli	a4, s0, 2
0x800032c4: 00 e5 07 33 add	a4, a0, a4
0x800032c8: 00 07 23 83 lw	t2, 0(a4)
0x800032cc: 00 57 20 23 sw	t0, 0(a4)
0x800032d0: 00 77 a0 23 sw	t2, 0(a5)
0x800032d4: 00 47 87 93 addi	a5, a5, 4
0x800032d8: fc f4 9e e3 bne	s1, a5, 0x800032b4
0x800032b4: 00 07 a2 83 lw	t0, 0(a5)
0x800032b8: 00 d2 de 63 bge	t0, a3, 0x800032d4
0x800032d4: 00 47 87 93 addi	a5, a5, 4
0x800032d8: fc f4 9e e3 bne	s1, a5, 0x800032b4
0x800032b4: 00 07 a2 83 lw	t0, 0(a5)
0x800032b8: 00 d2 de 63 bge	t0, a3, 0x800032d4
0x800032d4: 00 47 87 93 addi	a5, a5, 4
0x800032d8: fc f4 9e e3 bne	s1, a5, 0x800032b4
0x800032b4: 00 07 a2 83 lw	t0, 0(a5)
0x800032b8: 00 d2 de 63 bge	t0, a3, 0x800032d4
0x800032bc: 00 14 04 13 addi	s0, s0, 1
0x800032c0: 00 24 17 13 slli	a4, s0, 2
0x800032c4: 00 e5 07 33 add	a4, a0, a4
0x800032c8: 00 07 23 83 lw	t2, 0(a4)
0x800032cc: 00 57 20 23 sw	t0, 0(a4)
0x800032d0: 00 77 a0 23 sw	t2, 0(a5)
0x800032d4: 00 47 87 93 addi	a5, a5, 4
0x800032d8: fc f4 9e e3 bne	s1, a5, 0x800032b4
0x800032b4: 00 07 a2 83 lw	t0, 0(a5)
0x800032b8: 00 d2 de 63 bge	t0, a3, 0x800032d4
0x800032d4: 00 47 87 93 addi	a5, a5, 4
0x800032d8: fc f4 9e e3 bne	s1, a5, 0x800032b4
0x800032b4: 00 07 a2 83 lw	t0, 0(a5)
0x800032b8: 00 d2 de 63 bge	t0, a3, 0x800032d4
0x800032d4: 00 47 87 93 addi	a5, a5, 4
0x800032d8: fc f4 9e e3 bne	s1, a5, 0x800032b4
0x800032b4: 00 07 a2 83 lw	t0, 0(a5)
0x800032b8: 00 d2 de 63 bge	t0, a3, 0x800032d4
0x800032d4: 00 47 87 93 addi	a5, a5, 4
0x800032d8: fc f4 9e e3 bne	s1, a5, 0x800032b4
0x800032b4: 00 07 a2 83 lw	t0, 0(a5)
0x800032b8: 00 d2 de 63 bge	t0, a3, 0x800032d4
0x800032d4: 00 47 87 93 addi	a5, a5, 4
0x800032d8: fc f4 9e e3 bne	s1, a5, 0x800032b4
0x800032b4: 00 07 a2 83 lw	t0, 0(a5)
0x800032b8: 00 d2 de 63 bge	t0, a3, 0x800032d4
0x800032bc: 00 14 04 13 addi	s0, s0, 1
0x800032c0: 00 24 17 13 slli	a4, s0, 2
0x800032c4: 00 e5 07 33 add	a4, a0, a4
0x800032c8: 00 07 23 83 lw	t2, 0(a4)
0x800032cc: 00 57 20 23 sw	t0, 0(a4)
0x800032d0: 00 77 a0 23 sw	t2, 0(a5)
0x800032d4: 00 47 87 93 addi	a5, a5, 4
0x800032d8: fc f4 9e e3 bne	s1, a5, 0x800032b4
0x800032b4: 00 07 a2 83 lw	t0, 0(a5)
0x800032b8: 00 d2 de 63 bge	t0, a3, 0x800032d4
0x800032d4: 00 47 87 93 addi	a5, a5, 4
0x800032d8: fc f4 9e e3 bne	s1, a5, 0x800032b4
0x800032b4: 00 07 a2 83 lw	t0, 0(a5)
0x800032b8: 00 d2 de 63 bge	t0, a3, 0x800032d4
0x800032d4: 00 47 87 93 addi	a5, a5, 4
0x800032d8: fc f4 9e e3 bne	s1, a5, 0x800032b4
0x800032b4: 00 07 a2 83 lw	t0, 0(a5)
0x800032b8: 00 d2 de 63 bge	t0, a3, 0x800032d4
0x800032d4: 00 47 87 93 addi	a5, a5, 4
0x800032d8: fc f4 9e e3 bne	s1, a5, 0x800032b4
0x800032b4: 00 07 a2 83 lw	t0, 0(a5)
0x800032b8: 00 d2 de 63 bge	t0, a3, 0x800032d4
0x800032d4: 00 47 87 93 addi	a5, a5, 4
0x800032d8: fc f4 9e e3 bne	s1, a5, 0x800032b4
0x800032b4: 00 07 a2 83 lw	t0, 0(a5)
0x800032b8: 00 d2 de 63 bge	t0, a3, 0x800032d4
0x800032d4: 00 47 87 93 addi	a5, a5, 4
0x800032d8: fc f4 9e e3 bne	s1, a5, 0x800032b4
0x800032b4: 00 07 a2 83 lw	t0, 0(a5)
0x800032b8: 00 d2 de 63 bge	t0, a3, 0x800032d4
0x800032bc: 00 14 04 13 addi	s0, s0, 1
0x800032c0: 00 24 17 13 slli	a4, s0, 2
0x800032c4: 00 e5 07 33 add	a4, a0, a4
0x800032c8: 00 07 23 83 lw	t2, 0(a4)
0x800032cc: 00 57 20 23 sw	t0, 0(a4)
0x800032d0: 00 77 a0 23 sw	t2, 0(a5)
0x800032d4: 00 47 87 93 addi	a5, a5, 4
0x800032d8: fc f4 9e e3 bne	s1, a5, 0x800032b4
0x800032b4: 00 07 a2 83 lw	t0, 0(a5)
0x800032b8: 00 d2 de 63 bge	t0, a3, 0x800032d4
0x800032d4: 00 47 87 93 addi	a5, a5, 4
0x800032d8: fc f4 9e e3 bne	s1, a5, 0x800032b4
0x800032b4: 00 07 a2 83 lw	t0, 0(a5)
0x800032b8: 00 d2 de 63 bge	t0, a3, 0x800032d4
0x800032d4: 00 47 87 93 addi	a5, a5, 4
0x800032d8: fc f4 9e e3 bne	s1, a5, 0x800032b4
0x800032b4: 00 07 a2 83 lw	t0, 0(a5)
0x800032b8: 00 d2 de 63 bge	t0, a3, 0x800032d4
0x800032d4: 00 47 87 93 addi	a5, a5, 4
0x800032d8: fc f4 9e e3 bne	s1, a5, 0x800032b4
0x800032b4: 00 07 a2 83 lw	t0, 0(a5)
0x800032b8: 00 d2 de 63 bge	t0, a3, 0x800032d4
0x800032d4: 00 47 87 93 addi	a5, a5, 4
0x800032d8: fc f4 9e e3 bne	s1, a5, 0x800032b4
0x800032b4: 00 07 a2 83 lw	t0, 0(a5)
0x800032b8: 00 d2 de 63 bge	t0, a3, 0x800032d4
0x800032d4: 00 47 87 93 addi	a5, a5, 4
0x800032d8: fc f4 9e e3 bne	s1, a5, 0x800032b4
0x800032b4: 00 07 a2 83 lw	t0, 0(a5)
0x800032b8: 00 d2 de 63 bge	t0, a3, 0x800032d4
0x800032d4: 00 47 87 93 addi	a5, a5, 4
0x800032d8: fc f4 9e e3 bne	s1, a5, 0x800032b4
0x800032b4: 00 07 a2 83 lw	t0, 0(a5)
0x800032b8: 00 d2 de 63 bge	t0, a3, 0x800032d4
0x800032d4: 00 47 87 93 addi	a5, a5, 4
0x800032d8: fc f4 9e e3 bne	s1, a5, 0x800032b4
0x800032b4: 00 07 a2 83 lw	t0, 0(a5)
0x800032b8: 00 d2 de 63 bge	t0, a3, 0x800032d4
0x800032d4: 00 47 87 93 addi	a5, a5, 4
0x800032d8: fc f4 9e e3 bne	s1, a5, 0x800032b4
0x800032b4: 00 07 a2 83 lw	t0, 0(a5)
0x800032b8: 00 d2 de 63 bge	t0, a3, 0x800032d4
0x800032bc: 00 14 04 13 addi	s0, s0, 1
0x800032c0: 00 24 17 13 slli	a4, s0, 2
0x800032c4: 00 e5 07 33 add	a4, a0, a4
0x800032c8: 00 07 23 83 lw	t2, 0(a4)
0x800032cc: 00 57 20 23 sw	t0, 0(a4)
0x800032d0: 00 77 a0 23 sw	t2, 0(a5)
0x800032d4: 00 47 87 93 addi	a5, a5, 4
0x800032d8: fc f4 9e e3 bne	s1, a5, 0x800032b4
0x800032b4: 00 07 a2 83 lw	t0, 0(a5)
0x800032b8: 00 d2 de 63 bge	t0, a3, 0x800032d4
0x800032d4: 00 47 87 93 addi	a5, a5, 4
0x800032d8: fc f4 9e e3 bne	s1, a5, 0x800032b4
0x800032b4: 00 07 a2 83 lw	t0, 0(a5)
0x800032b8: 00 d2 de 63 bge	t0, a3, 0x800032d4
0x800032d4: 00 47 87 93 addi	a5, a5, 4
0x800032d8: fc f4 9e e3 bne	s1, a5, 0x800032b4
0x800032b4: 00 07 a2 83 lw	t0, 0(a5)
0x800032b8: 00 d2 de 63 bge	t0, a3, 0x800032d4
0x800032d4: 00 47 87 93 addi	a5, a5, 4
0x800032d8: fc f4 9e e3 bne	s1, a5, 0x800032b4
0x800032b4: 00 07 a2 83 lw	t0, 0(a5)
0x800032b8: 00 d2 de 63 bge	t0, a3, 0x800032d4
0x800032bc: 00 14 04 13 addi	s0, s0, 1
0x800032c0: 00 24 17 13 slli	a4, s0, 2
0x800032c4: 00 e5 07 33 add	a4, a0, a4
0x800032c8: 00 07 23 83 lw	t2, 0(a4)
0x800032cc: 00 57 20 23 sw	t0, 0(a4)
0x800032d0: 00 77 a0 23 sw	t2, 0(a5)
0x800032d4: 00 47 87 93 addi	a5, a5, 4
0x800032d8: fc f4 9e e3 bne	s1, a5, 0x800032b4
0x800032b4: 00 07 a2 83 lw	t0, 0(a5)
0x800032b8: 00 d2 de 63 bge	t0, a3, 0x800032d4
0x800032d4: 00 47 87 93 addi	a5, a5, 4
0x800032d8: fc f4 9e e3 bne	s1, a5, 0x800032b4
0x800032b4: 00 07 a2 83 lw	t0, 0(a5)
0x800032b8: 00 d2 de 63 bge	t0, a3, 0x800032d4
0x800032bc: 00 14 04 13 addi	s0, s0, 1
0x800032c0: 00 24 17 13 slli	a4, s0, 2
0x800032c4: 00 e5 07 33 add	a4, a0, a4
0x800032c8: 00 07 23 83 lw	t2, 0(a4)
0x800032cc: 00 57 20 23 sw	t0, 0(a4)
0x800032d0: 00 77 a0 23 sw	t2, 0(a5)
0x800032d4: 00 47 87 93 addi	a5, a5, 4
0x800032d8: fc f4 9e e3 bne	s1, a5, 0x800032b4
0x800032b4: 00 07 a2 83 lw	t0, 0(a5)
0x800032b8: 00 d2 de 63 bge	t0, a3, 0x800032d4
0x800032d4: 00 47 87 93 addi	a5, a5, 4
0x800032d8: fc f4 9e e3 bne	s1, a5, 0x800032b4
0x800032b4: 00 07 a2 83 lw	t0, 0(a5)
0x800032b8: 00 d2 de 63 bge	t0, a3, 0x800032d4
0x800032bc: 00 14 04 13 addi	s0, s0, 1
0x800032c0: 00 24 17 13 slli	a4, s0, 2
0x800032c4: 00 e5 07 33 add	a4, a0, a4
0x800032c8: 00 07 23 83 lw	t2, 0(a4)
0x800032cc: 00 57 20 23 sw	t0, 0(a4)
0x800032d0: 00 77 a0 23 sw	t2, 0(a5)
0x800032d4: 00 47 87 93 addi	a5, a5, 4
0x800032d8: fc f4 9e e3 bne	s1, a5, 0x800032b4
0x800032b4: 00 07 a2 83 lw	t0, 0(a5)
0x800032b8: 00 d2 de 63 bge	t0, a3, 0x800032d4
0x800032d4: 00 47 87 93 addi	a5, a5, 4
0x800032d8: fc f4 9e e3 bne	s1, a5, 0x800032b4
0x800032b4: 00 07 a2 83 lw	t0, 0(a5)
0x800032b8: 00 d2 de 63 bge	t0, a3, 0x800032d4
0x800032d4: 00 47 87 93 addi	a5, a5, 4
0x800032d8: fc f4 9e e3 bne	s1, a5, 0x800032b4
0x800032b4: 00 07 a2 83 lw	t0, 0(a5)
