
/home/xietianle/ysyx-workbench/am-kernels/kernels/yield-os/build/yield-os-riscv32-nemu.elf:     file format elf32-littleriscv


Disassembly of section .text:

80000000 <_start>:
80000000:	00000413          	li	s0,0
80000004:	00021117          	auipc	sp,0x21
80000008:	ffc10113          	addi	sp,sp,-4 # 80021000 <_end>
8000000c:	184000ef          	jal	ra,80000190 <_trm_init>

80000010 <schedule>:
80000010:	00001717          	auipc	a4,0x1
80000014:	84870713          	addi	a4,a4,-1976 # 80000858 <current>
80000018:	00072683          	lw	a3,0(a4)
8000001c:	00001617          	auipc	a2,0x1
80000020:	84060613          	addi	a2,a2,-1984 # 8000085c <pcb>
80000024:	00009797          	auipc	a5,0x9
80000028:	83878793          	addi	a5,a5,-1992 # 8000885c <pcb+0x8000>
8000002c:	00b6a023          	sw	a1,0(a3)
80000030:	00c68463          	beq	a3,a2,80000038 <schedule+0x28>
80000034:	00060793          	mv	a5,a2
80000038:	0007a503          	lw	a0,0(a5)
8000003c:	00f72023          	sw	a5,0(a4)
80000040:	00008067          	ret

80000044 <f>:
80000044:	fe010113          	addi	sp,sp,-32
80000048:	00112e23          	sw	ra,28(sp)
8000004c:	00812c23          	sw	s0,24(sp)
80000050:	00912a23          	sw	s1,20(sp)
80000054:	00200793          	li	a5,2
80000058:	00050713          	mv	a4,a0
8000005c:	00a7f463          	bgeu	a5,a0,80000064 <f+0x20>
80000060:	00000713          	li	a4,0
80000064:	00000797          	auipc	a5,0x0
80000068:	71478793          	addi	a5,a5,1812 # 80000778 <_etext>
8000006c:	00e787b3          	add	a5,a5,a4
80000070:	0007c483          	lbu	s1,0(a5)
80000074:	00018437          	lui	s0,0x18
80000078:	69f40413          	addi	s0,s0,1695 # 1869f <_entry_offset+0x1869f>
8000007c:	00048513          	mv	a0,s1
80000080:	0f8000ef          	jal	ra,80000178 <putch>
80000084:	00012623          	sw	zero,12(sp)
80000088:	00c12783          	lw	a5,12(sp)
8000008c:	00f44c63          	blt	s0,a5,800000a4 <f+0x60>
80000090:	00c12783          	lw	a5,12(sp)
80000094:	00178793          	addi	a5,a5,1
80000098:	00f12623          	sw	a5,12(sp)
8000009c:	00c12783          	lw	a5,12(sp)
800000a0:	fef458e3          	bge	s0,a5,80000090 <f+0x4c>
800000a4:	220000ef          	jal	ra,800002c4 <yield>
800000a8:	fd5ff06f          	j	8000007c <f+0x38>

800000ac <main>:
800000ac:	fe010113          	addi	sp,sp,-32
800000b0:	00000517          	auipc	a0,0x0
800000b4:	f6050513          	addi	a0,a0,-160 # 80000010 <schedule>
800000b8:	00112e23          	sw	ra,28(sp)
800000bc:	00812c23          	sw	s0,24(sp)
800000c0:	00912a23          	sw	s1,20(sp)
800000c4:	00008417          	auipc	s0,0x8
800000c8:	79840413          	addi	s0,s0,1944 # 8000885c <pcb+0x8000>
800000cc:	16c000ef          	jal	ra,80000238 <cte_init>
800000d0:	00000497          	auipc	s1,0x0
800000d4:	78c48493          	addi	s1,s1,1932 # 8000085c <pcb>
800000d8:	00040593          	mv	a1,s0
800000dc:	00100693          	li	a3,1
800000e0:	00000617          	auipc	a2,0x0
800000e4:	f6460613          	addi	a2,a2,-156 # 80000044 <f>
800000e8:	00048513          	mv	a0,s1
800000ec:	16c000ef          	jal	ra,80000258 <kcontext>
800000f0:	00050793          	mv	a5,a0
800000f4:	00200693          	li	a3,2
800000f8:	00000617          	auipc	a2,0x0
800000fc:	f4c60613          	addi	a2,a2,-180 # 80000044 <f>
80000100:	00010597          	auipc	a1,0x10
80000104:	75c58593          	addi	a1,a1,1884 # 8001085c <pcb_boot>
80000108:	00040513          	mv	a0,s0
8000010c:	00f4a023          	sw	a5,0(s1)
80000110:	148000ef          	jal	ra,80000258 <kcontext>
80000114:	00a42023          	sw	a0,0(s0)
80000118:	1ac000ef          	jal	ra,800002c4 <yield>
8000011c:	00000417          	auipc	s0,0x0
80000120:	66040413          	addi	s0,s0,1632 # 8000077c <_etext+0x4>
80000124:	04100513          	li	a0,65
80000128:	00140413          	addi	s0,s0,1
8000012c:	04c000ef          	jal	ra,80000178 <putch>
80000130:	00044503          	lbu	a0,0(s0)
80000134:	fe051ae3          	bnez	a0,80000128 <main+0x7c>
80000138:	00000417          	auipc	s0,0x0
8000013c:	65040413          	addi	s0,s0,1616 # 80000788 <_etext+0x10>
80000140:	05300513          	li	a0,83
80000144:	00140413          	addi	s0,s0,1
80000148:	030000ef          	jal	ra,80000178 <putch>
8000014c:	00044503          	lbu	a0,0(s0)
80000150:	fe051ae3          	bnez	a0,80000144 <main+0x98>
80000154:	00000417          	auipc	s0,0x0
80000158:	64c40413          	addi	s0,s0,1612 # 800007a0 <_etext+0x28>
8000015c:	02000513          	li	a0,32
80000160:	00140413          	addi	s0,s0,1
80000164:	014000ef          	jal	ra,80000178 <putch>
80000168:	00044503          	lbu	a0,0(s0)
8000016c:	fe051ae3          	bnez	a0,80000160 <main+0xb4>
80000170:	00100513          	li	a0,1
80000174:	010000ef          	jal	ra,80000184 <halt>

80000178 <putch>:
80000178:	a00007b7          	lui	a5,0xa0000
8000017c:	3ea78c23          	sb	a0,1016(a5) # a00003f8 <_end+0x1ffdf3f8>
80000180:	00008067          	ret

80000184 <halt>:
80000184:	00050513          	mv	a0,a0
80000188:	00100073          	ebreak
8000018c:	0000006f          	j	8000018c <halt+0x8>

80000190 <_trm_init>:
80000190:	ff010113          	addi	sp,sp,-16
80000194:	00000517          	auipc	a0,0x0
80000198:	6c050513          	addi	a0,a0,1728 # 80000854 <mainargs>
8000019c:	00112623          	sw	ra,12(sp)
800001a0:	f0dff0ef          	jal	ra,800000ac <main>
800001a4:	00050513          	mv	a0,a0
800001a8:	00100073          	ebreak
800001ac:	0000006f          	j	800001ac <_trm_init+0x1c>

800001b0 <__am_irq_handle>:
800001b0:	00018797          	auipc	a5,0x18
800001b4:	6ac7a783          	lw	a5,1708(a5) # 8001885c <user_handler>
800001b8:	00050593          	mv	a1,a0
800001bc:	04078c63          	beqz	a5,80000214 <__am_irq_handle+0x64>
800001c0:	08052603          	lw	a2,128(a0)
800001c4:	fd010113          	addi	sp,sp,-48
800001c8:	02112623          	sw	ra,44(sp)
800001cc:	00b00693          	li	a3,11
800001d0:	00400713          	li	a4,4
800001d4:	02d60663          	beq	a2,a3,80000200 <__am_irq_handle+0x50>
800001d8:	00e12023          	sw	a4,0(sp)
800001dc:	00012223          	sw	zero,4(sp)
800001e0:	00012423          	sw	zero,8(sp)
800001e4:	00012623          	sw	zero,12(sp)
800001e8:	00010513          	mv	a0,sp
800001ec:	000780e7          	jalr	a5
800001f0:	02050463          	beqz	a0,80000218 <__am_irq_handle+0x68>
800001f4:	02c12083          	lw	ra,44(sp)
800001f8:	03010113          	addi	sp,sp,48
800001fc:	00008067          	ret
80000200:	08852683          	lw	a3,136(a0)
80000204:	00100713          	li	a4,1
80000208:	00468693          	addi	a3,a3,4
8000020c:	08d52423          	sw	a3,136(a0)
80000210:	fc9ff06f          	j	800001d8 <__am_irq_handle+0x28>
80000214:	00008067          	ret
80000218:	01c00613          	li	a2,28
8000021c:	00000597          	auipc	a1,0x0
80000220:	5d458593          	addi	a1,a1,1492 # 800007f0 <_etext+0x78>
80000224:	00000517          	auipc	a0,0x0
80000228:	61450513          	addi	a0,a0,1556 # 80000838 <_etext+0xc0>
8000022c:	1e0000ef          	jal	ra,8000040c <printf>
80000230:	00100513          	li	a0,1
80000234:	f51ff0ef          	jal	ra,80000184 <halt>

80000238 <cte_init>:
80000238:	00050793          	mv	a5,a0
8000023c:	00000717          	auipc	a4,0x0
80000240:	09470713          	addi	a4,a4,148 # 800002d0 <__am_asm_trap>
80000244:	30571073          	csrw	mtvec,a4
80000248:	00100513          	li	a0,1
8000024c:	00018717          	auipc	a4,0x18
80000250:	60f72823          	sw	a5,1552(a4) # 8001885c <user_handler>
80000254:	00008067          	ret

80000258 <kcontext>:
80000258:	fd010113          	addi	sp,sp,-48
8000025c:	01312e23          	sw	s3,28(sp)
80000260:	f7058993          	addi	s3,a1,-144
80000264:	02812423          	sw	s0,40(sp)
80000268:	03212023          	sw	s2,32(sp)
8000026c:	00058413          	mv	s0,a1
80000270:	00060913          	mv	s2,a2
80000274:	00098513          	mv	a0,s3
80000278:	09000613          	li	a2,144
8000027c:	00000593          	li	a1,0
80000280:	02912223          	sw	s1,36(sp)
80000284:	02112623          	sw	ra,44(sp)
80000288:	00068493          	mv	s1,a3
8000028c:	4cc000ef          	jal	ra,80000758 <memset>
80000290:	000027b7          	lui	a5,0x2
80000294:	80078793          	addi	a5,a5,-2048 # 1800 <_entry_offset+0x1800>
80000298:	ff242c23          	sw	s2,-8(s0)
8000029c:	f8942c23          	sw	s1,-104(s0)
800002a0:	02c12083          	lw	ra,44(sp)
800002a4:	fef42a23          	sw	a5,-12(s0)
800002a8:	02812403          	lw	s0,40(sp)
800002ac:	02412483          	lw	s1,36(sp)
800002b0:	02012903          	lw	s2,32(sp)
800002b4:	00098513          	mv	a0,s3
800002b8:	01c12983          	lw	s3,28(sp)
800002bc:	03010113          	addi	sp,sp,48
800002c0:	00008067          	ret

800002c4 <yield>:
800002c4:	fff00893          	li	a7,-1
800002c8:	00000073          	ecall
800002cc:	00008067          	ret

800002d0 <__am_asm_trap>:
800002d0:	f7410113          	addi	sp,sp,-140
800002d4:	00112223          	sw	ra,4(sp)
800002d8:	00312623          	sw	gp,12(sp)
800002dc:	00412823          	sw	tp,16(sp)
800002e0:	00512a23          	sw	t0,20(sp)
800002e4:	00612c23          	sw	t1,24(sp)
800002e8:	00712e23          	sw	t2,28(sp)
800002ec:	02812023          	sw	s0,32(sp)
800002f0:	02912223          	sw	s1,36(sp)
800002f4:	02a12423          	sw	a0,40(sp)
800002f8:	02b12623          	sw	a1,44(sp)
800002fc:	02c12823          	sw	a2,48(sp)
80000300:	02d12a23          	sw	a3,52(sp)
80000304:	02e12c23          	sw	a4,56(sp)
80000308:	02f12e23          	sw	a5,60(sp)
8000030c:	05012023          	sw	a6,64(sp)
80000310:	05112223          	sw	a7,68(sp)
80000314:	05212423          	sw	s2,72(sp)
80000318:	05312623          	sw	s3,76(sp)
8000031c:	05412823          	sw	s4,80(sp)
80000320:	05512a23          	sw	s5,84(sp)
80000324:	05612c23          	sw	s6,88(sp)
80000328:	05712e23          	sw	s7,92(sp)
8000032c:	07812023          	sw	s8,96(sp)
80000330:	07912223          	sw	s9,100(sp)
80000334:	07a12423          	sw	s10,104(sp)
80000338:	07b12623          	sw	s11,108(sp)
8000033c:	07c12823          	sw	t3,112(sp)
80000340:	07d12a23          	sw	t4,116(sp)
80000344:	07e12c23          	sw	t5,120(sp)
80000348:	07f12e23          	sw	t6,124(sp)
8000034c:	342022f3          	csrr	t0,mcause
80000350:	30002373          	csrr	t1,mstatus
80000354:	341023f3          	csrr	t2,mepc
80000358:	08512023          	sw	t0,128(sp)
8000035c:	08612223          	sw	t1,132(sp)
80000360:	08712423          	sw	t2,136(sp)
80000364:	00020537          	lui	a0,0x20
80000368:	00a36333          	or	t1,t1,a0
8000036c:	30031073          	csrw	mstatus,t1
80000370:	00010513          	mv	a0,sp
80000374:	e3dff0ef          	jal	ra,800001b0 <__am_irq_handle>
80000378:	00050113          	mv	sp,a0
8000037c:	08412303          	lw	t1,132(sp)
80000380:	08812383          	lw	t2,136(sp)
80000384:	30031073          	csrw	mstatus,t1
80000388:	34139073          	csrw	mepc,t2
8000038c:	00412083          	lw	ra,4(sp)
80000390:	00c12183          	lw	gp,12(sp)
80000394:	01012203          	lw	tp,16(sp)
80000398:	01412283          	lw	t0,20(sp)
8000039c:	01812303          	lw	t1,24(sp)
800003a0:	01c12383          	lw	t2,28(sp)
800003a4:	02012403          	lw	s0,32(sp)
800003a8:	02412483          	lw	s1,36(sp)
800003ac:	02812503          	lw	a0,40(sp)
800003b0:	02c12583          	lw	a1,44(sp)
800003b4:	03012603          	lw	a2,48(sp)
800003b8:	03412683          	lw	a3,52(sp)
800003bc:	03812703          	lw	a4,56(sp)
800003c0:	03c12783          	lw	a5,60(sp)
800003c4:	04012803          	lw	a6,64(sp)
800003c8:	04412883          	lw	a7,68(sp)
800003cc:	04812903          	lw	s2,72(sp)
800003d0:	04c12983          	lw	s3,76(sp)
800003d4:	05012a03          	lw	s4,80(sp)
800003d8:	05412a83          	lw	s5,84(sp)
800003dc:	05812b03          	lw	s6,88(sp)
800003e0:	05c12b83          	lw	s7,92(sp)
800003e4:	06012c03          	lw	s8,96(sp)
800003e8:	06412c83          	lw	s9,100(sp)
800003ec:	06812d03          	lw	s10,104(sp)
800003f0:	06c12d83          	lw	s11,108(sp)
800003f4:	07012e03          	lw	t3,112(sp)
800003f8:	07412e83          	lw	t4,116(sp)
800003fc:	07812f03          	lw	t5,120(sp)
80000400:	07c12f83          	lw	t6,124(sp)
80000404:	08c10113          	addi	sp,sp,140
80000408:	30200073          	mret

8000040c <printf>:
8000040c:	bb010113          	addi	sp,sp,-1104
80000410:	42812423          	sw	s0,1064(sp)
80000414:	41912223          	sw	s9,1028(sp)
80000418:	44f12223          	sw	a5,1092(sp)
8000041c:	42112623          	sw	ra,1068(sp)
80000420:	42912223          	sw	s1,1060(sp)
80000424:	43212023          	sw	s2,1056(sp)
80000428:	41312e23          	sw	s3,1052(sp)
8000042c:	41412c23          	sw	s4,1048(sp)
80000430:	41512a23          	sw	s5,1044(sp)
80000434:	41612823          	sw	s6,1040(sp)
80000438:	41712623          	sw	s7,1036(sp)
8000043c:	41812423          	sw	s8,1032(sp)
80000440:	41a12023          	sw	s10,1024(sp)
80000444:	3fb12e23          	sw	s11,1020(sp)
80000448:	42b12a23          	sw	a1,1076(sp)
8000044c:	42c12c23          	sw	a2,1080(sp)
80000450:	42d12e23          	sw	a3,1084(sp)
80000454:	44e12023          	sw	a4,1088(sp)
80000458:	45012423          	sw	a6,1096(sp)
8000045c:	45112623          	sw	a7,1100(sp)
80000460:	00050c93          	mv	s9,a0
80000464:	00054503          	lbu	a0,0(a0) # 20000 <_entry_offset+0x20000>
80000468:	43410793          	addi	a5,sp,1076
8000046c:	00f12223          	sw	a5,4(sp)
80000470:	00000413          	li	s0,0
80000474:	02050a63          	beqz	a0,800004a8 <printf+0x9c>
80000478:	02500993          	li	s3,37
8000047c:	03000b13          	li	s6,48
80000480:	00900493          	li	s1,9
80000484:	00810a13          	addi	s4,sp,8
80000488:	00910a93          	addi	s5,sp,9
8000048c:	05350e63          	beq	a0,s3,800004e8 <printf+0xdc>
80000490:	ce9ff0ef          	jal	ra,80000178 <putch>
80000494:	00140413          	addi	s0,s0,1
80000498:	000c8b93          	mv	s7,s9
8000049c:	001bc503          	lbu	a0,1(s7)
800004a0:	001b8c93          	addi	s9,s7,1
800004a4:	fe0514e3          	bnez	a0,8000048c <printf+0x80>
800004a8:	42c12083          	lw	ra,1068(sp)
800004ac:	00040513          	mv	a0,s0
800004b0:	42812403          	lw	s0,1064(sp)
800004b4:	42412483          	lw	s1,1060(sp)
800004b8:	42012903          	lw	s2,1056(sp)
800004bc:	41c12983          	lw	s3,1052(sp)
800004c0:	41812a03          	lw	s4,1048(sp)
800004c4:	41412a83          	lw	s5,1044(sp)
800004c8:	41012b03          	lw	s6,1040(sp)
800004cc:	40c12b83          	lw	s7,1036(sp)
800004d0:	40812c03          	lw	s8,1032(sp)
800004d4:	40412c83          	lw	s9,1028(sp)
800004d8:	40012d03          	lw	s10,1024(sp)
800004dc:	3fc12d83          	lw	s11,1020(sp)
800004e0:	45010113          	addi	sp,sp,1104
800004e4:	00008067          	ret
800004e8:	001cc603          	lbu	a2,1(s9)
800004ec:	001c8b93          	addi	s7,s9,1
800004f0:	02000913          	li	s2,32
800004f4:	01661863          	bne	a2,s6,80000504 <printf+0xf8>
800004f8:	002cc603          	lbu	a2,2(s9)
800004fc:	002c8b93          	addi	s7,s9,2
80000500:	03000913          	li	s2,48
80000504:	fd060693          	addi	a3,a2,-48
80000508:	0ff6f793          	zext.b	a5,a3
8000050c:	00000c93          	li	s9,0
80000510:	02f4e463          	bltu	s1,a5,80000538 <printf+0x12c>
80000514:	001bc603          	lbu	a2,1(s7)
80000518:	002c9793          	slli	a5,s9,0x2
8000051c:	019787b3          	add	a5,a5,s9
80000520:	00179793          	slli	a5,a5,0x1
80000524:	00f68cb3          	add	s9,a3,a5
80000528:	fd060693          	addi	a3,a2,-48
8000052c:	0ff6f793          	zext.b	a5,a3
80000530:	001b8b93          	addi	s7,s7,1
80000534:	fef4f0e3          	bgeu	s1,a5,80000514 <printf+0x108>
80000538:	07300793          	li	a5,115
8000053c:	02f60663          	beq	a2,a5,80000568 <printf+0x15c>
80000540:	07800793          	li	a5,120
80000544:	08f60c63          	beq	a2,a5,800005dc <printf+0x1d0>
80000548:	06400793          	li	a5,100
8000054c:	04f60c63          	beq	a2,a5,800005a4 <printf+0x198>
80000550:	02500513          	li	a0,37
80000554:	c25ff0ef          	jal	ra,80000178 <putch>
80000558:	000bc503          	lbu	a0,0(s7)
8000055c:	00240413          	addi	s0,s0,2
80000560:	c19ff0ef          	jal	ra,80000178 <putch>
80000564:	f39ff06f          	j	8000049c <printf+0x90>
80000568:	00412783          	lw	a5,4(sp)
8000056c:	0007a903          	lw	s2,0(a5)
80000570:	00478793          	addi	a5,a5,4
80000574:	00f12223          	sw	a5,4(sp)
80000578:	00094503          	lbu	a0,0(s2)
8000057c:	f20500e3          	beqz	a0,8000049c <printf+0x90>
80000580:	00040c93          	mv	s9,s0
80000584:	bf5ff0ef          	jal	ra,80000178 <putch>
80000588:	001c8c93          	addi	s9,s9,1
8000058c:	408c87b3          	sub	a5,s9,s0
80000590:	00f907b3          	add	a5,s2,a5
80000594:	0007c503          	lbu	a0,0(a5)
80000598:	fe0516e3          	bnez	a0,80000584 <printf+0x178>
8000059c:	000c8413          	mv	s0,s9
800005a0:	efdff06f          	j	8000049c <printf+0x90>
800005a4:	00412783          	lw	a5,4(sp)
800005a8:	00140d13          	addi	s10,s0,1
800005ac:	0007ad83          	lw	s11,0(a5)
800005b0:	00478793          	addi	a5,a5,4
800005b4:	00f12223          	sw	a5,4(sp)
800005b8:	120dce63          	bltz	s11,800006f4 <printf+0x2e8>
800005bc:	180d9a63          	bnez	s11,80000750 <printf+0x344>
800005c0:	01610423          	sb	s6,8(sp)
800005c4:	00100793          	li	a5,1
800005c8:	0997cc63          	blt	a5,s9,80000660 <printf+0x254>
800005cc:	03000513          	li	a0,48
800005d0:	ba9ff0ef          	jal	ra,80000178 <putch>
800005d4:	000d0413          	mv	s0,s10
800005d8:	ec5ff06f          	j	8000049c <printf+0x90>
800005dc:	00412683          	lw	a3,4(sp)
800005e0:	0006a783          	lw	a5,0(a3)
800005e4:	00468693          	addi	a3,a3,4
800005e8:	00d12223          	sw	a3,4(sp)
800005ec:	0c079a63          	bnez	a5,800006c0 <printf+0x2b4>
800005f0:	01610423          	sb	s6,8(sp)
800005f4:	00100793          	li	a5,1
800005f8:	0b97dc63          	bge	a5,s9,800006b0 <printf+0x2a4>
800005fc:	00100d13          	li	s10,1
80000600:	41ac8cb3          	sub	s9,s9,s10
80000604:	03905863          	blez	s9,80000634 <printf+0x228>
80000608:	00000d93          	li	s11,0
8000060c:	001d8d93          	addi	s11,s11,1
80000610:	00090513          	mv	a0,s2
80000614:	b65ff0ef          	jal	ra,80000178 <putch>
80000618:	ff9dcae3          	blt	s11,s9,8000060c <printf+0x200>
8000061c:	00140413          	addi	s0,s0,1
80000620:	00000793          	li	a5,0
80000624:	01905463          	blez	s9,8000062c <printf+0x220>
80000628:	fffc8793          	addi	a5,s9,-1
8000062c:	00878433          	add	s0,a5,s0
80000630:	e60d06e3          	beqz	s10,8000049c <printf+0x90>
80000634:	3f0d0793          	addi	a5,s10,1008
80000638:	002787b3          	add	a5,a5,sp
8000063c:	c177c503          	lbu	a0,-1001(a5)
80000640:	01aa0933          	add	s2,s4,s10
80000644:	00c0006f          	j	80000650 <printf+0x244>
80000648:	ffe94503          	lbu	a0,-2(s2)
8000064c:	fff90913          	addi	s2,s2,-1
80000650:	b29ff0ef          	jal	ra,80000178 <putch>
80000654:	ff591ae3          	bne	s2,s5,80000648 <printf+0x23c>
80000658:	008d0433          	add	s0,s10,s0
8000065c:	e41ff06f          	j	8000049c <printf+0x90>
80000660:	00100d13          	li	s10,1
80000664:	41ac8cb3          	sub	s9,s9,s10
80000668:	00000c13          	li	s8,0
8000066c:	0d905a63          	blez	s9,80000740 <printf+0x334>
80000670:	001c0c13          	addi	s8,s8,1
80000674:	00090513          	mv	a0,s2
80000678:	b01ff0ef          	jal	ra,80000178 <putch>
8000067c:	ff8c9ae3          	bne	s9,s8,80000670 <printf+0x264>
80000680:	3f0d8793          	addi	a5,s11,1008
80000684:	00278db3          	add	s11,a5,sp
80000688:	c18dc503          	lbu	a0,-1000(s11)
8000068c:	008c8433          	add	s0,s9,s0
80000690:	01aa0933          	add	s2,s4,s10
80000694:	0080006f          	j	8000069c <printf+0x290>
80000698:	fff94503          	lbu	a0,-1(s2)
8000069c:	fff90913          	addi	s2,s2,-1
800006a0:	ad9ff0ef          	jal	ra,80000178 <putch>
800006a4:	ff2a1ae3          	bne	s4,s2,80000698 <printf+0x28c>
800006a8:	008d0433          	add	s0,s10,s0
800006ac:	df1ff06f          	j	8000049c <printf+0x90>
800006b0:	03000513          	li	a0,48
800006b4:	00140413          	addi	s0,s0,1
800006b8:	ac1ff0ef          	jal	ra,80000178 <putch>
800006bc:	de1ff06f          	j	8000049c <printf+0x90>
800006c0:	00000d13          	li	s10,0
800006c4:	06f05a63          	blez	a5,80000738 <printf+0x32c>
800006c8:	00f7f693          	andi	a3,a5,15
800006cc:	001d0d13          	addi	s10,s10,1
800006d0:	01aa0633          	add	a2,s4,s10
800006d4:	4047d793          	srai	a5,a5,0x4
800006d8:	05768513          	addi	a0,a3,87
800006dc:	00d4c463          	blt	s1,a3,800006e4 <printf+0x2d8>
800006e0:	03068513          	addi	a0,a3,48
800006e4:	fea60fa3          	sb	a0,-1(a2)
800006e8:	fe0790e3          	bnez	a5,800006c8 <printf+0x2bc>
800006ec:	f19d4ae3          	blt	s10,s9,80000600 <printf+0x1f4>
800006f0:	f51ff06f          	j	80000640 <printf+0x234>
800006f4:	02d00513          	li	a0,45
800006f8:	a81ff0ef          	jal	ra,80000178 <putch>
800006fc:	000d0413          	mv	s0,s10
80000700:	41b007b3          	neg	a5,s11
80000704:	00000d13          	li	s10,0
80000708:	00a00693          	li	a3,10
8000070c:	02d7e533          	rem	a0,a5,a3
80000710:	000d0d93          	mv	s11,s10
80000714:	001d0d13          	addi	s10,s10,1
80000718:	01aa0633          	add	a2,s4,s10
8000071c:	02d7c7b3          	div	a5,a5,a3
80000720:	03050513          	addi	a0,a0,48
80000724:	0ff57513          	zext.b	a0,a0
80000728:	fea60fa3          	sb	a0,-1(a2)
8000072c:	fe0790e3          	bnez	a5,8000070c <printf+0x300>
80000730:	f39d4ae3          	blt	s10,s9,80000664 <printf+0x258>
80000734:	f5dff06f          	j	80000690 <printf+0x284>
80000738:	ec0c98e3          	bnez	s9,80000608 <printf+0x1fc>
8000073c:	d61ff06f          	j	8000049c <printf+0x90>
80000740:	3f0d8793          	addi	a5,s11,1008
80000744:	00278db3          	add	s11,a5,sp
80000748:	c18dc503          	lbu	a0,-1000(s11)
8000074c:	f45ff06f          	j	80000690 <printf+0x284>
80000750:	000d8793          	mv	a5,s11
80000754:	fb1ff06f          	j	80000704 <printf+0x2f8>

80000758 <memset>:
80000758:	0ff5f593          	zext.b	a1,a1
8000075c:	00050793          	mv	a5,a0
80000760:	00a60733          	add	a4,a2,a0
80000764:	00060863          	beqz	a2,80000774 <memset+0x1c>
80000768:	00b78023          	sb	a1,0(a5)
8000076c:	00178793          	addi	a5,a5,1
80000770:	fee79ce3          	bne	a5,a4,80000768 <memset+0x10>
80000774:	00008067          	ret
