
/home/xietianle/ysyx-workbench/am-kernels/kernels/yield-os/build/yield-os-riscv32e-npc.elf:     file format elf32-littleriscv


Disassembly of section .text:

80000000 <_start>:
80000000:	00000413          	li	s0,0
80000004:	00021117          	auipc	sp,0x21
80000008:	ffc10113          	addi	sp,sp,-4 # 80021000 <_end>
8000000c:	180000ef          	jal	ra,8000018c <_trm_init>

80000010 <schedule>:
80000010:	00001717          	auipc	a4,0x1
80000014:	e1070713          	addi	a4,a4,-496 # 80000e20 <current>
80000018:	00072683          	lw	a3,0(a4)
8000001c:	00001617          	auipc	a2,0x1
80000020:	e0860613          	addi	a2,a2,-504 # 80000e24 <pcb>
80000024:	00009797          	auipc	a5,0x9
80000028:	e0078793          	addi	a5,a5,-512 # 80008e24 <pcb+0x8000>
8000002c:	00b6a023          	sw	a1,0(a3)
80000030:	00c68463          	beq	a3,a2,80000038 <schedule+0x28>
80000034:	00060793          	mv	a5,a2
80000038:	0007a503          	lw	a0,0(a5)
8000003c:	00f72023          	sw	a5,0(a4)
80000040:	00008067          	ret

80000044 <f>:
80000044:	ff010113          	addi	sp,sp,-16
80000048:	00112623          	sw	ra,12(sp)
8000004c:	00812423          	sw	s0,8(sp)
80000050:	00200793          	li	a5,2
80000054:	00050713          	mv	a4,a0
80000058:	00a7f463          	bgeu	a5,a0,80000060 <f+0x1c>
8000005c:	00000713          	li	a4,0
80000060:	00001797          	auipc	a5,0x1
80000064:	c8c78793          	addi	a5,a5,-884 # 80000cec <_etext>
80000068:	00e787b3          	add	a5,a5,a4
8000006c:	0007c403          	lbu	s0,0(a5)
80000070:	00040513          	mv	a0,s0
80000074:	100000ef          	jal	ra,80000174 <putch>
80000078:	00012023          	sw	zero,0(sp)
8000007c:	00012783          	lw	a5,0(sp)
80000080:	00018737          	lui	a4,0x18
80000084:	69f70713          	addi	a4,a4,1695 # 1869f <_entry_offset+0x1869f>
80000088:	00f74c63          	blt	a4,a5,800000a0 <f+0x5c>
8000008c:	00012783          	lw	a5,0(sp)
80000090:	00178793          	addi	a5,a5,1
80000094:	00f12023          	sw	a5,0(sp)
80000098:	00012783          	lw	a5,0(sp)
8000009c:	fef758e3          	bge	a4,a5,8000008c <f+0x48>
800000a0:	220000ef          	jal	ra,800002c0 <yield>
800000a4:	fcdff06f          	j	80000070 <f+0x2c>

800000a8 <main>:
800000a8:	fe410113          	addi	sp,sp,-28
800000ac:	00000517          	auipc	a0,0x0
800000b0:	f6450513          	addi	a0,a0,-156 # 80000010 <schedule>
800000b4:	00112c23          	sw	ra,24(sp)
800000b8:	00812a23          	sw	s0,20(sp)
800000bc:	00912823          	sw	s1,16(sp)
800000c0:	00009417          	auipc	s0,0x9
800000c4:	d6440413          	addi	s0,s0,-668 # 80008e24 <pcb+0x8000>
800000c8:	16c000ef          	jal	ra,80000234 <cte_init>
800000cc:	00001497          	auipc	s1,0x1
800000d0:	d5848493          	addi	s1,s1,-680 # 80000e24 <pcb>
800000d4:	00040593          	mv	a1,s0
800000d8:	00100693          	li	a3,1
800000dc:	00000617          	auipc	a2,0x0
800000e0:	f6860613          	addi	a2,a2,-152 # 80000044 <f>
800000e4:	00048513          	mv	a0,s1
800000e8:	16c000ef          	jal	ra,80000254 <kcontext>
800000ec:	00050793          	mv	a5,a0
800000f0:	00200693          	li	a3,2
800000f4:	00000617          	auipc	a2,0x0
800000f8:	f5060613          	addi	a2,a2,-176 # 80000044 <f>
800000fc:	00011597          	auipc	a1,0x11
80000100:	d2858593          	addi	a1,a1,-728 # 80010e24 <pcb_boot>
80000104:	00040513          	mv	a0,s0
80000108:	00f4a023          	sw	a5,0(s1)
8000010c:	148000ef          	jal	ra,80000254 <kcontext>
80000110:	00a42023          	sw	a0,0(s0)
80000114:	1ac000ef          	jal	ra,800002c0 <yield>
80000118:	00001417          	auipc	s0,0x1
8000011c:	bd840413          	addi	s0,s0,-1064 # 80000cf0 <_etext+0x4>
80000120:	04100513          	li	a0,65
80000124:	00140413          	addi	s0,s0,1
80000128:	04c000ef          	jal	ra,80000174 <putch>
8000012c:	00044503          	lbu	a0,0(s0)
80000130:	fe051ae3          	bnez	a0,80000124 <main+0x7c>
80000134:	00001417          	auipc	s0,0x1
80000138:	bc840413          	addi	s0,s0,-1080 # 80000cfc <_etext+0x10>
8000013c:	05300513          	li	a0,83
80000140:	00140413          	addi	s0,s0,1
80000144:	030000ef          	jal	ra,80000174 <putch>
80000148:	00044503          	lbu	a0,0(s0)
8000014c:	fe051ae3          	bnez	a0,80000140 <main+0x98>
80000150:	00001417          	auipc	s0,0x1
80000154:	bc440413          	addi	s0,s0,-1084 # 80000d14 <_etext+0x28>
80000158:	02000513          	li	a0,32
8000015c:	00140413          	addi	s0,s0,1
80000160:	014000ef          	jal	ra,80000174 <putch>
80000164:	00044503          	lbu	a0,0(s0)
80000168:	fe051ae3          	bnez	a0,8000015c <main+0xb4>
8000016c:	00100513          	li	a0,1
80000170:	010000ef          	jal	ra,80000180 <halt>

80000174 <putch>:
80000174:	a00007b7          	lui	a5,0xa0000
80000178:	3ea78c23          	sb	a0,1016(a5) # a00003f8 <_end+0x1ffdf3f8>
8000017c:	00008067          	ret

80000180 <halt>:
80000180:	00050513          	mv	a0,a0
80000184:	00100073          	ebreak
80000188:	0000006f          	j	80000188 <halt+0x8>

8000018c <_trm_init>:
8000018c:	ff410113          	addi	sp,sp,-12
80000190:	00001517          	auipc	a0,0x1
80000194:	c8c50513          	addi	a0,a0,-884 # 80000e1c <mainargs>
80000198:	00112423          	sw	ra,8(sp)
8000019c:	f0dff0ef          	jal	ra,800000a8 <main>
800001a0:	00050513          	mv	a0,a0
800001a4:	00100073          	ebreak
800001a8:	0000006f          	j	800001a8 <_trm_init+0x1c>

800001ac <__am_irq_handle>:
800001ac:	00019797          	auipc	a5,0x19
800001b0:	c787a783          	lw	a5,-904(a5) # 80018e24 <user_handler>
800001b4:	00050593          	mv	a1,a0
800001b8:	04078c63          	beqz	a5,80000210 <__am_irq_handle+0x64>
800001bc:	04052603          	lw	a2,64(a0)
800001c0:	fd410113          	addi	sp,sp,-44
800001c4:	02112423          	sw	ra,40(sp)
800001c8:	00b00693          	li	a3,11
800001cc:	00400713          	li	a4,4
800001d0:	02d60663          	beq	a2,a3,800001fc <__am_irq_handle+0x50>
800001d4:	00e12023          	sw	a4,0(sp)
800001d8:	00012223          	sw	zero,4(sp)
800001dc:	00012423          	sw	zero,8(sp)
800001e0:	00012623          	sw	zero,12(sp)
800001e4:	00010513          	mv	a0,sp
800001e8:	000780e7          	jalr	a5
800001ec:	02050463          	beqz	a0,80000214 <__am_irq_handle+0x68>
800001f0:	02812083          	lw	ra,40(sp)
800001f4:	02c10113          	addi	sp,sp,44
800001f8:	00008067          	ret
800001fc:	04852683          	lw	a3,72(a0)
80000200:	00100713          	li	a4,1
80000204:	00468693          	addi	a3,a3,4
80000208:	04d52423          	sw	a3,72(a0)
8000020c:	fc9ff06f          	j	800001d4 <__am_irq_handle+0x28>
80000210:	00008067          	ret
80000214:	01400613          	li	a2,20
80000218:	00001597          	auipc	a1,0x1
8000021c:	b4c58593          	addi	a1,a1,-1204 # 80000d64 <_etext+0x78>
80000220:	00001517          	auipc	a0,0x1
80000224:	b8c50513          	addi	a0,a0,-1140 # 80000dac <_etext+0xc0>
80000228:	15c000ef          	jal	ra,80000384 <printf>
8000022c:	00100513          	li	a0,1
80000230:	f51ff0ef          	jal	ra,80000180 <halt>

80000234 <cte_init>:
80000234:	00050793          	mv	a5,a0
80000238:	00000717          	auipc	a4,0x0
8000023c:	09870713          	addi	a4,a4,152 # 800002d0 <__am_asm_trap>
80000240:	30571073          	.4byte	0x30571073
80000244:	00100513          	li	a0,1
80000248:	00019717          	auipc	a4,0x19
8000024c:	bcf72e23          	sw	a5,-1060(a4) # 80018e24 <user_handler>
80000250:	00008067          	ret

80000254 <kcontext>:
80000254:	fe410113          	addi	sp,sp,-28
80000258:	fb058713          	addi	a4,a1,-80
8000025c:	00812a23          	sw	s0,20(sp)
80000260:	00060793          	mv	a5,a2
80000264:	00058413          	mv	s0,a1
80000268:	00070513          	mv	a0,a4
8000026c:	05000613          	li	a2,80
80000270:	00000593          	li	a1,0
80000274:	00912823          	sw	s1,16(sp)
80000278:	00112c23          	sw	ra,24(sp)
8000027c:	00e12223          	sw	a4,4(sp)
80000280:	00f12023          	sw	a5,0(sp)
80000284:	00068493          	mv	s1,a3
80000288:	191000ef          	jal	ra,80000c18 <memset>
8000028c:	00012783          	lw	a5,0(sp)
80000290:	00412703          	lw	a4,4(sp)
80000294:	fc942c23          	sw	s1,-40(s0)
80000298:	fef42c23          	sw	a5,-8(s0)
8000029c:	000027b7          	lui	a5,0x2
800002a0:	80078793          	addi	a5,a5,-2048 # 1800 <_entry_offset+0x1800>
800002a4:	01812083          	lw	ra,24(sp)
800002a8:	fef42a23          	sw	a5,-12(s0)
800002ac:	01412403          	lw	s0,20(sp)
800002b0:	01012483          	lw	s1,16(sp)
800002b4:	00070513          	mv	a0,a4
800002b8:	01c10113          	addi	sp,sp,28
800002bc:	00008067          	ret

800002c0 <yield>:
800002c0:	fff00793          	li	a5,-1
800002c4:	00000073          	ecall
800002c8:	00008067          	ret
800002cc:	0000                	.2byte	0x0
	...

800002d0 <__am_asm_trap>:
800002d0:	fb010113          	addi	sp,sp,-80
800002d4:	00112223          	sw	ra,4(sp)
800002d8:	00312623          	sw	gp,12(sp)
800002dc:	00412823          	sw	tp,16(sp)
800002e0:	00512a23          	sw	t0,20(sp)
800002e4:	00612c23          	sw	t1,24(sp)
800002e8:	00712e23          	sw	t2,28(sp)
800002ec:	02812023          	sw	s0,32(sp)
800002f0:	02912223          	sw	s1,36(sp)
800002f4:	02a12423          	sw	a0,40(sp)
800002f8:	02b12623          	sw	a1,44(sp)
800002fc:	02c12823          	sw	a2,48(sp)
80000300:	02d12a23          	sw	a3,52(sp)
80000304:	02e12c23          	sw	a4,56(sp)
80000308:	02f12e23          	sw	a5,60(sp)
8000030c:	342022f3          	.4byte	0x342022f3
80000310:	30002373          	.4byte	0x30002373
80000314:	341023f3          	.4byte	0x341023f3
80000318:	04512023          	sw	t0,64(sp)
8000031c:	04612223          	sw	t1,68(sp)
80000320:	04712423          	sw	t2,72(sp)
80000324:	00010513          	mv	a0,sp
80000328:	e85ff0ef          	jal	ra,800001ac <__am_irq_handle>
8000032c:	00050113          	mv	sp,a0
80000330:	04412303          	lw	t1,68(sp)
80000334:	04812383          	lw	t2,72(sp)
80000338:	30031073          	.4byte	0x30031073
8000033c:	34139073          	.4byte	0x34139073
80000340:	00412083          	lw	ra,4(sp)
80000344:	00c12183          	lw	gp,12(sp)
80000348:	01012203          	lw	tp,16(sp)
8000034c:	01412283          	lw	t0,20(sp)
80000350:	01812303          	lw	t1,24(sp)
80000354:	01c12383          	lw	t2,28(sp)
80000358:	02012403          	lw	s0,32(sp)
8000035c:	02412483          	lw	s1,36(sp)
80000360:	02812503          	lw	a0,40(sp)
80000364:	02c12583          	lw	a1,44(sp)
80000368:	03012603          	lw	a2,48(sp)
8000036c:	03412683          	lw	a3,52(sp)
80000370:	03812703          	lw	a4,56(sp)
80000374:	03c12783          	lw	a5,60(sp)
80000378:	05010113          	addi	sp,sp,80
8000037c:	30200073          	mret
80000380:	0000                	.2byte	0x0
	...

80000384 <printf>:
80000384:	bd010113          	addi	sp,sp,-1072
80000388:	40812a23          	sw	s0,1044(sp)
8000038c:	42f12623          	sw	a5,1068(sp)
80000390:	40112c23          	sw	ra,1048(sp)
80000394:	40912823          	sw	s1,1040(sp)
80000398:	40b12e23          	sw	a1,1052(sp)
8000039c:	42c12023          	sw	a2,1056(sp)
800003a0:	42d12223          	sw	a3,1060(sp)
800003a4:	42e12423          	sw	a4,1064(sp)
800003a8:	00050413          	mv	s0,a0
800003ac:	00054503          	lbu	a0,0(a0)
800003b0:	41c10793          	addi	a5,sp,1052
800003b4:	02f12223          	sw	a5,36(sp)
800003b8:	00012023          	sw	zero,0(sp)
800003bc:	0c050c63          	beqz	a0,80000494 <printf+0x110>
800003c0:	00040713          	mv	a4,s0
800003c4:	02c0006f          	j	800003f0 <printf+0x6c>
800003c8:	00070413          	mv	s0,a4
800003cc:	da9ff0ef          	jal	ra,80000174 <putch>
800003d0:	00012783          	lw	a5,0(sp)
800003d4:	00178793          	addi	a5,a5,1
800003d8:	00f12023          	sw	a5,0(sp)
800003dc:	00140793          	addi	a5,s0,1
800003e0:	00f12223          	sw	a5,4(sp)
800003e4:	00144503          	lbu	a0,1(s0)
800003e8:	00412703          	lw	a4,4(sp)
800003ec:	0a050463          	beqz	a0,80000494 <printf+0x110>
800003f0:	02500793          	li	a5,37
800003f4:	fcf51ae3          	bne	a0,a5,800003c8 <printf+0x44>
800003f8:	00174683          	lbu	a3,1(a4)
800003fc:	02000613          	li	a2,32
80000400:	03000793          	li	a5,48
80000404:	00c12623          	sw	a2,12(sp)
80000408:	00170413          	addi	s0,a4,1
8000040c:	00f69863          	bne	a3,a5,8000041c <printf+0x98>
80000410:	00274683          	lbu	a3,2(a4)
80000414:	00270413          	addi	s0,a4,2
80000418:	00f12623          	sw	a5,12(sp)
8000041c:	fd068613          	addi	a2,a3,-48
80000420:	00000793          	li	a5,0
80000424:	0ff67313          	zext.b	t1,a2
80000428:	00900593          	li	a1,9
8000042c:	00900513          	li	a0,9
80000430:	00078713          	mv	a4,a5
80000434:	0265e663          	bltu	a1,t1,80000460 <printf+0xdc>
80000438:	00144683          	lbu	a3,1(s0)
8000043c:	00271793          	slli	a5,a4,0x2
80000440:	00e787b3          	add	a5,a5,a4
80000444:	00179793          	slli	a5,a5,0x1
80000448:	00f60733          	add	a4,a2,a5
8000044c:	fd068613          	addi	a2,a3,-48
80000450:	0ff67793          	zext.b	a5,a2
80000454:	00140413          	addi	s0,s0,1
80000458:	fef570e3          	bgeu	a0,a5,80000438 <printf+0xb4>
8000045c:	00070793          	mv	a5,a4
80000460:	f9c68693          	addi	a3,a3,-100
80000464:	00140713          	addi	a4,s0,1
80000468:	0ff6f693          	zext.b	a3,a3
8000046c:	01400613          	li	a2,20
80000470:	00e12223          	sw	a4,4(sp)
80000474:	02d66c63          	bltu	a2,a3,800004ac <printf+0x128>
80000478:	00001717          	auipc	a4,0x1
8000047c:	95070713          	addi	a4,a4,-1712 # 80000dc8 <_etext+0xdc>
80000480:	00269693          	slli	a3,a3,0x2
80000484:	00e686b3          	add	a3,a3,a4
80000488:	0006a683          	lw	a3,0(a3)
8000048c:	00e686b3          	add	a3,a3,a4
80000490:	00068067          	jr	a3
80000494:	41812083          	lw	ra,1048(sp)
80000498:	41412403          	lw	s0,1044(sp)
8000049c:	00012503          	lw	a0,0(sp)
800004a0:	41012483          	lw	s1,1040(sp)
800004a4:	43010113          	addi	sp,sp,1072
800004a8:	00008067          	ret
800004ac:	02500513          	li	a0,37
800004b0:	cc5ff0ef          	jal	ra,80000174 <putch>
800004b4:	00012783          	lw	a5,0(sp)
800004b8:	00044503          	lbu	a0,0(s0)
800004bc:	00278793          	addi	a5,a5,2
800004c0:	00f12023          	sw	a5,0(sp)
800004c4:	cb1ff0ef          	jal	ra,80000174 <putch>
800004c8:	f1dff06f          	j	800003e4 <printf+0x60>
800004cc:	02412603          	lw	a2,36(sp)
800004d0:	00062683          	lw	a3,0(a2)
800004d4:	00460613          	addi	a2,a2,4
800004d8:	02c12223          	sw	a2,36(sp)
800004dc:	32069663          	bnez	a3,80000808 <printf+0x484>
800004e0:	03000693          	li	a3,48
800004e4:	02d10423          	sb	a3,40(sp)
800004e8:	00100693          	li	a3,1
800004ec:	28f6d263          	bge	a3,a5,80000770 <printf+0x3ec>
800004f0:	00100713          	li	a4,1
800004f4:	00e12a23          	sw	a4,20(sp)
800004f8:	01412703          	lw	a4,20(sp)
800004fc:	40e787b3          	sub	a5,a5,a4
80000500:	6af05c63          	blez	a5,80000bb8 <printf+0x834>
80000504:	00000493          	li	s1,0
80000508:	00812823          	sw	s0,16(sp)
8000050c:	00048413          	mv	s0,s1
80000510:	00c12483          	lw	s1,12(sp)
80000514:	00f12423          	sw	a5,8(sp)
80000518:	00048513          	mv	a0,s1
8000051c:	c59ff0ef          	jal	ra,80000174 <putch>
80000520:	00812783          	lw	a5,8(sp)
80000524:	00140413          	addi	s0,s0,1
80000528:	fef448e3          	blt	s0,a5,80000518 <printf+0x194>
8000052c:	00012703          	lw	a4,0(sp)
80000530:	00812783          	lw	a5,8(sp)
80000534:	01012403          	lw	s0,16(sp)
80000538:	00170613          	addi	a2,a4,1
8000053c:	00000693          	li	a3,0
80000540:	00f05463          	blez	a5,80000548 <printf+0x1c4>
80000544:	fff78693          	addi	a3,a5,-1
80000548:	00c687b3          	add	a5,a3,a2
8000054c:	00f12023          	sw	a5,0(sp)
80000550:	01412783          	lw	a5,20(sp)
80000554:	e80788e3          	beqz	a5,800003e4 <printf+0x60>
80000558:	3ec78793          	addi	a5,a5,1004
8000055c:	02410713          	addi	a4,sp,36
80000560:	00e787b3          	add	a5,a5,a4
80000564:	c177c503          	lbu	a0,-1001(a5)
80000568:	02810793          	addi	a5,sp,40
8000056c:	00f12823          	sw	a5,16(sp)
80000570:	01012783          	lw	a5,16(sp)
80000574:	01412703          	lw	a4,20(sp)
80000578:	00e784b3          	add	s1,a5,a4
8000057c:	00c0006f          	j	80000588 <printf+0x204>
80000580:	ffe4c503          	lbu	a0,-2(s1)
80000584:	fff48493          	addi	s1,s1,-1
80000588:	bedff0ef          	jal	ra,80000174 <putch>
8000058c:	02910793          	addi	a5,sp,41
80000590:	fe9798e3          	bne	a5,s1,80000580 <printf+0x1fc>
80000594:	00012703          	lw	a4,0(sp)
80000598:	01412783          	lw	a5,20(sp)
8000059c:	00e787b3          	add	a5,a5,a4
800005a0:	00f12023          	sw	a5,0(sp)
800005a4:	e41ff06f          	j	800003e4 <printf+0x60>
800005a8:	02412783          	lw	a5,36(sp)
800005ac:	0007a703          	lw	a4,0(a5)
800005b0:	00478793          	addi	a5,a5,4
800005b4:	02f12223          	sw	a5,36(sp)
800005b8:	00074503          	lbu	a0,0(a4)
800005bc:	00e12423          	sw	a4,8(sp)
800005c0:	e20502e3          	beqz	a0,800003e4 <printf+0x60>
800005c4:	00012783          	lw	a5,0(sp)
800005c8:	00812023          	sw	s0,0(sp)
800005cc:	00078493          	mv	s1,a5
800005d0:	00078413          	mv	s0,a5
800005d4:	ba1ff0ef          	jal	ra,80000174 <putch>
800005d8:	00812703          	lw	a4,8(sp)
800005dc:	00140413          	addi	s0,s0,1
800005e0:	409407b3          	sub	a5,s0,s1
800005e4:	00f707b3          	add	a5,a4,a5
800005e8:	0007c503          	lbu	a0,0(a5)
800005ec:	fe0514e3          	bnez	a0,800005d4 <printf+0x250>
800005f0:	00040493          	mv	s1,s0
800005f4:	00012403          	lw	s0,0(sp)
800005f8:	00912023          	sw	s1,0(sp)
800005fc:	de9ff06f          	j	800003e4 <printf+0x60>
80000600:	02412783          	lw	a5,36(sp)
80000604:	03000513          	li	a0,48
80000608:	0007a483          	lw	s1,0(a5)
8000060c:	00478793          	addi	a5,a5,4
80000610:	02f12223          	sw	a5,36(sp)
80000614:	b61ff0ef          	jal	ra,80000174 <putch>
80000618:	07800513          	li	a0,120
8000061c:	b59ff0ef          	jal	ra,80000174 <putch>
80000620:	16049463          	bnez	s1,80000788 <printf+0x404>
80000624:	03000793          	li	a5,48
80000628:	02f10423          	sb	a5,40(sp)
8000062c:	00012783          	lw	a5,0(sp)
80000630:	03000513          	li	a0,48
80000634:	00378793          	addi	a5,a5,3
80000638:	00f12023          	sw	a5,0(sp)
8000063c:	b39ff0ef          	jal	ra,80000174 <putch>
80000640:	da5ff06f          	j	800003e4 <printf+0x60>
80000644:	00144703          	lbu	a4,1(s0)
80000648:	06400693          	li	a3,100
8000064c:	28d70c63          	beq	a4,a3,800008e4 <printf+0x560>
80000650:	07800693          	li	a3,120
80000654:	2ed70463          	beq	a4,a3,8000093c <printf+0x5b8>
80000658:	00412783          	lw	a5,4(sp)
8000065c:	00078413          	mv	s0,a5
80000660:	00178793          	addi	a5,a5,1
80000664:	00f12223          	sw	a5,4(sp)
80000668:	d7dff06f          	j	800003e4 <printf+0x60>
8000066c:	02412683          	lw	a3,36(sp)
80000670:	00012703          	lw	a4,0(sp)
80000674:	00468693          	addi	a3,a3,4
80000678:	00170613          	addi	a2,a4,1
8000067c:	ffc6a703          	lw	a4,-4(a3)
80000680:	02d12223          	sw	a3,36(sp)
80000684:	00e12a23          	sw	a4,20(sp)
80000688:	1c074663          	bltz	a4,80000854 <printf+0x4d0>
8000068c:	01412703          	lw	a4,20(sp)
80000690:	54071463          	bnez	a4,80000bd8 <printf+0x854>
80000694:	03000693          	li	a3,48
80000698:	02d10423          	sb	a3,40(sp)
8000069c:	00c12423          	sw	a2,8(sp)
800006a0:	00100693          	li	a3,1
800006a4:	0af6dc63          	bge	a3,a5,8000075c <printf+0x3d8>
800006a8:	00100713          	li	a4,1
800006ac:	00e12c23          	sw	a4,24(sp)
800006b0:	02810713          	addi	a4,sp,40
800006b4:	00e12823          	sw	a4,16(sp)
800006b8:	01812703          	lw	a4,24(sp)
800006bc:	00000493          	li	s1,0
800006c0:	40e787b3          	sub	a5,a5,a4
800006c4:	00f12423          	sw	a5,8(sp)
800006c8:	4ef05c63          	blez	a5,80000bc0 <printf+0x83c>
800006cc:	00812e23          	sw	s0,28(sp)
800006d0:	00048413          	mv	s0,s1
800006d4:	00c12483          	lw	s1,12(sp)
800006d8:	00048513          	mv	a0,s1
800006dc:	a99ff0ef          	jal	ra,80000174 <putch>
800006e0:	00812783          	lw	a5,8(sp)
800006e4:	00140413          	addi	s0,s0,1
800006e8:	fe8798e3          	bne	a5,s0,800006d8 <printf+0x354>
800006ec:	01412783          	lw	a5,20(sp)
800006f0:	02410713          	addi	a4,sp,36
800006f4:	01c12403          	lw	s0,28(sp)
800006f8:	3ec78793          	addi	a5,a5,1004
800006fc:	00e787b3          	add	a5,a5,a4
80000700:	c187c683          	lbu	a3,-1000(a5)
80000704:	00012703          	lw	a4,0(sp)
80000708:	00812783          	lw	a5,8(sp)
8000070c:	00e787b3          	add	a5,a5,a4
80000710:	00f12023          	sw	a5,0(sp)
80000714:	01012783          	lw	a5,16(sp)
80000718:	01812703          	lw	a4,24(sp)
8000071c:	00812423          	sw	s0,8(sp)
80000720:	00068513          	mv	a0,a3
80000724:	00e784b3          	add	s1,a5,a4
80000728:	00048413          	mv	s0,s1
8000072c:	00078493          	mv	s1,a5
80000730:	0080006f          	j	80000738 <printf+0x3b4>
80000734:	fff44503          	lbu	a0,-1(s0)
80000738:	fff40413          	addi	s0,s0,-1
8000073c:	a39ff0ef          	jal	ra,80000174 <putch>
80000740:	fe849ae3          	bne	s1,s0,80000734 <printf+0x3b0>
80000744:	00012703          	lw	a4,0(sp)
80000748:	01812783          	lw	a5,24(sp)
8000074c:	00812403          	lw	s0,8(sp)
80000750:	00e787b3          	add	a5,a5,a4
80000754:	00f12023          	sw	a5,0(sp)
80000758:	c8dff06f          	j	800003e4 <printf+0x60>
8000075c:	03000513          	li	a0,48
80000760:	a15ff0ef          	jal	ra,80000174 <putch>
80000764:	00812603          	lw	a2,8(sp)
80000768:	00c12023          	sw	a2,0(sp)
8000076c:	c79ff06f          	j	800003e4 <printf+0x60>
80000770:	00012783          	lw	a5,0(sp)
80000774:	03000513          	li	a0,48
80000778:	00178793          	addi	a5,a5,1
8000077c:	00f12023          	sw	a5,0(sp)
80000780:	9f5ff0ef          	jal	ra,80000174 <putch>
80000784:	c61ff06f          	j	800003e4 <printf+0x60>
80000788:	02810313          	addi	t1,sp,40
8000078c:	00048693          	mv	a3,s1
80000790:	00000613          	li	a2,0
80000794:	00612823          	sw	t1,16(sp)
80000798:	00900593          	li	a1,9
8000079c:	0080006f          	j	800007a4 <printf+0x420>
800007a0:	00070613          	mv	a2,a4
800007a4:	00f6f713          	andi	a4,a3,15
800007a8:	05770513          	addi	a0,a4,87
800007ac:	00e5c463          	blt	a1,a4,800007b4 <printf+0x430>
800007b0:	03070513          	addi	a0,a4,48
800007b4:	00160713          	addi	a4,a2,1
800007b8:	00e307b3          	add	a5,t1,a4
800007bc:	fea78fa3          	sb	a0,-1(a5)
800007c0:	0046d693          	srli	a3,a3,0x4
800007c4:	fc069ee3          	bnez	a3,800007a0 <printf+0x41c>
800007c8:	00812623          	sw	s0,12(sp)
800007cc:	01012483          	lw	s1,16(sp)
800007d0:	00c12423          	sw	a2,8(sp)
800007d4:	00078413          	mv	s0,a5
800007d8:	0080006f          	j	800007e0 <printf+0x45c>
800007dc:	fff44503          	lbu	a0,-1(s0)
800007e0:	fff40413          	addi	s0,s0,-1
800007e4:	991ff0ef          	jal	ra,80000174 <putch>
800007e8:	fe849ae3          	bne	s1,s0,800007dc <printf+0x458>
800007ec:	00012783          	lw	a5,0(sp)
800007f0:	00812703          	lw	a4,8(sp)
800007f4:	00c12403          	lw	s0,12(sp)
800007f8:	00378793          	addi	a5,a5,3
800007fc:	00e787b3          	add	a5,a5,a4
80000800:	00f12023          	sw	a5,0(sp)
80000804:	be1ff06f          	j	800003e4 <printf+0x60>
80000808:	02810713          	addi	a4,sp,40
8000080c:	00012a23          	sw	zero,20(sp)
80000810:	00e12823          	sw	a4,16(sp)
80000814:	00900313          	li	t1,9
80000818:	38d05c63          	blez	a3,80000bb0 <printf+0x82c>
8000081c:	01012283          	lw	t0,16(sp)
80000820:	00000613          	li	a2,0
80000824:	00f6f593          	andi	a1,a3,15
80000828:	05758513          	addi	a0,a1,87
8000082c:	00b34463          	blt	t1,a1,80000834 <printf+0x4b0>
80000830:	03058513          	addi	a0,a1,48
80000834:	00160613          	addi	a2,a2,1
80000838:	00c28733          	add	a4,t0,a2
8000083c:	fea70fa3          	sb	a0,-1(a4)
80000840:	4046d693          	srai	a3,a3,0x4
80000844:	fe0690e3          	bnez	a3,80000824 <printf+0x4a0>
80000848:	00c12a23          	sw	a2,20(sp)
8000084c:	caf646e3          	blt	a2,a5,800004f8 <printf+0x174>
80000850:	d21ff06f          	j	80000570 <printf+0x1ec>
80000854:	02d00513          	li	a0,45
80000858:	00f12423          	sw	a5,8(sp)
8000085c:	00c12023          	sw	a2,0(sp)
80000860:	915ff0ef          	jal	ra,80000174 <putch>
80000864:	01412783          	lw	a5,20(sp)
80000868:	40f004b3          	neg	s1,a5
8000086c:	00812783          	lw	a5,8(sp)
80000870:	00000693          	li	a3,0
80000874:	02810713          	addi	a4,sp,40
80000878:	02812023          	sw	s0,32(sp)
8000087c:	00e12823          	sw	a4,16(sp)
80000880:	00f12e23          	sw	a5,28(sp)
80000884:	00068413          	mv	s0,a3
80000888:	00a00593          	li	a1,10
8000088c:	00048513          	mv	a0,s1
80000890:	42c000ef          	jal	ra,80000cbc <__modsi3>
80000894:	01012783          	lw	a5,16(sp)
80000898:	03050693          	addi	a3,a0,48
8000089c:	00812a23          	sw	s0,20(sp)
800008a0:	00140413          	addi	s0,s0,1
800008a4:	0ff6f693          	zext.b	a3,a3
800008a8:	008787b3          	add	a5,a5,s0
800008ac:	00048513          	mv	a0,s1
800008b0:	fed78fa3          	sb	a3,-1(a5)
800008b4:	00a00593          	li	a1,10
800008b8:	00d12423          	sw	a3,8(sp)
800008bc:	37c000ef          	jal	ra,80000c38 <__divsi3>
800008c0:	00812683          	lw	a3,8(sp)
800008c4:	00050493          	mv	s1,a0
800008c8:	fc0510e3          	bnez	a0,80000888 <printf+0x504>
800008cc:	01c12783          	lw	a5,28(sp)
800008d0:	00040713          	mv	a4,s0
800008d4:	00812c23          	sw	s0,24(sp)
800008d8:	02012403          	lw	s0,32(sp)
800008dc:	dcf74ee3          	blt	a4,a5,800006b8 <printf+0x334>
800008e0:	e35ff06f          	j	80000714 <printf+0x390>
800008e4:	02412703          	lw	a4,36(sp)
800008e8:	00012683          	lw	a3,0(sp)
800008ec:	00470713          	addi	a4,a4,4
800008f0:	00168493          	addi	s1,a3,1
800008f4:	ffc72683          	lw	a3,-4(a4)
800008f8:	02e12223          	sw	a4,36(sp)
800008fc:	00d12a23          	sw	a3,20(sp)
80000900:	1006c663          	bltz	a3,80000a0c <printf+0x688>
80000904:	01412703          	lw	a4,20(sp)
80000908:	30071463          	bnez	a4,80000c10 <printf+0x88c>
8000090c:	03000713          	li	a4,48
80000910:	02e10423          	sb	a4,40(sp)
80000914:	00100713          	li	a4,1
80000918:	26f74063          	blt	a4,a5,80000b78 <printf+0x7f4>
8000091c:	03000513          	li	a0,48
80000920:	00412403          	lw	s0,4(sp)
80000924:	851ff0ef          	jal	ra,80000174 <putch>
80000928:	00412783          	lw	a5,4(sp)
8000092c:	00912023          	sw	s1,0(sp)
80000930:	00178793          	addi	a5,a5,1
80000934:	00f12223          	sw	a5,4(sp)
80000938:	aadff06f          	j	800003e4 <printf+0x60>
8000093c:	02412683          	lw	a3,36(sp)
80000940:	0006a703          	lw	a4,0(a3)
80000944:	00468693          	addi	a3,a3,4
80000948:	02d12223          	sw	a3,36(sp)
8000094c:	1e071063          	bnez	a4,80000b2c <printf+0x7a8>
80000950:	03000713          	li	a4,48
80000954:	02e10423          	sb	a4,40(sp)
80000958:	00100713          	li	a4,1
8000095c:	22f75663          	bge	a4,a5,80000b88 <printf+0x804>
80000960:	00100713          	li	a4,1
80000964:	00e12a23          	sw	a4,20(sp)
80000968:	02810713          	addi	a4,sp,40
8000096c:	00012c23          	sw	zero,24(sp)
80000970:	00e12823          	sw	a4,16(sp)
80000974:	01412703          	lw	a4,20(sp)
80000978:	00000413          	li	s0,0
8000097c:	40e784b3          	sub	s1,a5,a4
80000980:	26905063          	blez	s1,80000be0 <printf+0x85c>
80000984:	00912423          	sw	s1,8(sp)
80000988:	00040493          	mv	s1,s0
8000098c:	00c12403          	lw	s0,12(sp)
80000990:	00040513          	mv	a0,s0
80000994:	fe0ff0ef          	jal	ra,80000174 <putch>
80000998:	00812783          	lw	a5,8(sp)
8000099c:	00148493          	addi	s1,s1,1
800009a0:	fe9798e3          	bne	a5,s1,80000990 <printf+0x60c>
800009a4:	00078493          	mv	s1,a5
800009a8:	01812783          	lw	a5,24(sp)
800009ac:	02410713          	addi	a4,sp,36
800009b0:	3ec78793          	addi	a5,a5,1004
800009b4:	00e787b3          	add	a5,a5,a4
800009b8:	c187c503          	lbu	a0,-1000(a5)
800009bc:	00012783          	lw	a5,0(sp)
800009c0:	009787b3          	add	a5,a5,s1
800009c4:	00f12023          	sw	a5,0(sp)
800009c8:	01012403          	lw	s0,16(sp)
800009cc:	01412783          	lw	a5,20(sp)
800009d0:	00f404b3          	add	s1,s0,a5
800009d4:	0080006f          	j	800009dc <printf+0x658>
800009d8:	fff4c503          	lbu	a0,-1(s1)
800009dc:	fff48493          	addi	s1,s1,-1
800009e0:	f94ff0ef          	jal	ra,80000174 <putch>
800009e4:	fe941ae3          	bne	s0,s1,800009d8 <printf+0x654>
800009e8:	00412783          	lw	a5,4(sp)
800009ec:	00012683          	lw	a3,0(sp)
800009f0:	01412703          	lw	a4,20(sp)
800009f4:	00078413          	mv	s0,a5
800009f8:	00178793          	addi	a5,a5,1
800009fc:	00d70733          	add	a4,a4,a3
80000a00:	00e12023          	sw	a4,0(sp)
80000a04:	00f12223          	sw	a5,4(sp)
80000a08:	9ddff06f          	j	800003e4 <printf+0x60>
80000a0c:	02d00513          	li	a0,45
80000a10:	00f12423          	sw	a5,8(sp)
80000a14:	f60ff0ef          	jal	ra,80000174 <putch>
80000a18:	01412783          	lw	a5,20(sp)
80000a1c:	00912023          	sw	s1,0(sp)
80000a20:	40f00433          	neg	s0,a5
80000a24:	00812783          	lw	a5,8(sp)
80000a28:	02810713          	addi	a4,sp,40
80000a2c:	00000493          	li	s1,0
80000a30:	00e12823          	sw	a4,16(sp)
80000a34:	00f12c23          	sw	a5,24(sp)
80000a38:	00a00593          	li	a1,10
80000a3c:	00040513          	mv	a0,s0
80000a40:	27c000ef          	jal	ra,80000cbc <__modsi3>
80000a44:	01012783          	lw	a5,16(sp)
80000a48:	03050713          	addi	a4,a0,48
80000a4c:	00912a23          	sw	s1,20(sp)
80000a50:	00148493          	addi	s1,s1,1
80000a54:	0ff77713          	zext.b	a4,a4
80000a58:	009787b3          	add	a5,a5,s1
80000a5c:	00040513          	mv	a0,s0
80000a60:	fee78fa3          	sb	a4,-1(a5)
80000a64:	00a00593          	li	a1,10
80000a68:	00e12423          	sw	a4,8(sp)
80000a6c:	1cc000ef          	jal	ra,80000c38 <__divsi3>
80000a70:	00812703          	lw	a4,8(sp)
80000a74:	00050413          	mv	s0,a0
80000a78:	fc0510e3          	bnez	a0,80000a38 <printf+0x6b4>
80000a7c:	01812783          	lw	a5,24(sp)
80000a80:	04f4de63          	bge	s1,a5,80000adc <printf+0x758>
80000a84:	409787b3          	sub	a5,a5,s1
80000a88:	00f12423          	sw	a5,8(sp)
80000a8c:	00000413          	li	s0,0
80000a90:	16f05463          	blez	a5,80000bf8 <printf+0x874>
80000a94:	00912c23          	sw	s1,24(sp)
80000a98:	00040493          	mv	s1,s0
80000a9c:	00c12403          	lw	s0,12(sp)
80000aa0:	00040513          	mv	a0,s0
80000aa4:	ed0ff0ef          	jal	ra,80000174 <putch>
80000aa8:	00812783          	lw	a5,8(sp)
80000aac:	00148493          	addi	s1,s1,1
80000ab0:	fe9798e3          	bne	a5,s1,80000aa0 <printf+0x71c>
80000ab4:	01412783          	lw	a5,20(sp)
80000ab8:	02410713          	addi	a4,sp,36
80000abc:	00012683          	lw	a3,0(sp)
80000ac0:	3ec78793          	addi	a5,a5,1004
80000ac4:	00e787b3          	add	a5,a5,a4
80000ac8:	c187c703          	lbu	a4,-1000(a5)
80000acc:	00812783          	lw	a5,8(sp)
80000ad0:	01812483          	lw	s1,24(sp)
80000ad4:	00d787b3          	add	a5,a5,a3
80000ad8:	00f12023          	sw	a5,0(sp)
80000adc:	01012783          	lw	a5,16(sp)
80000ae0:	00912423          	sw	s1,8(sp)
80000ae4:	00070513          	mv	a0,a4
80000ae8:	00978433          	add	s0,a5,s1
80000aec:	00040493          	mv	s1,s0
80000af0:	00078413          	mv	s0,a5
80000af4:	0080006f          	j	80000afc <printf+0x778>
80000af8:	fff4c503          	lbu	a0,-1(s1)
80000afc:	fff48493          	addi	s1,s1,-1
80000b00:	e74ff0ef          	jal	ra,80000174 <putch>
80000b04:	fe941ae3          	bne	s0,s1,80000af8 <printf+0x774>
80000b08:	00412783          	lw	a5,4(sp)
80000b0c:	00012703          	lw	a4,0(sp)
80000b10:	00812483          	lw	s1,8(sp)
80000b14:	00078413          	mv	s0,a5
80000b18:	00178793          	addi	a5,a5,1
80000b1c:	00e48733          	add	a4,s1,a4
80000b20:	00e12023          	sw	a4,0(sp)
80000b24:	00f12223          	sw	a5,4(sp)
80000b28:	8bdff06f          	j	800003e4 <printf+0x60>
80000b2c:	02810293          	addi	t0,sp,40
80000b30:	00000313          	li	t1,0
80000b34:	00512823          	sw	t0,16(sp)
80000b38:	00900593          	li	a1,9
80000b3c:	0080006f          	j	80000b44 <printf+0x7c0>
80000b40:	00068313          	mv	t1,a3
80000b44:	00f77613          	andi	a2,a4,15
80000b48:	05760513          	addi	a0,a2,87
80000b4c:	00c5c463          	blt	a1,a2,80000b54 <printf+0x7d0>
80000b50:	03060513          	addi	a0,a2,48
80000b54:	00130693          	addi	a3,t1,1
80000b58:	00d28633          	add	a2,t0,a3
80000b5c:	fea60fa3          	sb	a0,-1(a2)
80000b60:	00475713          	srli	a4,a4,0x4
80000b64:	fc071ee3          	bnez	a4,80000b40 <printf+0x7bc>
80000b68:	00d12a23          	sw	a3,20(sp)
80000b6c:	00612c23          	sw	t1,24(sp)
80000b70:	e0f6c2e3          	blt	a3,a5,80000974 <printf+0x5f0>
80000b74:	e55ff06f          	j	800009c8 <printf+0x644>
80000b78:	02810713          	addi	a4,sp,40
80000b7c:	00100493          	li	s1,1
80000b80:	00e12823          	sw	a4,16(sp)
80000b84:	f01ff06f          	j	80000a84 <printf+0x700>
80000b88:	00012703          	lw	a4,0(sp)
80000b8c:	00412483          	lw	s1,4(sp)
80000b90:	03000513          	li	a0,48
80000b94:	00170713          	addi	a4,a4,1
80000b98:	00e12023          	sw	a4,0(sp)
80000b9c:	dd8ff0ef          	jal	ra,80000174 <putch>
80000ba0:	00148793          	addi	a5,s1,1
80000ba4:	00048413          	mv	s0,s1
80000ba8:	00f12223          	sw	a5,4(sp)
80000bac:	839ff06f          	j	800003e4 <printf+0x60>
80000bb0:	94079ae3          	bnez	a5,80000504 <printf+0x180>
80000bb4:	831ff06f          	j	800003e4 <printf+0x60>
80000bb8:	00070793          	mv	a5,a4
80000bbc:	99dff06f          	j	80000558 <printf+0x1d4>
80000bc0:	01412783          	lw	a5,20(sp)
80000bc4:	02410713          	addi	a4,sp,36
80000bc8:	3ec78793          	addi	a5,a5,1004
80000bcc:	00e787b3          	add	a5,a5,a4
80000bd0:	c187c683          	lbu	a3,-1000(a5)
80000bd4:	b41ff06f          	j	80000714 <printf+0x390>
80000bd8:	00070493          	mv	s1,a4
80000bdc:	c95ff06f          	j	80000870 <printf+0x4ec>
80000be0:	01812783          	lw	a5,24(sp)
80000be4:	02410713          	addi	a4,sp,36
80000be8:	3ec78793          	addi	a5,a5,1004
80000bec:	00e787b3          	add	a5,a5,a4
80000bf0:	c187c503          	lbu	a0,-1000(a5)
80000bf4:	dd5ff06f          	j	800009c8 <printf+0x644>
80000bf8:	01412783          	lw	a5,20(sp)
80000bfc:	02410713          	addi	a4,sp,36
80000c00:	3ec78793          	addi	a5,a5,1004
80000c04:	00e787b3          	add	a5,a5,a4
80000c08:	c187c703          	lbu	a4,-1000(a5)
80000c0c:	ed1ff06f          	j	80000adc <printf+0x758>
80000c10:	00070413          	mv	s0,a4
80000c14:	e15ff06f          	j	80000a28 <printf+0x6a4>

80000c18 <memset>:
80000c18:	0ff5f593          	zext.b	a1,a1
80000c1c:	00050793          	mv	a5,a0
80000c20:	00a60733          	add	a4,a2,a0
80000c24:	00060863          	beqz	a2,80000c34 <memset+0x1c>
80000c28:	00b78023          	sb	a1,0(a5)
80000c2c:	00178793          	addi	a5,a5,1
80000c30:	fee79ce3          	bne	a5,a4,80000c28 <memset+0x10>
80000c34:	00008067          	ret

80000c38 <__divsi3>:
80000c38:	06054063          	bltz	a0,80000c98 <__umodsi3+0x10>
80000c3c:	0605c663          	bltz	a1,80000ca8 <__umodsi3+0x20>

80000c40 <__hidden___udivsi3>:
80000c40:	00058613          	mv	a2,a1
80000c44:	00050593          	mv	a1,a0
80000c48:	fff00513          	li	a0,-1
80000c4c:	02060c63          	beqz	a2,80000c84 <__hidden___udivsi3+0x44>
80000c50:	00100693          	li	a3,1
80000c54:	00b67a63          	bgeu	a2,a1,80000c68 <__hidden___udivsi3+0x28>
80000c58:	00c05863          	blez	a2,80000c68 <__hidden___udivsi3+0x28>
80000c5c:	00161613          	slli	a2,a2,0x1
80000c60:	00169693          	slli	a3,a3,0x1
80000c64:	feb66ae3          	bltu	a2,a1,80000c58 <__hidden___udivsi3+0x18>
80000c68:	00000513          	li	a0,0
80000c6c:	00c5e663          	bltu	a1,a2,80000c78 <__hidden___udivsi3+0x38>
80000c70:	40c585b3          	sub	a1,a1,a2
80000c74:	00d56533          	or	a0,a0,a3
80000c78:	0016d693          	srli	a3,a3,0x1
80000c7c:	00165613          	srli	a2,a2,0x1
80000c80:	fe0696e3          	bnez	a3,80000c6c <__hidden___udivsi3+0x2c>
80000c84:	00008067          	ret

80000c88 <__umodsi3>:
80000c88:	00008293          	mv	t0,ra
80000c8c:	fb5ff0ef          	jal	ra,80000c40 <__hidden___udivsi3>
80000c90:	00058513          	mv	a0,a1
80000c94:	00028067          	jr	t0
80000c98:	40a00533          	neg	a0,a0
80000c9c:	00b04863          	bgtz	a1,80000cac <__umodsi3+0x24>
80000ca0:	40b005b3          	neg	a1,a1
80000ca4:	f9dff06f          	j	80000c40 <__hidden___udivsi3>
80000ca8:	40b005b3          	neg	a1,a1
80000cac:	00008293          	mv	t0,ra
80000cb0:	f91ff0ef          	jal	ra,80000c40 <__hidden___udivsi3>
80000cb4:	40a00533          	neg	a0,a0
80000cb8:	00028067          	jr	t0

80000cbc <__modsi3>:
80000cbc:	00008293          	mv	t0,ra
80000cc0:	0005ca63          	bltz	a1,80000cd4 <__modsi3+0x18>
80000cc4:	00054c63          	bltz	a0,80000cdc <__modsi3+0x20>
80000cc8:	f79ff0ef          	jal	ra,80000c40 <__hidden___udivsi3>
80000ccc:	00058513          	mv	a0,a1
80000cd0:	00028067          	jr	t0
80000cd4:	40b005b3          	neg	a1,a1
80000cd8:	fe0558e3          	bgez	a0,80000cc8 <__modsi3+0xc>
80000cdc:	40a00533          	neg	a0,a0
80000ce0:	f61ff0ef          	jal	ra,80000c40 <__hidden___udivsi3>
80000ce4:	40b00533          	neg	a0,a1
80000ce8:	00028067          	jr	t0
