
/home/xietianle/ysyx-workbench/am-kernels/tests/am-tests/build/amtest-riscv32-nemu.elf:     file format elf32-littleriscv


Disassembly of section .text:

80000000 <_start>:
80000000:	00000413          	li	s0,0
80000004:	0009e117          	auipc	sp,0x9e
80000008:	ffc10113          	addi	sp,sp,-4 # 8009e000 <_end>
8000000c:	7fd000ef          	jal	ra,80001008 <_trm_init>

80000010 <audio_test>:
80000010:	fd010113          	addi	sp,sp,-48
80000014:	00410593          	addi	a1,sp,4
80000018:	00e00513          	li	a0,14
8000001c:	02112623          	sw	ra,44(sp)
80000020:	02812423          	sw	s0,40(sp)
80000024:	02912223          	sw	s1,36(sp)
80000028:	03212023          	sw	s2,32(sp)
8000002c:	01312e23          	sw	s3,28(sp)
80000030:	01412c23          	sw	s4,24(sp)
80000034:	0e4010ef          	jal	ra,80001118 <ioe_read>
80000038:	00414783          	lbu	a5,4(sp)
8000003c:	0c078863          	beqz	a5,8000010c <audio_test+0xfc>
80000040:	000027b7          	lui	a5,0x2
80000044:	f4078793          	addi	a5,a5,-192 # 1f40 <_entry_offset+0x1f40>
80000048:	00f12223          	sw	a5,4(sp)
8000004c:	00100793          	li	a5,1
80000050:	00f12423          	sw	a5,8(sp)
80000054:	00410593          	addi	a1,sp,4
80000058:	40000793          	li	a5,1024
8000005c:	00f00513          	li	a0,15
80000060:	00f12623          	sw	a5,12(sp)
80000064:	0d0010ef          	jal	ra,80001134 <ioe_write>
80000068:	00011797          	auipc	a5,0x11
8000006c:	d3c78793          	addi	a5,a5,-708 # 80010da4 <code>
80000070:	00003497          	auipc	s1,0x3
80000074:	f2848493          	addi	s1,s1,-216 # 80002f98 <audio_payload>
80000078:	40978933          	sub	s2,a5,s1
8000007c:	04978e63          	beq	a5,s1,800000d8 <audio_test+0xc8>
80000080:	00000413          	li	s0,0
80000084:	00000793          	li	a5,0
80000088:	00001a37          	lui	s4,0x1
8000008c:	00002997          	auipc	s3,0x2
80000090:	17098993          	addi	s3,s3,368 # 800021fc <_etext+0x34>
80000094:	40f907b3          	sub	a5,s2,a5
80000098:	00048713          	mv	a4,s1
8000009c:	00410593          	addi	a1,sp,4
800000a0:	01100513          	li	a0,17
800000a4:	00fa7463          	bgeu	s4,a5,800000ac <audio_test+0x9c>
800000a8:	000017b7          	lui	a5,0x1
800000ac:	00f484b3          	add	s1,s1,a5
800000b0:	00f40433          	add	s0,s0,a5
800000b4:	00e12223          	sw	a4,4(sp)
800000b8:	00912423          	sw	s1,8(sp)
800000bc:	078010ef          	jal	ra,80001134 <ioe_write>
800000c0:	00090613          	mv	a2,s2
800000c4:	00040593          	mv	a1,s0
800000c8:	00098513          	mv	a0,s3
800000cc:	5c4010ef          	jal	ra,80001690 <printf>
800000d0:	00040793          	mv	a5,s0
800000d4:	fd2460e3          	bltu	s0,s2,80000094 <audio_test+0x84>
800000d8:	00410593          	addi	a1,sp,4
800000dc:	01000513          	li	a0,16
800000e0:	038010ef          	jal	ra,80001118 <ioe_read>
800000e4:	00412783          	lw	a5,4(sp)
800000e8:	fef048e3          	bgtz	a5,800000d8 <audio_test+0xc8>
800000ec:	02c12083          	lw	ra,44(sp)
800000f0:	02812403          	lw	s0,40(sp)
800000f4:	02412483          	lw	s1,36(sp)
800000f8:	02012903          	lw	s2,32(sp)
800000fc:	01c12983          	lw	s3,28(sp)
80000100:	01812a03          	lw	s4,24(sp)
80000104:	03010113          	addi	sp,sp,48
80000108:	00008067          	ret
8000010c:	02812403          	lw	s0,40(sp)
80000110:	02c12083          	lw	ra,44(sp)
80000114:	02412483          	lw	s1,36(sp)
80000118:	02012903          	lw	s2,32(sp)
8000011c:	01c12983          	lw	s3,28(sp)
80000120:	01812a03          	lw	s4,24(sp)
80000124:	00002597          	auipc	a1,0x2
80000128:	0a458593          	addi	a1,a1,164 # 800021c8 <_etext>
8000012c:	00002517          	auipc	a0,0x2
80000130:	0ac50513          	addi	a0,a0,172 # 800021d8 <_etext+0x10>
80000134:	03010113          	addi	sp,sp,48
80000138:	5580106f          	j	80001690 <printf>

8000013c <hello>:
8000013c:	ff010113          	addi	sp,sp,-16
80000140:	00912223          	sw	s1,4(sp)
80000144:	00112623          	sw	ra,12(sp)
80000148:	00812423          	sw	s0,8(sp)
8000014c:	00a00493          	li	s1,10
80000150:	00002417          	auipc	s0,0x2
80000154:	0d040413          	addi	s0,s0,208 # 80002220 <_etext+0x58>
80000158:	04800513          	li	a0,72
8000015c:	00140413          	addi	s0,s0,1
80000160:	691000ef          	jal	ra,80000ff0 <putch>
80000164:	00044503          	lbu	a0,0(s0)
80000168:	fe051ae3          	bnez	a0,8000015c <hello+0x20>
8000016c:	fff48493          	addi	s1,s1,-1
80000170:	fe0490e3          	bnez	s1,80000150 <hello+0x14>
80000174:	00c12083          	lw	ra,12(sp)
80000178:	00812403          	lw	s0,8(sp)
8000017c:	00412483          	lw	s1,4(sp)
80000180:	01010113          	addi	sp,sp,16
80000184:	00008067          	ret

80000188 <simple_trap>:
80000188:	00052783          	lw	a5,0(a0)
8000018c:	ff010113          	addi	sp,sp,-16
80000190:	00812423          	sw	s0,8(sp)
80000194:	00112623          	sw	ra,12(sp)
80000198:	00500713          	li	a4,5
8000019c:	00058413          	mv	s0,a1
800001a0:	0ae78463          	beq	a5,a4,80000248 <simple_trap+0xc0>
800001a4:	00600713          	li	a4,6
800001a8:	08e78263          	beq	a5,a4,8000022c <simple_trap+0xa4>
800001ac:	00100713          	li	a4,1
800001b0:	06e78063          	beq	a5,a4,80000210 <simple_trap+0x88>
800001b4:	00002417          	auipc	s0,0x2
800001b8:	08840413          	addi	s0,s0,136 # 8000223c <_etext+0x74>
800001bc:	04100513          	li	a0,65
800001c0:	00140413          	addi	s0,s0,1
800001c4:	62d000ef          	jal	ra,80000ff0 <putch>
800001c8:	00044503          	lbu	a0,0(s0)
800001cc:	fe051ae3          	bnez	a0,800001c0 <simple_trap+0x38>
800001d0:	00002417          	auipc	s0,0x2
800001d4:	07840413          	addi	s0,s0,120 # 80002248 <_etext+0x80>
800001d8:	05500513          	li	a0,85
800001dc:	00140413          	addi	s0,s0,1
800001e0:	611000ef          	jal	ra,80000ff0 <putch>
800001e4:	00044503          	lbu	a0,0(s0)
800001e8:	fe051ae3          	bnez	a0,800001dc <simple_trap+0x54>
800001ec:	00002417          	auipc	s0,0x2
800001f0:	06c40413          	addi	s0,s0,108 # 80002258 <_etext+0x90>
800001f4:	02000513          	li	a0,32
800001f8:	00140413          	addi	s0,s0,1
800001fc:	5f5000ef          	jal	ra,80000ff0 <putch>
80000200:	00044503          	lbu	a0,0(s0)
80000204:	fe051ae3          	bnez	a0,800001f8 <simple_trap+0x70>
80000208:	00100513          	li	a0,1
8000020c:	5f1000ef          	jal	ra,80000ffc <halt>
80000210:	07900513          	li	a0,121
80000214:	5dd000ef          	jal	ra,80000ff0 <putch>
80000218:	00c12083          	lw	ra,12(sp)
8000021c:	00040513          	mv	a0,s0
80000220:	00812403          	lw	s0,8(sp)
80000224:	01010113          	addi	sp,sp,16
80000228:	00008067          	ret
8000022c:	06400513          	li	a0,100
80000230:	5c1000ef          	jal	ra,80000ff0 <putch>
80000234:	00c12083          	lw	ra,12(sp)
80000238:	00040513          	mv	a0,s0
8000023c:	00812403          	lw	s0,8(sp)
80000240:	01010113          	addi	sp,sp,16
80000244:	00008067          	ret
80000248:	07400513          	li	a0,116
8000024c:	5a5000ef          	jal	ra,80000ff0 <putch>
80000250:	00c12083          	lw	ra,12(sp)
80000254:	00040513          	mv	a0,s0
80000258:	00812403          	lw	s0,8(sp)
8000025c:	01010113          	addi	sp,sp,16
80000260:	00008067          	ret

80000264 <hello_intr>:
80000264:	fe010113          	addi	sp,sp,-32
80000268:	00002517          	auipc	a0,0x2
8000026c:	fb850513          	addi	a0,a0,-72 # 80002220 <_etext+0x58>
80000270:	00112e23          	sw	ra,28(sp)
80000274:	41c010ef          	jal	ra,80001690 <printf>
80000278:	00002517          	auipc	a0,0x2
8000027c:	03450513          	addi	a0,a0,52 # 800022ac <_etext+0xe4>
80000280:	410010ef          	jal	ra,80001690 <printf>
80000284:	00700513          	li	a0,7
80000288:	00c10593          	addi	a1,sp,12
8000028c:	68d000ef          	jal	ra,80001118 <ioe_read>
80000290:	00100513          	li	a0,1
80000294:	1fc010ef          	jal	ra,80001490 <iset>
80000298:	1ec010ef          	jal	ra,80001484 <yield>
8000029c:	ffdff06f          	j	80000298 <hello_intr+0x34>

800002a0 <mp_print>:
800002a0:	ff010113          	addi	sp,sp,-16
800002a4:	00812423          	sw	s0,8(sp)
800002a8:	00112623          	sw	ra,12(sp)
800002ac:	00002417          	auipc	s0,0x2
800002b0:	02440413          	addi	s0,s0,36 # 800022d0 <_etext+0x108>
800002b4:	120010ef          	jal	ra,800013d4 <cpu_current>
800002b8:	00050593          	mv	a1,a0
800002bc:	00040513          	mv	a0,s0
800002c0:	3d0010ef          	jal	ra,80001690 <printf>
800002c4:	ff1ff06f          	j	800002b4 <mp_print+0x14>

800002c8 <redraw>:
800002c8:	fb010113          	addi	sp,sp,-80
800002cc:	00810593          	addi	a1,sp,8
800002d0:	00900513          	li	a0,9
800002d4:	04112623          	sw	ra,76(sp)
800002d8:	03312e23          	sw	s3,60(sp)
800002dc:	03512a23          	sw	s5,52(sp)
800002e0:	03712623          	sw	s7,44(sp)
800002e4:	04812423          	sw	s0,72(sp)
800002e8:	04912223          	sw	s1,68(sp)
800002ec:	05212023          	sw	s2,64(sp)
800002f0:	03412c23          	sw	s4,56(sp)
800002f4:	03612823          	sw	s6,48(sp)
800002f8:	03812423          	sw	s8,40(sp)
800002fc:	03912223          	sw	s9,36(sp)
80000300:	619000ef          	jal	ra,80001118 <ioe_read>
80000304:	00c12783          	lw	a5,12(sp)
80000308:	00810593          	addi	a1,sp,8
8000030c:	00900513          	li	a0,9
80000310:	41f7d993          	srai	s3,a5,0x1f
80000314:	01f9f993          	andi	s3,s3,31
80000318:	00f989b3          	add	s3,s3,a5
8000031c:	5fd000ef          	jal	ra,80001118 <ioe_read>
80000320:	01012783          	lw	a5,16(sp)
80000324:	4059d993          	srai	s3,s3,0x5
80000328:	40000713          	li	a4,1024
8000032c:	41f7da93          	srai	s5,a5,0x1f
80000330:	01fafa93          	andi	s5,s5,31
80000334:	00fa8ab3          	add	s5,s5,a5
80000338:	405ada93          	srai	s5,s5,0x5
8000033c:	03598bb3          	mul	s7,s3,s5
80000340:	0f776063          	bltu	a4,s7,80000420 <redraw+0x158>
80000344:	00012a17          	auipc	s4,0x12
80000348:	c80a0a13          	addi	s4,s4,-896 # 80011fc4 <color_buf>
8000034c:	002b9413          	slli	s0,s7,0x2
80000350:	00011b17          	auipc	s6,0x11
80000354:	cf4b0b13          	addi	s6,s6,-780 # 80011044 <canvas+0x80>
80000358:	00012c17          	auipc	s8,0x12
8000035c:	cecc0c13          	addi	s8,s8,-788 # 80012044 <color_buf+0x80>
80000360:	008a0433          	add	s0,s4,s0
80000364:	00000c93          	li	s9,0
80000368:	f80b0493          	addi	s1,s6,-128
8000036c:	00000913          	li	s2,0
80000370:	000b8c63          	beqz	s7,80000388 <redraw+0xc0>
80000374:	0004a703          	lw	a4,0(s1)
80000378:	000a0793          	mv	a5,s4
8000037c:	00e7a023          	sw	a4,0(a5) # 1000 <_entry_offset+0x1000>
80000380:	00478793          	addi	a5,a5,4
80000384:	fe879ce3          	bne	a5,s0,8000037c <redraw+0xb4>
80000388:	00448493          	addi	s1,s1,4
8000038c:	00810593          	addi	a1,sp,8
80000390:	00b00513          	li	a0,11
80000394:	01212423          	sw	s2,8(sp)
80000398:	01912623          	sw	s9,12(sp)
8000039c:	01412823          	sw	s4,16(sp)
800003a0:	01312a23          	sw	s3,20(sp)
800003a4:	01512c23          	sw	s5,24(sp)
800003a8:	00010e23          	sb	zero,28(sp)
800003ac:	01390933          	add	s2,s2,s3
800003b0:	585000ef          	jal	ra,80001134 <ioe_write>
800003b4:	fb649ee3          	bne	s1,s6,80000370 <redraw+0xa8>
800003b8:	08048b13          	addi	s6,s1,128
800003bc:	015c8cb3          	add	s9,s9,s5
800003c0:	fb8b14e3          	bne	s6,s8,80000368 <redraw+0xa0>
800003c4:	00810593          	addi	a1,sp,8
800003c8:	00100793          	li	a5,1
800003cc:	00b00513          	li	a0,11
800003d0:	00012423          	sw	zero,8(sp)
800003d4:	00012623          	sw	zero,12(sp)
800003d8:	00012823          	sw	zero,16(sp)
800003dc:	00012a23          	sw	zero,20(sp)
800003e0:	00012c23          	sw	zero,24(sp)
800003e4:	00f10e23          	sb	a5,28(sp)
800003e8:	54d000ef          	jal	ra,80001134 <ioe_write>
800003ec:	04c12083          	lw	ra,76(sp)
800003f0:	04812403          	lw	s0,72(sp)
800003f4:	04412483          	lw	s1,68(sp)
800003f8:	04012903          	lw	s2,64(sp)
800003fc:	03c12983          	lw	s3,60(sp)
80000400:	03812a03          	lw	s4,56(sp)
80000404:	03412a83          	lw	s5,52(sp)
80000408:	03012b03          	lw	s6,48(sp)
8000040c:	02c12b83          	lw	s7,44(sp)
80000410:	02812c03          	lw	s8,40(sp)
80000414:	02412c83          	lw	s9,36(sp)
80000418:	05010113          	addi	sp,sp,80
8000041c:	00008067          	ret
80000420:	01600613          	li	a2,22
80000424:	00002597          	auipc	a1,0x2
80000428:	eb058593          	addi	a1,a1,-336 # 800022d4 <_etext+0x10c>
8000042c:	00002517          	auipc	a0,0x2
80000430:	ef450513          	addi	a0,a0,-268 # 80002320 <_etext+0x158>
80000434:	25c010ef          	jal	ra,80001690 <printf>
80000438:	00100513          	li	a0,1
8000043c:	3c1000ef          	jal	ra,80000ffc <halt>

80000440 <update>:
80000440:	00095797          	auipc	a5,0x95
80000444:	da478793          	addi	a5,a5,-604 # 800951e4 <tsc.2>
80000448:	0007a383          	lw	t2,0(a5)
8000044c:	ff010113          	addi	sp,sp,-16
80000450:	00812623          	sw	s0,12(sp)
80000454:	00912423          	sw	s1,8(sp)
80000458:	01212223          	sw	s2,4(sp)
8000045c:	01312023          	sw	s3,0(sp)
80000460:	00138393          	addi	t2,t2,1
80000464:	00013717          	auipc	a4,0x13
80000468:	be070713          	addi	a4,a4,-1056 # 80013044 <used+0x80>
8000046c:	00014697          	auipc	a3,0x14
80000470:	bd868693          	addi	a3,a3,-1064 # 80014044 <stack.0+0x70>
80000474:	0077a023          	sw	t2,0(a5)
80000478:	f8070793          	addi	a5,a4,-128
8000047c:	0007a023          	sw	zero,0(a5)
80000480:	00478793          	addi	a5,a5,4
80000484:	fef71ce3          	bne	a4,a5,8000047c <update+0x3c>
80000488:	08070713          	addi	a4,a4,128
8000048c:	fed716e3          	bne	a4,a3,80000478 <update+0x38>
80000490:	0ff3f693          	zext.b	a3,t2
80000494:	00169793          	slli	a5,a3,0x1
80000498:	00f687b3          	add	a5,a3,a5
8000049c:	00369713          	slli	a4,a3,0x3
800004a0:	00179793          	slli	a5,a5,0x1
800004a4:	40d70733          	sub	a4,a4,a3
800004a8:	0ff7f793          	zext.b	a5,a5
800004ac:	0ff77713          	zext.b	a4,a4
800004b0:	00871713          	slli	a4,a4,0x8
800004b4:	01079793          	slli	a5,a5,0x10
800004b8:	00e7e7b3          	or	a5,a5,a4
800004bc:	0ff3f713          	zext.b	a4,t2
800004c0:	00e7e7b3          	or	a5,a5,a4
800004c4:	00011417          	auipc	s0,0x11
800004c8:	b0040413          	addi	s0,s0,-1280 # 80010fc4 <canvas>
800004cc:	00013e97          	auipc	t4,0x13
800004d0:	af8e8e93          	addi	t4,t4,-1288 # 80012fc4 <used>
800004d4:	00f42023          	sw	a5,0(s0)
800004d8:	00100793          	li	a5,1
800004dc:	00fea023          	sw	a5,0(t4)
800004e0:	00100713          	li	a4,1
800004e4:	00000793          	li	a5,0
800004e8:	00100f93          	li	t6,1
800004ec:	00000593          	li	a1,0
800004f0:	00000913          	li	s2,0
800004f4:	00000e13          	li	t3,0
800004f8:	01f00f13          	li	t5,31
800004fc:	00002317          	auipc	t1,0x2
80000500:	e5030313          	addi	t1,t1,-432 # 8000234c <dx.1>
80000504:	00002897          	auipc	a7,0x2
80000508:	e5888893          	addi	a7,a7,-424 # 8000235c <dy.0>
8000050c:	00100493          	li	s1,1
80000510:	40000293          	li	t0,1024
80000514:	00400693          	li	a3,4
80000518:	00fe0633          	add	a2,t3,a5
8000051c:	00e90733          	add	a4,s2,a4
80000520:	00561793          	slli	a5,a2,0x5
80000524:	00e787b3          	add	a5,a5,a4
80000528:	00279793          	slli	a5,a5,0x2
8000052c:	00e66533          	or	a0,a2,a4
80000530:	00fe89b3          	add	s3,t4,a5
80000534:	00158813          	addi	a6,a1,1
80000538:	fff68693          	addi	a3,a3,-1
8000053c:	00af6663          	bltu	t5,a0,80000548 <update+0x108>
80000540:	0009a503          	lw	a0,0(s3)
80000544:	02050263          	beqz	a0,80000568 <update+0x128>
80000548:	00387593          	andi	a1,a6,3
8000054c:	00259793          	slli	a5,a1,0x2
80000550:	00f30633          	add	a2,t1,a5
80000554:	00f88733          	add	a4,a7,a5
80000558:	06068063          	beqz	a3,800005b8 <update+0x178>
8000055c:	00062783          	lw	a5,0(a2)
80000560:	00072703          	lw	a4,0(a4)
80000564:	fb5ff06f          	j	80000518 <update+0xd8>
80000568:	401fd813          	srai	a6,t6,0x1
8000056c:	00780833          	add	a6,a6,t2
80000570:	0ff87e13          	zext.b	t3,a6
80000574:	001e1513          	slli	a0,t3,0x1
80000578:	00ae0533          	add	a0,t3,a0
8000057c:	003e1693          	slli	a3,t3,0x3
80000580:	41c686b3          	sub	a3,a3,t3
80000584:	00151513          	slli	a0,a0,0x1
80000588:	0ff57513          	zext.b	a0,a0
8000058c:	0ff6f693          	zext.b	a3,a3
80000590:	00869693          	slli	a3,a3,0x8
80000594:	01051513          	slli	a0,a0,0x10
80000598:	00d56533          	or	a0,a0,a3
8000059c:	0ff87813          	zext.b	a6,a6
800005a0:	00f406b3          	add	a3,s0,a5
800005a4:	010567b3          	or	a5,a0,a6
800005a8:	0099a023          	sw	s1,0(s3)
800005ac:	00f6a023          	sw	a5,0(a3)
800005b0:	00070913          	mv	s2,a4
800005b4:	00060e13          	mv	t3,a2
800005b8:	001f8f93          	addi	t6,t6,1
800005bc:	005f8e63          	beq	t6,t0,800005d8 <update+0x198>
800005c0:	00259793          	slli	a5,a1,0x2
800005c4:	00f88733          	add	a4,a7,a5
800005c8:	00f306b3          	add	a3,t1,a5
800005cc:	0006a783          	lw	a5,0(a3)
800005d0:	00072703          	lw	a4,0(a4)
800005d4:	f41ff06f          	j	80000514 <update+0xd4>
800005d8:	00c12403          	lw	s0,12(sp)
800005dc:	00812483          	lw	s1,8(sp)
800005e0:	00412903          	lw	s2,4(sp)
800005e4:	00012983          	lw	s3,0(sp)
800005e8:	01010113          	addi	sp,sp,16
800005ec:	00008067          	ret

800005f0 <video_test>:
800005f0:	fd010113          	addi	sp,sp,-48
800005f4:	02912223          	sw	s1,36(sp)
800005f8:	03212023          	sw	s2,32(sp)
800005fc:	01312e23          	sw	s3,28(sp)
80000600:	01412c23          	sw	s4,24(sp)
80000604:	01512a23          	sw	s5,20(sp)
80000608:	01612823          	sw	s6,16(sp)
8000060c:	02112623          	sw	ra,44(sp)
80000610:	02812423          	sw	s0,40(sp)
80000614:	00000993          	li	s3,0
80000618:	00000913          	li	s2,0
8000061c:	00000493          	li	s1,0
80000620:	02100a93          	li	s5,33
80000624:	3e800a13          	li	s4,1000
80000628:	00002b17          	auipc	s6,0x2
8000062c:	d14b0b13          	addi	s6,s6,-748 # 8000233c <_etext+0x174>
80000630:	00810593          	addi	a1,sp,8
80000634:	00600513          	li	a0,6
80000638:	2e1000ef          	jal	ra,80001118 <ioe_read>
8000063c:	00812503          	lw	a0,8(sp)
80000640:	00c12583          	lw	a1,12(sp)
80000644:	3e800613          	li	a2,1000
80000648:	00000693          	li	a3,0
8000064c:	16d010ef          	jal	ra,80001fb8 <__udivdi3>
80000650:	409507b3          	sub	a5,a0,s1
80000654:	00050413          	mv	s0,a0
80000658:	02fae463          	bltu	s5,a5,80000680 <video_test+0x90>
8000065c:	412407b3          	sub	a5,s0,s2
80000660:	fcfa78e3          	bgeu	s4,a5,80000630 <video_test+0x40>
80000664:	00098613          	mv	a2,s3
80000668:	00040593          	mv	a1,s0
8000066c:	000b0513          	mv	a0,s6
80000670:	020010ef          	jal	ra,80001690 <printf>
80000674:	00040913          	mv	s2,s0
80000678:	00000993          	li	s3,0
8000067c:	fb5ff06f          	j	80000630 <video_test+0x40>
80000680:	dc1ff0ef          	jal	ra,80000440 <update>
80000684:	00198993          	addi	s3,s3,1
80000688:	c41ff0ef          	jal	ra,800002c8 <redraw>
8000068c:	00040493          	mv	s1,s0
80000690:	fcdff06f          	j	8000065c <video_test+0x6c>

80000694 <keyboard_test>:
80000694:	fc010113          	addi	sp,sp,-64
80000698:	00002517          	auipc	a0,0x2
8000069c:	cd450513          	addi	a0,a0,-812 # 8000236c <dy.0+0x10>
800006a0:	02112e23          	sw	ra,60(sp)
800006a4:	02812c23          	sw	s0,56(sp)
800006a8:	02912a23          	sw	s1,52(sp)
800006ac:	03212823          	sw	s2,48(sp)
800006b0:	03312623          	sw	s3,44(sp)
800006b4:	03412423          	sw	s4,40(sp)
800006b8:	03512223          	sw	s5,36(sp)
800006bc:	03612023          	sw	s6,32(sp)
800006c0:	01712e23          	sw	s7,28(sp)
800006c4:	7cd000ef          	jal	ra,80001690 <printf>
800006c8:	00810593          	addi	a1,sp,8
800006cc:	00100513          	li	a0,1
800006d0:	249000ef          	jal	ra,80001118 <ioe_read>
800006d4:	00814783          	lbu	a5,8(sp)
800006d8:	00095b17          	auipc	s6,0x95
800006dc:	b11b0b13          	addi	s6,s6,-1263 # 800951e9 <has_uart>
800006e0:	00810593          	addi	a1,sp,8
800006e4:	00700513          	li	a0,7
800006e8:	00fb0023          	sb	a5,0(s6)
800006ec:	22d000ef          	jal	ra,80001118 <ioe_read>
800006f0:	00814783          	lbu	a5,8(sp)
800006f4:	00095a97          	auipc	s5,0x95
800006f8:	af4a8a93          	addi	s5,s5,-1292 # 800951e8 <has_kbd>
800006fc:	00002917          	auipc	s2,0x2
80000700:	e8090913          	addi	s2,s2,-384 # 8000257c <names>
80000704:	00fa8023          	sb	a5,0(s5)
80000708:	0ff00493          	li	s1,255
8000070c:	00002417          	auipc	s0,0x2
80000710:	c8c40413          	addi	s0,s0,-884 # 80002398 <dy.0+0x3c>
80000714:	00002997          	auipc	s3,0x2
80000718:	e6098993          	addi	s3,s3,-416 # 80002574 <dy.0+0x218>
8000071c:	00002a17          	auipc	s4,0x2
80000720:	e50a0a13          	addi	s4,s4,-432 # 8000256c <dy.0+0x210>
80000724:	000b4783          	lbu	a5,0(s6)
80000728:	04079a63          	bnez	a5,8000077c <keyboard_test+0xe8>
8000072c:	000ac783          	lbu	a5,0(s5)
80000730:	fe078ae3          	beqz	a5,80000724 <keyboard_test+0x90>
80000734:	00002b97          	auipc	s7,0x2
80000738:	c7cb8b93          	addi	s7,s7,-900 # 800023b0 <dy.0+0x54>
8000073c:	00800513          	li	a0,8
80000740:	00810593          	addi	a1,sp,8
80000744:	1d5000ef          	jal	ra,80001118 <ioe_read>
80000748:	00c12603          	lw	a2,12(sp)
8000074c:	00814703          	lbu	a4,8(sp)
80000750:	000b8513          	mv	a0,s7
80000754:	00261793          	slli	a5,a2,0x2
80000758:	00f907b3          	add	a5,s2,a5
8000075c:	fc0604e3          	beqz	a2,80000724 <keyboard_test+0x90>
80000760:	0007a583          	lw	a1,0(a5)
80000764:	00098693          	mv	a3,s3
80000768:	00071463          	bnez	a4,80000770 <keyboard_test+0xdc>
8000076c:	000a0693          	mv	a3,s4
80000770:	721000ef          	jal	ra,80001690 <printf>
80000774:	fc9ff06f          	j	8000073c <keyboard_test+0xa8>
80000778:	719000ef          	jal	ra,80001690 <printf>
8000077c:	00810593          	addi	a1,sp,8
80000780:	00300513          	li	a0,3
80000784:	195000ef          	jal	ra,80001118 <ioe_read>
80000788:	00814603          	lbu	a2,8(sp)
8000078c:	00040513          	mv	a0,s0
80000790:	00060593          	mv	a1,a2
80000794:	fe9612e3          	bne	a2,s1,80000778 <keyboard_test+0xe4>
80000798:	f95ff06f          	j	8000072c <keyboard_test+0x98>

8000079c <rtc_test>:
8000079c:	fb010113          	addi	sp,sp,-80
800007a0:	05212023          	sw	s2,64(sp)
800007a4:	000f4937          	lui	s2,0xf4
800007a8:	04812423          	sw	s0,72(sp)
800007ac:	04912223          	sw	s1,68(sp)
800007b0:	03312e23          	sw	s3,60(sp)
800007b4:	03412c23          	sw	s4,56(sp)
800007b8:	03512a23          	sw	s5,52(sp)
800007bc:	03612823          	sw	s6,48(sp)
800007c0:	03712623          	sw	s7,44(sp)
800007c4:	04112623          	sw	ra,76(sp)
800007c8:	00100493          	li	s1,1
800007cc:	00000413          	li	s0,0
800007d0:	24090913          	addi	s2,s2,576 # f4240 <_entry_offset+0xf4240>
800007d4:	00000993          	li	s3,0
800007d8:	00002b17          	auipc	s6,0x2
800007dc:	ef0b0b13          	addi	s6,s6,-272 # 800026c8 <names+0x14c>
800007e0:	00100a93          	li	s5,1
800007e4:	00002b97          	auipc	s7,0x2
800007e8:	f14b8b93          	addi	s7,s7,-236 # 800026f8 <names+0x17c>
800007ec:	00002a17          	auipc	s4,0x2
800007f0:	efca0a13          	addi	s4,s4,-260 # 800026e8 <names+0x16c>
800007f4:	00810593          	addi	a1,sp,8
800007f8:	00600513          	li	a0,6
800007fc:	11d000ef          	jal	ra,80001118 <ioe_read>
80000800:	00812503          	lw	a0,8(sp)
80000804:	00c12583          	lw	a1,12(sp)
80000808:	00090613          	mv	a2,s2
8000080c:	00098693          	mv	a3,s3
80000810:	7a8010ef          	jal	ra,80001fb8 <__udivdi3>
80000814:	fe85e0e3          	bltu	a1,s0,800007f4 <rtc_test+0x58>
80000818:	00b41463          	bne	s0,a1,80000820 <rtc_test+0x84>
8000081c:	fc956ce3          	bltu	a0,s1,800007f4 <rtc_test+0x58>
80000820:	00810593          	addi	a1,sp,8
80000824:	00500513          	li	a0,5
80000828:	0f1000ef          	jal	ra,80001118 <ioe_read>
8000082c:	00812583          	lw	a1,8(sp)
80000830:	01c12803          	lw	a6,28(sp)
80000834:	01812783          	lw	a5,24(sp)
80000838:	01412703          	lw	a4,20(sp)
8000083c:	01012683          	lw	a3,16(sp)
80000840:	00c12603          	lw	a2,12(sp)
80000844:	000b0513          	mv	a0,s6
80000848:	649000ef          	jal	ra,80001690 <printf>
8000084c:	00100593          	li	a1,1
80000850:	000a0513          	mv	a0,s4
80000854:	01548663          	beq	s1,s5,80000860 <rtc_test+0xc4>
80000858:	00048593          	mv	a1,s1
8000085c:	000b8513          	mv	a0,s7
80000860:	631000ef          	jal	ra,80001690 <printf>
80000864:	00148793          	addi	a5,s1,1
80000868:	0097b4b3          	sltu	s1,a5,s1
8000086c:	00848433          	add	s0,s1,s0
80000870:	00078493          	mv	s1,a5
80000874:	f81ff06f          	j	800007f4 <rtc_test+0x58>

80000878 <simple_pgalloc>:
80000878:	00095617          	auipc	a2,0x95
8000087c:	97460613          	addi	a2,a2,-1676 # 800951ec <st>
80000880:	00062683          	lw	a3,0(a2)
80000884:	00069663          	bnez	a3,80000890 <simple_pgalloc+0x18>
80000888:	00010697          	auipc	a3,0x10
8000088c:	5306a683          	lw	a3,1328(a3) # 80010db8 <heap>
80000890:	02a6f7b3          	remu	a5,a3,a0
80000894:	00078c63          	beqz	a5,800008ac <simple_pgalloc+0x34>
80000898:	00168793          	addi	a5,a3,1
8000089c:	02a7f733          	remu	a4,a5,a0
800008a0:	00078693          	mv	a3,a5
800008a4:	00178793          	addi	a5,a5,1
800008a8:	fe071ae3          	bnez	a4,8000089c <simple_pgalloc+0x24>
800008ac:	00d50533          	add	a0,a0,a3
800008b0:	00a62023          	sw	a0,0(a2)
800008b4:	00068513          	mv	a0,a3
800008b8:	00008067          	ret

800008bc <simple_pgfree>:
800008bc:	00008067          	ret

800008c0 <vm_handler>:
800008c0:	00052783          	lw	a5,0(a0)
800008c4:	fe010113          	addi	sp,sp,-32
800008c8:	00812c23          	sw	s0,24(sp)
800008cc:	00112e23          	sw	ra,28(sp)
800008d0:	00300713          	li	a4,3
800008d4:	00452603          	lw	a2,4(a0)
800008d8:	00058413          	mv	s0,a1
800008dc:	0ce78263          	beq	a5,a4,800009a0 <vm_handler+0xe0>
800008e0:	08f76263          	bltu	a4,a5,80000964 <vm_handler+0xa4>
800008e4:	00100713          	li	a4,1
800008e8:	08e78c63          	beq	a5,a4,80000980 <vm_handler+0xc0>
800008ec:	00200713          	li	a4,2
800008f0:	12e79463          	bne	a5,a4,80000a18 <vm_handler+0x158>
800008f4:	00100513          	li	a0,1
800008f8:	399000ef          	jal	ra,80001490 <iset>
800008fc:	00012623          	sw	zero,12(sp)
80000900:	00c12783          	lw	a5,12(sp)
80000904:	000f4737          	lui	a4,0xf4
80000908:	23f70713          	addi	a4,a4,575 # f423f <_entry_offset+0xf423f>
8000090c:	00f74c63          	blt	a4,a5,80000924 <vm_handler+0x64>
80000910:	00c12783          	lw	a5,12(sp)
80000914:	00178793          	addi	a5,a5,1
80000918:	00f12623          	sw	a5,12(sp)
8000091c:	00c12783          	lw	a5,12(sp)
80000920:	fef758e3          	bge	a4,a5,80000910 <vm_handler+0x50>
80000924:	00042583          	lw	a1,0(s0)
80000928:	00002517          	auipc	a0,0x2
8000092c:	e2850513          	addi	a0,a0,-472 # 80002750 <names+0x1d4>
80000930:	561000ef          	jal	ra,80001690 <printf>
80000934:	00010797          	auipc	a5,0x10
80000938:	4807a783          	lw	a5,1152(a5) # 80010db4 <first_trap>
8000093c:	00078a63          	beqz	a5,80000950 <vm_handler+0x90>
80000940:	00010797          	auipc	a5,0x10
80000944:	4607aa23          	sw	zero,1140(a5) # 80010db4 <first_trap>
80000948:	00095417          	auipc	s0,0x95
8000094c:	8a842403          	lw	s0,-1880(s0) # 800951f0 <uctx>
80000950:	01c12083          	lw	ra,28(sp)
80000954:	00040513          	mv	a0,s0
80000958:	01812403          	lw	s0,24(sp)
8000095c:	02010113          	addi	sp,sp,32
80000960:	00008067          	ret
80000964:	ffb78793          	addi	a5,a5,-5
80000968:	00100713          	li	a4,1
8000096c:	0af76663          	bltu	a4,a5,80000a18 <vm_handler+0x158>
80000970:	00c52583          	lw	a1,12(a0)
80000974:	00002517          	auipc	a0,0x2
80000978:	db050513          	addi	a0,a0,-592 # 80002724 <names+0x1a8>
8000097c:	515000ef          	jal	ra,80001690 <printf>
80000980:	00010797          	auipc	a5,0x10
80000984:	4347a783          	lw	a5,1076(a5) # 80010db4 <first_trap>
80000988:	fc0784e3          	beqz	a5,80000950 <vm_handler+0x90>
8000098c:	00010797          	auipc	a5,0x10
80000990:	4207a423          	sw	zero,1064(a5) # 80010db4 <first_trap>
80000994:	00095417          	auipc	s0,0x95
80000998:	85c42403          	lw	s0,-1956(s0) # 800951f0 <uctx>
8000099c:	fb5ff06f          	j	80000950 <vm_handler+0x90>
800009a0:	00167793          	andi	a5,a2,1
800009a4:	00852583          	lw	a1,8(a0)
800009a8:	00002697          	auipc	a3,0x2
800009ac:	d6068693          	addi	a3,a3,-672 # 80002708 <names+0x18c>
800009b0:	04078663          	beqz	a5,800009fc <vm_handler+0x13c>
800009b4:	00267613          	andi	a2,a2,2
800009b8:	00002717          	auipc	a4,0x2
800009bc:	d5c70713          	addi	a4,a4,-676 # 80002714 <names+0x198>
800009c0:	00060e63          	beqz	a2,800009dc <vm_handler+0x11c>
800009c4:	00002617          	auipc	a2,0x2
800009c8:	9e860613          	addi	a2,a2,-1560 # 800023ac <dy.0+0x50>
800009cc:	00002517          	auipc	a0,0x2
800009d0:	d7450513          	addi	a0,a0,-652 # 80002740 <names+0x1c4>
800009d4:	4bd000ef          	jal	ra,80001690 <printf>
800009d8:	fa9ff06f          	j	80000980 <vm_handler+0xc0>
800009dc:	00002717          	auipc	a4,0x2
800009e0:	9d070713          	addi	a4,a4,-1584 # 800023ac <dy.0+0x50>
800009e4:	00002617          	auipc	a2,0x2
800009e8:	9c860613          	addi	a2,a2,-1592 # 800023ac <dy.0+0x50>
800009ec:	00002517          	auipc	a0,0x2
800009f0:	d5450513          	addi	a0,a0,-684 # 80002740 <names+0x1c4>
800009f4:	49d000ef          	jal	ra,80001690 <printf>
800009f8:	f89ff06f          	j	80000980 <vm_handler+0xc0>
800009fc:	00267613          	andi	a2,a2,2
80000a00:	00002697          	auipc	a3,0x2
80000a04:	9ac68693          	addi	a3,a3,-1620 # 800023ac <dy.0+0x50>
80000a08:	00002717          	auipc	a4,0x2
80000a0c:	d0c70713          	addi	a4,a4,-756 # 80002714 <names+0x198>
80000a10:	fa061ae3          	bnez	a2,800009c4 <vm_handler+0x104>
80000a14:	fc9ff06f          	j	800009dc <vm_handler+0x11c>
80000a18:	02800613          	li	a2,40
80000a1c:	00002597          	auipc	a1,0x2
80000a20:	d3858593          	addi	a1,a1,-712 # 80002754 <names+0x1d8>
80000a24:	00002517          	auipc	a0,0x2
80000a28:	8fc50513          	addi	a0,a0,-1796 # 80002320 <_etext+0x158>
80000a2c:	465000ef          	jal	ra,80001690 <printf>
80000a30:	00100513          	li	a0,1
80000a34:	5c8000ef          	jal	ra,80000ffc <halt>

80000a38 <vm_test>:
80000a38:	fe010113          	addi	sp,sp,-32
80000a3c:	00300613          	li	a2,3
80000a40:	00002597          	auipc	a1,0x2
80000a44:	d5c58593          	addi	a1,a1,-676 # 8000279c <names+0x220>
80000a48:	00002517          	auipc	a0,0x2
80000a4c:	d5850513          	addi	a0,a0,-680 # 800027a0 <names+0x224>
80000a50:	00112e23          	sw	ra,28(sp)
80000a54:	00812c23          	sw	s0,24(sp)
80000a58:	00912a23          	sw	s1,20(sp)
80000a5c:	01212823          	sw	s2,16(sp)
80000a60:	6e8010ef          	jal	ra,80002148 <strncmp>
80000a64:	00050e63          	beqz	a0,80000a80 <vm_test+0x48>
80000a68:	00002597          	auipc	a1,0x2
80000a6c:	d4058593          	addi	a1,a1,-704 # 800027a8 <names+0x22c>
80000a70:	00002517          	auipc	a0,0x2
80000a74:	d3050513          	addi	a0,a0,-720 # 800027a0 <names+0x224>
80000a78:	688010ef          	jal	ra,80002100 <strcmp>
80000a7c:	10051063          	bnez	a0,80000b7c <vm_test+0x144>
80000a80:	00013917          	auipc	s2,0x13
80000a84:	54490913          	addi	s2,s2,1348 # 80013fc4 <prot>
80000a88:	00090513          	mv	a0,s2
80000a8c:	399000ef          	jal	ra,80001624 <protect>
80000a90:	00892603          	lw	a2,8(s2)
80000a94:	00492583          	lw	a1,4(s2)
80000a98:	00002517          	auipc	a0,0x2
80000a9c:	d3850513          	addi	a0,a0,-712 # 800027d0 <names+0x254>
80000aa0:	3f1000ef          	jal	ra,80001690 <printf>
80000aa4:	00492783          	lw	a5,4(s2)
80000aa8:	00892483          	lw	s1,8(s2)
80000aac:	00094697          	auipc	a3,0x94
80000ab0:	74068693          	addi	a3,a3,1856 # 800951ec <st>
80000ab4:	0006a403          	lw	s0,0(a3)
80000ab8:	40f484b3          	sub	s1,s1,a5
80000abc:	0014d493          	srli	s1,s1,0x1
80000ac0:	00092703          	lw	a4,0(s2)
80000ac4:	00f484b3          	add	s1,s1,a5
80000ac8:	00041c63          	bnez	s0,80000ae0 <vm_test+0xa8>
80000acc:	00010417          	auipc	s0,0x10
80000ad0:	2ec42403          	lw	s0,748(s0) # 80010db8 <heap>
80000ad4:	02e477b3          	remu	a5,s0,a4
80000ad8:	00078863          	beqz	a5,80000ae8 <vm_test+0xb0>
80000adc:	00140413          	addi	s0,s0,1
80000ae0:	02e477b3          	remu	a5,s0,a4
80000ae4:	fe079ce3          	bnez	a5,80000adc <vm_test+0xa4>
80000ae8:	00870733          	add	a4,a4,s0
80000aec:	00f00613          	li	a2,15
80000af0:	00010597          	auipc	a1,0x10
80000af4:	2b458593          	addi	a1,a1,692 # 80010da4 <code>
80000af8:	00040513          	mv	a0,s0
80000afc:	00e6a023          	sw	a4,0(a3)
80000b00:	6a4010ef          	jal	ra,800021a4 <memcpy>
80000b04:	00300693          	li	a3,3
80000b08:	00040613          	mv	a2,s0
80000b0c:	00048593          	mv	a1,s1
80000b10:	00013517          	auipc	a0,0x13
80000b14:	4b450513          	addi	a0,a0,1204 # 80013fc4 <prot>
80000b18:	365000ef          	jal	ra,8000167c <map>
80000b1c:	00040613          	mv	a2,s0
80000b20:	00048593          	mv	a1,s1
80000b24:	00002517          	auipc	a0,0x2
80000b28:	cd050513          	addi	a0,a0,-816 # 800027f4 <names+0x278>
80000b2c:	365000ef          	jal	ra,80001690 <printf>
80000b30:	00048693          	mv	a3,s1
80000b34:	00013597          	auipc	a1,0x13
80000b38:	4a058593          	addi	a1,a1,1184 # 80013fd4 <stack.0>
80000b3c:	00014617          	auipc	a2,0x14
80000b40:	49860613          	addi	a2,a2,1176 # 80014fd4 <buf.0>
80000b44:	00013517          	auipc	a0,0x13
80000b48:	48050513          	addi	a0,a0,1152 # 80013fc4 <prot>
80000b4c:	335000ef          	jal	ra,80001680 <ucontext>
80000b50:	00050793          	mv	a5,a0
80000b54:	00100513          	li	a0,1
80000b58:	00094717          	auipc	a4,0x94
80000b5c:	68f72c23          	sw	a5,1688(a4) # 800951f0 <uctx>
80000b60:	131000ef          	jal	ra,80001490 <iset>
80000b64:	01812403          	lw	s0,24(sp)
80000b68:	01c12083          	lw	ra,28(sp)
80000b6c:	01412483          	lw	s1,20(sp)
80000b70:	01012903          	lw	s2,16(sp)
80000b74:	02010113          	addi	sp,sp,32
80000b78:	10d0006f          	j	80001484 <yield>
80000b7c:	01812403          	lw	s0,24(sp)
80000b80:	01c12083          	lw	ra,28(sp)
80000b84:	01412483          	lw	s1,20(sp)
80000b88:	01012903          	lw	s2,16(sp)
80000b8c:	00002517          	auipc	a0,0x2
80000b90:	c2450513          	addi	a0,a0,-988 # 800027b0 <names+0x234>
80000b94:	02010113          	addi	sp,sp,32
80000b98:	2f90006f          	j	80001690 <printf>

80000b9c <devscan>:
80000b9c:	00010797          	auipc	a5,0x10
80000ba0:	21c78793          	addi	a5,a5,540 # 80010db8 <heap>
80000ba4:	0047a603          	lw	a2,4(a5)
80000ba8:	0007a583          	lw	a1,0(a5)
80000bac:	fc010113          	addi	sp,sp,-64
80000bb0:	00002517          	auipc	a0,0x2
80000bb4:	c7050513          	addi	a0,a0,-912 # 80002820 <names+0x2a4>
80000bb8:	02112e23          	sw	ra,60(sp)
80000bbc:	02912a23          	sw	s1,52(sp)
80000bc0:	02812c23          	sw	s0,56(sp)
80000bc4:	03212823          	sw	s2,48(sp)
80000bc8:	03312623          	sw	s3,44(sp)
80000bcc:	03412423          	sw	s4,40(sp)
80000bd0:	03512223          	sw	s5,36(sp)
80000bd4:	2bd000ef          	jal	ra,80001690 <printf>
80000bd8:	00002517          	auipc	a0,0x2
80000bdc:	c6050513          	addi	a0,a0,-928 # 80002838 <names+0x2bc>
80000be0:	2b1000ef          	jal	ra,80001690 <printf>
80000be4:	01010593          	addi	a1,sp,16
80000be8:	00600513          	li	a0,6
80000bec:	52c000ef          	jal	ra,80001118 <ioe_read>
80000bf0:	01012503          	lw	a0,16(sp)
80000bf4:	01412583          	lw	a1,20(sp)
80000bf8:	3e800613          	li	a2,1000
80000bfc:	00000693          	li	a3,0
80000c00:	3b8010ef          	jal	ra,80001fb8 <__udivdi3>
80000c04:	00012623          	sw	zero,12(sp)
80000c08:	00c12783          	lw	a5,12(sp)
80000c0c:	00989737          	lui	a4,0x989
80000c10:	67f70713          	addi	a4,a4,1663 # 98967f <_entry_offset+0x98967f>
80000c14:	00050493          	mv	s1,a0
80000c18:	00f74c63          	blt	a4,a5,80000c30 <devscan+0x94>
80000c1c:	00c12783          	lw	a5,12(sp)
80000c20:	00178793          	addi	a5,a5,1
80000c24:	00f12623          	sw	a5,12(sp)
80000c28:	00c12783          	lw	a5,12(sp)
80000c2c:	fef758e3          	bge	a4,a5,80000c1c <devscan+0x80>
80000c30:	01010593          	addi	a1,sp,16
80000c34:	00600513          	li	a0,6
80000c38:	4e0000ef          	jal	ra,80001118 <ioe_read>
80000c3c:	01012503          	lw	a0,16(sp)
80000c40:	01412583          	lw	a1,20(sp)
80000c44:	3e800613          	li	a2,1000
80000c48:	00000693          	li	a3,0
80000c4c:	36c010ef          	jal	ra,80001fb8 <__udivdi3>
80000c50:	409505b3          	sub	a1,a0,s1
80000c54:	00002517          	auipc	a0,0x2
80000c58:	c0050513          	addi	a0,a0,-1024 # 80002854 <names+0x2d8>
80000c5c:	235000ef          	jal	ra,80001690 <printf>
80000c60:	01010593          	addi	a1,sp,16
80000c64:	00900513          	li	a0,9
80000c68:	4b0000ef          	jal	ra,80001118 <ioe_read>
80000c6c:	01412983          	lw	s3,20(sp)
80000c70:	01812903          	lw	s2,24(sp)
80000c74:	00002517          	auipc	a0,0x2
80000c78:	c0050513          	addi	a0,a0,-1024 # 80002874 <names+0x2f8>
80000c7c:	00098593          	mv	a1,s3
80000c80:	00090613          	mv	a2,s2
80000c84:	00014417          	auipc	s0,0x14
80000c88:	62040413          	addi	s0,s0,1568 # 800152a4 <vmem+0xd0>
80000c8c:	205000ef          	jal	ra,80001690 <printf>
80000c90:	00094497          	auipc	s1,0x94
80000c94:	54448493          	addi	s1,s1,1348 # 800951d4 <kas>
80000c98:	434010ef          	jal	ra,800020cc <rand>
80000c9c:	00a40023          	sb	a0,0(s0)
80000ca0:	00140413          	addi	s0,s0,1
80000ca4:	fe941ae3          	bne	s0,s1,80000c98 <devscan+0xfc>
80000ca8:	41f9d713          	srai	a4,s3,0x1f
80000cac:	00377713          	andi	a4,a4,3
80000cb0:	01370733          	add	a4,a4,s3
80000cb4:	00014797          	auipc	a5,0x14
80000cb8:	52078793          	addi	a5,a5,1312 # 800151d4 <vmem>
80000cbc:	40275713          	srai	a4,a4,0x2
80000cc0:	00e79323          	sh	a4,6(a5)
80000cc4:	00014717          	auipc	a4,0x14
80000cc8:	50071c23          	sh	zero,1304(a4) # 800151dc <vmem+0x8>
80000ccc:	01f9d693          	srli	a3,s3,0x1f
80000cd0:	02500713          	li	a4,37
80000cd4:	00e79923          	sh	a4,18(a5)
80000cd8:	013686b3          	add	a3,a3,s3
80000cdc:	00a00713          	li	a4,10
80000ce0:	ffff0837          	lui	a6,0xffff0
80000ce4:	fff00613          	li	a2,-1
80000ce8:	4016d693          	srai	a3,a3,0x1
80000cec:	00180813          	addi	a6,a6,1 # ffff0001 <_end+0x7ff52001>
80000cf0:	00e79a23          	sh	a4,20(a5)
80000cf4:	f9c90913          	addi	s2,s2,-100
80000cf8:	0d000713          	li	a4,208
80000cfc:	00e79b23          	sh	a4,22(a5)
80000d00:	0107a023          	sw	a6,0(a5)
80000d04:	00d79523          	sh	a3,10(a5)
80000d08:	00c79223          	sh	a2,4(a5)
80000d0c:	00c79723          	sh	a2,14(a5)
80000d10:	00c79823          	sh	a2,16(a5)
80000d14:	01279623          	sh	s2,12(a5)
80000d18:	01010593          	addi	a1,sp,16
80000d1c:	00c00513          	li	a0,12
80000d20:	00f12a23          	sw	a5,20(sp)
80000d24:	000807b7          	lui	a5,0x80
80000d28:	00f12c23          	sw	a5,24(sp)
80000d2c:	00014717          	auipc	a4,0x14
80000d30:	4c071023          	sh	zero,1216(a4) # 800151ec <vmem+0x18>
80000d34:	00012823          	sw	zero,16(sp)
80000d38:	3fc000ef          	jal	ra,80001134 <ioe_write>
80000d3c:	00d00513          	li	a0,13
80000d40:	01010593          	addi	a1,sp,16
80000d44:	00012823          	sw	zero,16(sp)
80000d48:	3ec000ef          	jal	ra,80001134 <ioe_write>
80000d4c:	01010593          	addi	a1,sp,16
80000d50:	01200513          	li	a0,18
80000d54:	3c4000ef          	jal	ra,80001118 <ioe_read>
80000d58:	01412403          	lw	s0,20(sp)
80000d5c:	01812583          	lw	a1,24(sp)
80000d60:	00002517          	auipc	a0,0x2
80000d64:	b2c50513          	addi	a0,a0,-1236 # 8000288c <names+0x310>
80000d68:	00040613          	mv	a2,s0
80000d6c:	125000ef          	jal	ra,80001690 <printf>
80000d70:	20000793          	li	a5,512
80000d74:	0287c7b3          	div	a5,a5,s0
80000d78:	00014a97          	auipc	s5,0x14
80000d7c:	25ca8a93          	addi	s5,s5,604 # 80014fd4 <buf.0>
80000d80:	01010593          	addi	a1,sp,16
80000d84:	01400513          	li	a0,20
80000d88:	00010823          	sb	zero,16(sp)
80000d8c:	01512a23          	sw	s5,20(sp)
80000d90:	00012c23          	sw	zero,24(sp)
80000d94:	00002917          	auipc	s2,0x2
80000d98:	b3090913          	addi	s2,s2,-1232 # 800028c4 <names+0x348>
80000d9c:	00200493          	li	s1,2
80000da0:	00014417          	auipc	s0,0x14
80000da4:	23640413          	addi	s0,s0,566 # 80014fd6 <buf.0+0x2>
80000da8:	00014997          	auipc	s3,0x14
80000dac:	42c98993          	addi	s3,s3,1068 # 800151d4 <vmem>
80000db0:	00002a17          	auipc	s4,0x2
80000db4:	954a0a13          	addi	s4,s4,-1708 # 80002704 <names+0x188>
80000db8:	415484b3          	sub	s1,s1,s5
80000dbc:	00f12e23          	sw	a5,28(sp)
80000dc0:	374000ef          	jal	ra,80001134 <ioe_write>
80000dc4:	001ac603          	lbu	a2,1(s5)
80000dc8:	000ac583          	lbu	a1,0(s5)
80000dcc:	00090513          	mv	a0,s2
80000dd0:	0c1000ef          	jal	ra,80001690 <printf>
80000dd4:	00090513          	mv	a0,s2
80000dd8:	03340463          	beq	s0,s3,80000e00 <devscan+0x264>
80000ddc:	00144603          	lbu	a2,1(s0)
80000de0:	00044583          	lbu	a1,0(s0)
80000de4:	0ad000ef          	jal	ra,80001690 <printf>
80000de8:	008487b3          	add	a5,s1,s0
80000dec:	01f7f793          	andi	a5,a5,31
80000df0:	02078063          	beqz	a5,80000e10 <devscan+0x274>
80000df4:	00240413          	addi	s0,s0,2
80000df8:	00090513          	mv	a0,s2
80000dfc:	ff3410e3          	bne	s0,s3,80000ddc <devscan+0x240>
80000e00:	00002517          	auipc	a0,0x2
80000e04:	ad050513          	addi	a0,a0,-1328 # 800028d0 <names+0x354>
80000e08:	089000ef          	jal	ra,80001690 <printf>
80000e0c:	0000006f          	j	80000e0c <devscan+0x270>
80000e10:	000a0513          	mv	a0,s4
80000e14:	07d000ef          	jal	ra,80001690 <printf>
80000e18:	00240413          	addi	s0,s0,2
80000e1c:	fddff06f          	j	80000df8 <devscan+0x25c>

80000e20 <main>:
80000e20:	fe010113          	addi	sp,sp,-32
80000e24:	00112e23          	sw	ra,28(sp)
80000e28:	00812c23          	sw	s0,24(sp)
80000e2c:	00912a23          	sw	s1,20(sp)
80000e30:	01212823          	sw	s2,16(sp)
80000e34:	01312623          	sw	s3,12(sp)
80000e38:	00054783          	lbu	a5,0(a0)
80000e3c:	01500713          	li	a4,21
80000e40:	f9f78793          	addi	a5,a5,-97 # 7ff9f <_entry_offset+0x7ff9f>
80000e44:	0ff7f793          	zext.b	a5,a5
80000e48:	02f76063          	bltu	a4,a5,80000e68 <main+0x48>
80000e4c:	00002717          	auipc	a4,0x2
80000e50:	ab870713          	addi	a4,a4,-1352 # 80002904 <names+0x388>
80000e54:	00279793          	slli	a5,a5,0x2
80000e58:	00e787b3          	add	a5,a5,a4
80000e5c:	0007a783          	lw	a5,0(a5)
80000e60:	00e787b3          	add	a5,a5,a4
80000e64:	00078067          	jr	a5
80000e68:	00002517          	auipc	a0,0x2
80000e6c:	a7450513          	addi	a0,a0,-1420 # 800028dc <names+0x360>
80000e70:	021000ef          	jal	ra,80001690 <printf>
80000e74:	00002497          	auipc	s1,0x2
80000e78:	ba848493          	addi	s1,s1,-1112 # 80002a1c <tests+0x4>
80000e7c:	00000413          	li	s0,0
80000e80:	10000913          	li	s2,256
80000e84:	00002997          	auipc	s3,0x2
80000e88:	a7498993          	addi	s3,s3,-1420 # 800028f8 <names+0x37c>
80000e8c:	00140413          	addi	s0,s0,1
80000e90:	03240c63          	beq	s0,s2,80000ec8 <main+0xa8>
80000e94:	0004a603          	lw	a2,0(s1)
80000e98:	00060863          	beqz	a2,80000ea8 <main+0x88>
80000e9c:	00040593          	mv	a1,s0
80000ea0:	00098513          	mv	a0,s3
80000ea4:	7ec000ef          	jal	ra,80001690 <printf>
80000ea8:	00448493          	addi	s1,s1,4
80000eac:	fe1ff06f          	j	80000e8c <main+0x6c>
80000eb0:	fffff797          	auipc	a5,0xfffff
80000eb4:	16078793          	addi	a5,a5,352 # 80000010 <audio_test>
80000eb8:	00094717          	auipc	a4,0x94
80000ebc:	32f72e23          	sw	a5,828(a4) # 800951f4 <entry>
80000ec0:	1fc000ef          	jal	ra,800010bc <ioe_init>
80000ec4:	94cff0ef          	jal	ra,80000010 <audio_test>
80000ec8:	01c12083          	lw	ra,28(sp)
80000ecc:	01812403          	lw	s0,24(sp)
80000ed0:	01412483          	lw	s1,20(sp)
80000ed4:	01012903          	lw	s2,16(sp)
80000ed8:	00c12983          	lw	s3,12(sp)
80000edc:	00000513          	li	a0,0
80000ee0:	02010113          	addi	sp,sp,32
80000ee4:	00008067          	ret
80000ee8:	00000797          	auipc	a5,0x0
80000eec:	cb478793          	addi	a5,a5,-844 # 80000b9c <devscan>
80000ef0:	00094717          	auipc	a4,0x94
80000ef4:	30f72223          	sw	a5,772(a4) # 800951f4 <entry>
80000ef8:	1c4000ef          	jal	ra,800010bc <ioe_init>
80000efc:	ca1ff0ef          	jal	ra,80000b9c <devscan>
80000f00:	fc9ff06f          	j	80000ec8 <main+0xa8>
80000f04:	fffff797          	auipc	a5,0xfffff
80000f08:	23878793          	addi	a5,a5,568 # 8000013c <hello>
80000f0c:	00094717          	auipc	a4,0x94
80000f10:	2ef72423          	sw	a5,744(a4) # 800951f4 <entry>
80000f14:	a28ff0ef          	jal	ra,8000013c <hello>
80000f18:	fb1ff06f          	j	80000ec8 <main+0xa8>
80000f1c:	fffff797          	auipc	a5,0xfffff
80000f20:	34878793          	addi	a5,a5,840 # 80000264 <hello_intr>
80000f24:	00094717          	auipc	a4,0x94
80000f28:	2cf72823          	sw	a5,720(a4) # 800951f4 <entry>
80000f2c:	190000ef          	jal	ra,800010bc <ioe_init>
80000f30:	fffff517          	auipc	a0,0xfffff
80000f34:	25850513          	addi	a0,a0,600 # 80000188 <simple_trap>
80000f38:	52c000ef          	jal	ra,80001464 <cte_init>
80000f3c:	b28ff0ef          	jal	ra,80000264 <hello_intr>
80000f40:	f89ff06f          	j	80000ec8 <main+0xa8>
80000f44:	fffff797          	auipc	a5,0xfffff
80000f48:	75078793          	addi	a5,a5,1872 # 80000694 <keyboard_test>
80000f4c:	00094717          	auipc	a4,0x94
80000f50:	2af72423          	sw	a5,680(a4) # 800951f4 <entry>
80000f54:	168000ef          	jal	ra,800010bc <ioe_init>
80000f58:	f3cff0ef          	jal	ra,80000694 <keyboard_test>
80000f5c:	f6dff06f          	j	80000ec8 <main+0xa8>
80000f60:	fffff797          	auipc	a5,0xfffff
80000f64:	34078793          	addi	a5,a5,832 # 800002a0 <mp_print>
80000f68:	00078513          	mv	a0,a5
80000f6c:	00094717          	auipc	a4,0x94
80000f70:	28f72423          	sw	a5,648(a4) # 800951f4 <entry>
80000f74:	3f4000ef          	jal	ra,80001368 <mpe_init>
80000f78:	b28ff0ef          	jal	ra,800002a0 <mp_print>
80000f7c:	f4dff06f          	j	80000ec8 <main+0xa8>
80000f80:	00000797          	auipc	a5,0x0
80000f84:	ab878793          	addi	a5,a5,-1352 # 80000a38 <vm_test>
80000f88:	00000517          	auipc	a0,0x0
80000f8c:	93850513          	addi	a0,a0,-1736 # 800008c0 <vm_handler>
80000f90:	00094717          	auipc	a4,0x94
80000f94:	26f72223          	sw	a5,612(a4) # 800951f4 <entry>
80000f98:	4cc000ef          	jal	ra,80001464 <cte_init>
80000f9c:	00000597          	auipc	a1,0x0
80000fa0:	92058593          	addi	a1,a1,-1760 # 800008bc <simple_pgfree>
80000fa4:	00000517          	auipc	a0,0x0
80000fa8:	8d450513          	addi	a0,a0,-1836 # 80000878 <simple_pgalloc>
80000fac:	628000ef          	jal	ra,800015d4 <vme_init>
80000fb0:	a89ff0ef          	jal	ra,80000a38 <vm_test>
80000fb4:	f15ff06f          	j	80000ec8 <main+0xa8>
80000fb8:	fffff797          	auipc	a5,0xfffff
80000fbc:	7e478793          	addi	a5,a5,2020 # 8000079c <rtc_test>
80000fc0:	00094717          	auipc	a4,0x94
80000fc4:	22f72a23          	sw	a5,564(a4) # 800951f4 <entry>
80000fc8:	0f4000ef          	jal	ra,800010bc <ioe_init>
80000fcc:	fd0ff0ef          	jal	ra,8000079c <rtc_test>
80000fd0:	ef9ff06f          	j	80000ec8 <main+0xa8>
80000fd4:	fffff797          	auipc	a5,0xfffff
80000fd8:	61c78793          	addi	a5,a5,1564 # 800005f0 <video_test>
80000fdc:	00094717          	auipc	a4,0x94
80000fe0:	20f72c23          	sw	a5,536(a4) # 800951f4 <entry>
80000fe4:	0d8000ef          	jal	ra,800010bc <ioe_init>
80000fe8:	e08ff0ef          	jal	ra,800005f0 <video_test>
80000fec:	eddff06f          	j	80000ec8 <main+0xa8>

80000ff0 <putch>:
80000ff0:	a00007b7          	lui	a5,0xa0000
80000ff4:	3ea78c23          	sb	a0,1016(a5) # a00003f8 <_end+0x1ff623f8>
80000ff8:	00008067          	ret

80000ffc <halt>:
80000ffc:	00050513          	mv	a0,a0
80001000:	00100073          	ebreak
80001004:	0000006f          	j	80001004 <halt+0x8>

80001008 <_trm_init>:
80001008:	ff010113          	addi	sp,sp,-16
8000100c:	00002517          	auipc	a0,0x2
80001010:	f8450513          	addi	a0,a0,-124 # 80002f90 <mainargs>
80001014:	00112623          	sw	ra,12(sp)
80001018:	e09ff0ef          	jal	ra,80000e20 <main>
8000101c:	00050513          	mv	a0,a0
80001020:	00100073          	ebreak
80001024:	0000006f          	j	80001024 <_trm_init+0x1c>

80001028 <__am_timer_config>:
80001028:	00100793          	li	a5,1
8000102c:	00f50023          	sb	a5,0(a0)
80001030:	00f500a3          	sb	a5,1(a0)
80001034:	00008067          	ret

80001038 <__am_input_config>:
80001038:	00100793          	li	a5,1
8000103c:	00f50023          	sb	a5,0(a0)
80001040:	00008067          	ret

80001044 <__am_uart_config>:
80001044:	00050023          	sb	zero,0(a0)
80001048:	00008067          	ret

8000104c <__am_net_config>:
8000104c:	00050023          	sb	zero,0(a0)
80001050:	00008067          	ret

80001054 <fail>:
80001054:	ff010113          	addi	sp,sp,-16
80001058:	00812423          	sw	s0,8(sp)
8000105c:	00112623          	sw	ra,12(sp)
80001060:	00001417          	auipc	s0,0x1
80001064:	1dc40413          	addi	s0,s0,476 # 8000223c <_etext+0x74>
80001068:	04100513          	li	a0,65
8000106c:	00140413          	addi	s0,s0,1
80001070:	f81ff0ef          	jal	ra,80000ff0 <putch>
80001074:	00044503          	lbu	a0,0(s0)
80001078:	fe051ae3          	bnez	a0,8000106c <fail+0x18>
8000107c:	00002417          	auipc	s0,0x2
80001080:	d9c40413          	addi	s0,s0,-612 # 80002e18 <tests+0x400>
80001084:	06100513          	li	a0,97
80001088:	00140413          	addi	s0,s0,1
8000108c:	f65ff0ef          	jal	ra,80000ff0 <putch>
80001090:	00044503          	lbu	a0,0(s0)
80001094:	fe051ae3          	bnez	a0,80001088 <fail+0x34>
80001098:	00002417          	auipc	s0,0x2
8000109c:	d9c40413          	addi	s0,s0,-612 # 80002e34 <tests+0x41c>
800010a0:	02000513          	li	a0,32
800010a4:	00140413          	addi	s0,s0,1
800010a8:	f49ff0ef          	jal	ra,80000ff0 <putch>
800010ac:	00044503          	lbu	a0,0(s0)
800010b0:	fe051ae3          	bnez	a0,800010a4 <fail+0x50>
800010b4:	00100513          	li	a0,1
800010b8:	f45ff0ef          	jal	ra,80000ffc <halt>

800010bc <ioe_init>:
800010bc:	ff010113          	addi	sp,sp,-16
800010c0:	00112623          	sw	ra,12(sp)
800010c4:	00010797          	auipc	a5,0x10
800010c8:	cfc78793          	addi	a5,a5,-772 # 80010dc0 <lut>
800010cc:	00010697          	auipc	a3,0x10
800010d0:	ef468693          	addi	a3,a3,-268 # 80010fc0 <next>
800010d4:	00000617          	auipc	a2,0x0
800010d8:	f8060613          	addi	a2,a2,-128 # 80001054 <fail>
800010dc:	00c0006f          	j	800010e8 <ioe_init+0x2c>
800010e0:	00478793          	addi	a5,a5,4
800010e4:	00d78c63          	beq	a5,a3,800010fc <ioe_init+0x40>
800010e8:	0007a703          	lw	a4,0(a5)
800010ec:	fe071ae3          	bnez	a4,800010e0 <ioe_init+0x24>
800010f0:	00c7a023          	sw	a2,0(a5)
800010f4:	00478793          	addi	a5,a5,4
800010f8:	fed798e3          	bne	a5,a3,800010e8 <ioe_init+0x2c>
800010fc:	0d0000ef          	jal	ra,800011cc <__am_gpu_init>
80001100:	050000ef          	jal	ra,80001150 <__am_timer_init>
80001104:	238000ef          	jal	ra,8000133c <__am_audio_init>
80001108:	00c12083          	lw	ra,12(sp)
8000110c:	00100513          	li	a0,1
80001110:	01010113          	addi	sp,sp,16
80001114:	00008067          	ret

80001118 <ioe_read>:
80001118:	00251513          	slli	a0,a0,0x2
8000111c:	00010797          	auipc	a5,0x10
80001120:	ca478793          	addi	a5,a5,-860 # 80010dc0 <lut>
80001124:	00a787b3          	add	a5,a5,a0
80001128:	0007a783          	lw	a5,0(a5)
8000112c:	00058513          	mv	a0,a1
80001130:	00078067          	jr	a5

80001134 <ioe_write>:
80001134:	00251513          	slli	a0,a0,0x2
80001138:	00010797          	auipc	a5,0x10
8000113c:	c8878793          	addi	a5,a5,-888 # 80010dc0 <lut>
80001140:	00a787b3          	add	a5,a5,a0
80001144:	0007a783          	lw	a5,0(a5)
80001148:	00058513          	mv	a0,a1
8000114c:	00078067          	jr	a5

80001150 <__am_timer_init>:
80001150:	00008067          	ret

80001154 <__am_timer_uptime>:
80001154:	a00007b7          	lui	a5,0xa0000
80001158:	04c7a703          	lw	a4,76(a5) # a000004c <_end+0x1ff6204c>
8000115c:	0487a783          	lw	a5,72(a5)
80001160:	00e52223          	sw	a4,4(a0)
80001164:	00f52023          	sw	a5,0(a0)
80001168:	00008067          	ret

8000116c <__am_timer_rtc>:
8000116c:	76c00793          	li	a5,1900
80001170:	00052a23          	sw	zero,20(a0)
80001174:	00052823          	sw	zero,16(a0)
80001178:	00052623          	sw	zero,12(a0)
8000117c:	00052423          	sw	zero,8(a0)
80001180:	00052223          	sw	zero,4(a0)
80001184:	00f52023          	sw	a5,0(a0)
80001188:	00008067          	ret

8000118c <__am_input_keybrd>:
8000118c:	a00007b7          	lui	a5,0xa0000
80001190:	0607a783          	lw	a5,96(a5) # a0000060 <_end+0x1ff62060>
80001194:	02078263          	beqz	a5,800011b8 <__am_input_keybrd+0x2c>
80001198:	ffff86b7          	lui	a3,0xffff8
8000119c:	00f7d713          	srli	a4,a5,0xf
800011a0:	fff68693          	addi	a3,a3,-1 # ffff7fff <_end+0x7ff59fff>
800011a4:	00177713          	andi	a4,a4,1
800011a8:	00d7f7b3          	and	a5,a5,a3
800011ac:	00e50023          	sb	a4,0(a0)
800011b0:	00f52223          	sw	a5,4(a0)
800011b4:	00008067          	ret
800011b8:	00000713          	li	a4,0
800011bc:	00000793          	li	a5,0
800011c0:	00e50023          	sb	a4,0(a0)
800011c4:	00f52223          	sw	a5,4(a0)
800011c8:	00008067          	ret

800011cc <__am_gpu_init>:
800011cc:	a00007b7          	lui	a5,0xa0000
800011d0:	1007a783          	lw	a5,256(a5) # a0000100 <_end+0x1ff62100>
800011d4:	0107d713          	srli	a4,a5,0x10
800011d8:	01079793          	slli	a5,a5,0x10
800011dc:	0107d793          	srli	a5,a5,0x10
800011e0:	02f70733          	mul	a4,a4,a5
800011e4:	02070063          	beqz	a4,80001204 <__am_gpu_init+0x38>
800011e8:	284007b7          	lui	a5,0x28400
800011ec:	00f70733          	add	a4,a4,a5
800011f0:	00271713          	slli	a4,a4,0x2
800011f4:	a10007b7          	lui	a5,0xa1000
800011f8:	0007a023          	sw	zero,0(a5) # a1000000 <_end+0x20f62000>
800011fc:	00478793          	addi	a5,a5,4
80001200:	fee79ce3          	bne	a5,a4,800011f8 <__am_gpu_init+0x2c>
80001204:	a00007b7          	lui	a5,0xa0000
80001208:	00100713          	li	a4,1
8000120c:	10e7a223          	sw	a4,260(a5) # a0000104 <_end+0x1ff62104>
80001210:	00008067          	ret

80001214 <__am_gpu_config>:
80001214:	a00007b7          	lui	a5,0xa0000
80001218:	1007a783          	lw	a5,256(a5) # a0000100 <_end+0x1ff62100>
8000121c:	00100613          	li	a2,1
80001220:	00c51023          	sh	a2,0(a0)
80001224:	0107d693          	srli	a3,a5,0x10
80001228:	01079793          	slli	a5,a5,0x10
8000122c:	0107d793          	srli	a5,a5,0x10
80001230:	02f68733          	mul	a4,a3,a5
80001234:	00f52423          	sw	a5,8(a0)
80001238:	00d52223          	sw	a3,4(a0)
8000123c:	00271793          	slli	a5,a4,0x2
80001240:	00f52623          	sw	a5,12(a0)
80001244:	00008067          	ret

80001248 <__am_gpu_fbdraw>:
80001248:	00852f83          	lw	t6,8(a0)
8000124c:	0c0f8463          	beqz	t6,80001314 <__am_gpu_fbdraw+0xcc>
80001250:	00c52283          	lw	t0,12(a0)
80001254:	0c505063          	blez	t0,80001314 <__am_gpu_fbdraw+0xcc>
80001258:	01052383          	lw	t2,16(a0)
8000125c:	0a705c63          	blez	t2,80001314 <__am_gpu_fbdraw+0xcc>
80001260:	a00007b7          	lui	a5,0xa0000
80001264:	1007a303          	lw	t1,256(a5) # a0000100 <_end+0x1ff62100>
80001268:	00452803          	lw	a6,4(a0)
8000126c:	ff010113          	addi	sp,sp,-16
80001270:	01035613          	srli	a2,t1,0x10
80001274:	030608b3          	mul	a7,a2,a6
80001278:	00812623          	sw	s0,12(sp)
8000127c:	00052403          	lw	s0,0(a0)
80001280:	00912423          	sw	s1,8(sp)
80001284:	01031313          	slli	t1,t1,0x10
80001288:	405604b3          	sub	s1,a2,t0
8000128c:	01035313          	srli	t1,t1,0x10
80001290:	00249493          	slli	s1,s1,0x2
80001294:	010383b3          	add	t2,t2,a6
80001298:	00000f13          	li	t5,0
8000129c:	008888b3          	add	a7,a7,s0
800012a0:	00289893          	slli	a7,a7,0x2
800012a4:	008285b3          	add	a1,t0,s0
800012a8:	a1000e37          	lui	t3,0xa1000
800012ac:	41f888b3          	sub	a7,a7,t6
800012b0:	002f1713          	slli	a4,t5,0x2
800012b4:	00ef8733          	add	a4,t6,a4
800012b8:	00040793          	mv	a5,s0
800012bc:	00c7dc63          	bge	a5,a2,800012d4 <__am_gpu_fbdraw+0x8c>
800012c0:	011706b3          	add	a3,a4,a7
800012c4:	00de06b3          	add	a3,t3,a3
800012c8:	00685663          	bge	a6,t1,800012d4 <__am_gpu_fbdraw+0x8c>
800012cc:	00072e83          	lw	t4,0(a4)
800012d0:	01d6a023          	sw	t4,0(a3)
800012d4:	00178793          	addi	a5,a5,1
800012d8:	00470713          	addi	a4,a4,4
800012dc:	fef590e3          	bne	a1,a5,800012bc <__am_gpu_fbdraw+0x74>
800012e0:	00180813          	addi	a6,a6,1
800012e4:	005f0f33          	add	t5,t5,t0
800012e8:	009888b3          	add	a7,a7,s1
800012ec:	fc7812e3          	bne	a6,t2,800012b0 <__am_gpu_fbdraw+0x68>
800012f0:	01454783          	lbu	a5,20(a0)
800012f4:	00078863          	beqz	a5,80001304 <__am_gpu_fbdraw+0xbc>
800012f8:	a00007b7          	lui	a5,0xa0000
800012fc:	00100713          	li	a4,1
80001300:	10e7a223          	sw	a4,260(a5) # a0000104 <_end+0x1ff62104>
80001304:	00c12403          	lw	s0,12(sp)
80001308:	00812483          	lw	s1,8(sp)
8000130c:	01010113          	addi	sp,sp,16
80001310:	00008067          	ret
80001314:	01454783          	lbu	a5,20(a0)
80001318:	00078a63          	beqz	a5,8000132c <__am_gpu_fbdraw+0xe4>
8000131c:	a00007b7          	lui	a5,0xa0000
80001320:	00100713          	li	a4,1
80001324:	10e7a223          	sw	a4,260(a5) # a0000104 <_end+0x1ff62104>
80001328:	00008067          	ret
8000132c:	00008067          	ret

80001330 <__am_gpu_status>:
80001330:	00100793          	li	a5,1
80001334:	00f50023          	sb	a5,0(a0)
80001338:	00008067          	ret

8000133c <__am_audio_init>:
8000133c:	00008067          	ret

80001340 <__am_audio_config>:
80001340:	00050023          	sb	zero,0(a0)
80001344:	00008067          	ret

80001348 <__am_audio_ctrl>:
80001348:	00008067          	ret

8000134c <__am_audio_status>:
8000134c:	00052023          	sw	zero,0(a0)
80001350:	00008067          	ret

80001354 <__am_audio_play>:
80001354:	00008067          	ret

80001358 <__am_disk_config>:
80001358:	00050023          	sb	zero,0(a0)
8000135c:	00008067          	ret

80001360 <__am_disk_status>:
80001360:	00008067          	ret

80001364 <__am_disk_blkio>:
80001364:	00008067          	ret

80001368 <mpe_init>:
80001368:	ff010113          	addi	sp,sp,-16
8000136c:	00812423          	sw	s0,8(sp)
80001370:	00112623          	sw	ra,12(sp)
80001374:	000500e7          	jalr	a0
80001378:	00001417          	auipc	s0,0x1
8000137c:	ec440413          	addi	s0,s0,-316 # 8000223c <_etext+0x74>
80001380:	04100513          	li	a0,65
80001384:	00140413          	addi	s0,s0,1
80001388:	c69ff0ef          	jal	ra,80000ff0 <putch>
8000138c:	00044503          	lbu	a0,0(s0)
80001390:	fe051ae3          	bnez	a0,80001384 <mpe_init+0x1c>
80001394:	00002417          	auipc	s0,0x2
80001398:	af840413          	addi	s0,s0,-1288 # 80002e8c <tests+0x474>
8000139c:	04d00513          	li	a0,77
800013a0:	00140413          	addi	s0,s0,1
800013a4:	c4dff0ef          	jal	ra,80000ff0 <putch>
800013a8:	00044503          	lbu	a0,0(s0)
800013ac:	fe051ae3          	bnez	a0,800013a0 <mpe_init+0x38>
800013b0:	00002417          	auipc	s0,0x2
800013b4:	af040413          	addi	s0,s0,-1296 # 80002ea0 <tests+0x488>
800013b8:	02000513          	li	a0,32
800013bc:	00140413          	addi	s0,s0,1
800013c0:	c31ff0ef          	jal	ra,80000ff0 <putch>
800013c4:	00044503          	lbu	a0,0(s0)
800013c8:	fe051ae3          	bnez	a0,800013bc <mpe_init+0x54>
800013cc:	00100513          	li	a0,1
800013d0:	c2dff0ef          	jal	ra,80000ffc <halt>

800013d4 <cpu_current>:
800013d4:	00000513          	li	a0,0
800013d8:	00008067          	ret

800013dc <__am_irq_handle>:
800013dc:	00094797          	auipc	a5,0x94
800013e0:	e1c7a783          	lw	a5,-484(a5) # 800951f8 <user_handler>
800013e4:	00050593          	mv	a1,a0
800013e8:	04078c63          	beqz	a5,80001440 <__am_irq_handle+0x64>
800013ec:	08052603          	lw	a2,128(a0)
800013f0:	fd010113          	addi	sp,sp,-48
800013f4:	02112623          	sw	ra,44(sp)
800013f8:	00b00693          	li	a3,11
800013fc:	00400713          	li	a4,4
80001400:	02d60663          	beq	a2,a3,8000142c <__am_irq_handle+0x50>
80001404:	00e12023          	sw	a4,0(sp)
80001408:	00012223          	sw	zero,4(sp)
8000140c:	00012423          	sw	zero,8(sp)
80001410:	00012623          	sw	zero,12(sp)
80001414:	00010513          	mv	a0,sp
80001418:	000780e7          	jalr	a5
8000141c:	02050463          	beqz	a0,80001444 <__am_irq_handle+0x68>
80001420:	02c12083          	lw	ra,44(sp)
80001424:	03010113          	addi	sp,sp,48
80001428:	00008067          	ret
8000142c:	08852683          	lw	a3,136(a0)
80001430:	00100713          	li	a4,1
80001434:	00468693          	addi	a3,a3,4
80001438:	08d52423          	sw	a3,136(a0)
8000143c:	fc9ff06f          	j	80001404 <__am_irq_handle+0x28>
80001440:	00008067          	ret
80001444:	01c00613          	li	a2,28
80001448:	00002597          	auipc	a1,0x2
8000144c:	aac58593          	addi	a1,a1,-1364 # 80002ef4 <tests+0x4dc>
80001450:	00001517          	auipc	a0,0x1
80001454:	ed050513          	addi	a0,a0,-304 # 80002320 <_etext+0x158>
80001458:	238000ef          	jal	ra,80001690 <printf>
8000145c:	00100513          	li	a0,1
80001460:	b9dff0ef          	jal	ra,80000ffc <halt>

80001464 <cte_init>:
80001464:	00050793          	mv	a5,a0
80001468:	00000717          	auipc	a4,0x0
8000146c:	03070713          	addi	a4,a4,48 # 80001498 <__am_asm_trap>
80001470:	30571073          	csrw	mtvec,a4
80001474:	00100513          	li	a0,1
80001478:	00094717          	auipc	a4,0x94
8000147c:	d8f72023          	sw	a5,-640(a4) # 800951f8 <user_handler>
80001480:	00008067          	ret

80001484 <yield>:
80001484:	fff00893          	li	a7,-1
80001488:	00000073          	ecall
8000148c:	00008067          	ret

80001490 <iset>:
80001490:	00008067          	ret
80001494:	0000                	.2byte	0x0
	...

80001498 <__am_asm_trap>:
80001498:	f7410113          	addi	sp,sp,-140
8000149c:	00112223          	sw	ra,4(sp)
800014a0:	00312623          	sw	gp,12(sp)
800014a4:	00412823          	sw	tp,16(sp)
800014a8:	00512a23          	sw	t0,20(sp)
800014ac:	00612c23          	sw	t1,24(sp)
800014b0:	00712e23          	sw	t2,28(sp)
800014b4:	02812023          	sw	s0,32(sp)
800014b8:	02912223          	sw	s1,36(sp)
800014bc:	02a12423          	sw	a0,40(sp)
800014c0:	02b12623          	sw	a1,44(sp)
800014c4:	02c12823          	sw	a2,48(sp)
800014c8:	02d12a23          	sw	a3,52(sp)
800014cc:	02e12c23          	sw	a4,56(sp)
800014d0:	02f12e23          	sw	a5,60(sp)
800014d4:	05012023          	sw	a6,64(sp)
800014d8:	05112223          	sw	a7,68(sp)
800014dc:	05212423          	sw	s2,72(sp)
800014e0:	05312623          	sw	s3,76(sp)
800014e4:	05412823          	sw	s4,80(sp)
800014e8:	05512a23          	sw	s5,84(sp)
800014ec:	05612c23          	sw	s6,88(sp)
800014f0:	05712e23          	sw	s7,92(sp)
800014f4:	07812023          	sw	s8,96(sp)
800014f8:	07912223          	sw	s9,100(sp)
800014fc:	07a12423          	sw	s10,104(sp)
80001500:	07b12623          	sw	s11,108(sp)
80001504:	07c12823          	sw	t3,112(sp)
80001508:	07d12a23          	sw	t4,116(sp)
8000150c:	07e12c23          	sw	t5,120(sp)
80001510:	07f12e23          	sw	t6,124(sp)
80001514:	342022f3          	csrr	t0,mcause
80001518:	30002373          	csrr	t1,mstatus
8000151c:	341023f3          	csrr	t2,mepc
80001520:	08512023          	sw	t0,128(sp)
80001524:	08612223          	sw	t1,132(sp)
80001528:	08712423          	sw	t2,136(sp)
8000152c:	00020537          	lui	a0,0x20
80001530:	00a36333          	or	t1,t1,a0
80001534:	30031073          	csrw	mstatus,t1
80001538:	00010513          	mv	a0,sp
8000153c:	ea1ff0ef          	jal	ra,800013dc <__am_irq_handle>
80001540:	00050113          	mv	sp,a0
80001544:	08412303          	lw	t1,132(sp)
80001548:	08812383          	lw	t2,136(sp)
8000154c:	30031073          	csrw	mstatus,t1
80001550:	34139073          	csrw	mepc,t2
80001554:	00412083          	lw	ra,4(sp)
80001558:	00c12183          	lw	gp,12(sp)
8000155c:	01012203          	lw	tp,16(sp)
80001560:	01412283          	lw	t0,20(sp)
80001564:	01812303          	lw	t1,24(sp)
80001568:	01c12383          	lw	t2,28(sp)
8000156c:	02012403          	lw	s0,32(sp)
80001570:	02412483          	lw	s1,36(sp)
80001574:	02812503          	lw	a0,40(sp)
80001578:	02c12583          	lw	a1,44(sp)
8000157c:	03012603          	lw	a2,48(sp)
80001580:	03412683          	lw	a3,52(sp)
80001584:	03812703          	lw	a4,56(sp)
80001588:	03c12783          	lw	a5,60(sp)
8000158c:	04012803          	lw	a6,64(sp)
80001590:	04412883          	lw	a7,68(sp)
80001594:	04812903          	lw	s2,72(sp)
80001598:	04c12983          	lw	s3,76(sp)
8000159c:	05012a03          	lw	s4,80(sp)
800015a0:	05412a83          	lw	s5,84(sp)
800015a4:	05812b03          	lw	s6,88(sp)
800015a8:	05c12b83          	lw	s7,92(sp)
800015ac:	06012c03          	lw	s8,96(sp)
800015b0:	06412c83          	lw	s9,100(sp)
800015b4:	06812d03          	lw	s10,104(sp)
800015b8:	06c12d83          	lw	s11,108(sp)
800015bc:	07012e03          	lw	t3,112(sp)
800015c0:	07412e83          	lw	t4,116(sp)
800015c4:	07812f03          	lw	t5,120(sp)
800015c8:	07c12f83          	lw	t6,124(sp)
800015cc:	08c10113          	addi	sp,sp,140
800015d0:	30200073          	mret

800015d4 <vme_init>:
800015d4:	ff010113          	addi	sp,sp,-16
800015d8:	00112623          	sw	ra,12(sp)
800015dc:	00050793          	mv	a5,a0
800015e0:	00001537          	lui	a0,0x1
800015e4:	00094717          	auipc	a4,0x94
800015e8:	c0f72c23          	sw	a5,-1000(a4) # 800951fc <pgalloc_usr>
800015ec:	000780e7          	jalr	a5
800015f0:	00094717          	auipc	a4,0x94
800015f4:	bea72823          	sw	a0,-1040(a4) # 800951e0 <kas+0xc>
800015f8:	00c55793          	srli	a5,a0,0xc
800015fc:	80000737          	lui	a4,0x80000
80001600:	00e7e7b3          	or	a5,a5,a4
80001604:	18079073          	csrw	satp,a5
80001608:	00c12083          	lw	ra,12(sp)
8000160c:	00100793          	li	a5,1
80001610:	00094717          	auipc	a4,0x94
80001614:	bef72823          	sw	a5,-1040(a4) # 80095200 <vme_enable>
80001618:	00100513          	li	a0,1
8000161c:	01010113          	addi	sp,sp,16
80001620:	00008067          	ret

80001624 <protect>:
80001624:	ff010113          	addi	sp,sp,-16
80001628:	00812423          	sw	s0,8(sp)
8000162c:	00112623          	sw	ra,12(sp)
80001630:	00050413          	mv	s0,a0
80001634:	00094797          	auipc	a5,0x94
80001638:	bc87a783          	lw	a5,-1080(a5) # 800951fc <pgalloc_usr>
8000163c:	00001537          	lui	a0,0x1
80001640:	000780e7          	jalr	a5
80001644:	400007b7          	lui	a5,0x40000
80001648:	00f42223          	sw	a5,4(s0)
8000164c:	800007b7          	lui	a5,0x80000
80001650:	00f42423          	sw	a5,8(s0)
80001654:	000017b7          	lui	a5,0x1
80001658:	00a42623          	sw	a0,12(s0)
8000165c:	00f42023          	sw	a5,0(s0)
80001660:	00812403          	lw	s0,8(sp)
80001664:	00c12083          	lw	ra,12(sp)
80001668:	00094597          	auipc	a1,0x94
8000166c:	b785a583          	lw	a1,-1160(a1) # 800951e0 <kas+0xc>
80001670:	00001637          	lui	a2,0x1
80001674:	01010113          	addi	sp,sp,16
80001678:	32d0006f          	j	800021a4 <memcpy>

8000167c <map>:
8000167c:	00008067          	ret

80001680 <ucontext>:
80001680:	ff010113          	addi	sp,sp,-16
80001684:	00000513          	li	a0,0
80001688:	01010113          	addi	sp,sp,16
8000168c:	00008067          	ret

80001690 <printf>:
80001690:	ba010113          	addi	sp,sp,-1120
80001694:	43212823          	sw	s2,1072(sp)
80001698:	41912a23          	sw	s9,1044(sp)
8000169c:	44f12a23          	sw	a5,1108(sp)
800016a0:	42112e23          	sw	ra,1084(sp)
800016a4:	42812c23          	sw	s0,1080(sp)
800016a8:	42912a23          	sw	s1,1076(sp)
800016ac:	43312623          	sw	s3,1068(sp)
800016b0:	43412423          	sw	s4,1064(sp)
800016b4:	43512223          	sw	s5,1060(sp)
800016b8:	43612023          	sw	s6,1056(sp)
800016bc:	41712e23          	sw	s7,1052(sp)
800016c0:	41812c23          	sw	s8,1048(sp)
800016c4:	41a12823          	sw	s10,1040(sp)
800016c8:	41b12623          	sw	s11,1036(sp)
800016cc:	44b12223          	sw	a1,1092(sp)
800016d0:	44c12423          	sw	a2,1096(sp)
800016d4:	44d12623          	sw	a3,1100(sp)
800016d8:	44e12823          	sw	a4,1104(sp)
800016dc:	45012c23          	sw	a6,1112(sp)
800016e0:	45112e23          	sw	a7,1116(sp)
800016e4:	00050c93          	mv	s9,a0
800016e8:	00054503          	lbu	a0,0(a0) # 1000 <_entry_offset+0x1000>
800016ec:	44410793          	addi	a5,sp,1092
800016f0:	00f12a23          	sw	a5,20(sp)
800016f4:	00000913          	li	s2,0
800016f8:	02050a63          	beqz	a0,8000172c <printf+0x9c>
800016fc:	02500a13          	li	s4,37
80001700:	03000a93          	li	s5,48
80001704:	00900493          	li	s1,9
80001708:	01810993          	addi	s3,sp,24
8000170c:	01910b13          	addi	s6,sp,25
80001710:	05450e63          	beq	a0,s4,8000176c <printf+0xdc>
80001714:	000c8c13          	mv	s8,s9
80001718:	8d9ff0ef          	jal	ra,80000ff0 <putch>
8000171c:	00190913          	addi	s2,s2,1
80001720:	001c8c93          	addi	s9,s9,1
80001724:	001c4503          	lbu	a0,1(s8)
80001728:	fe0514e3          	bnez	a0,80001710 <printf+0x80>
8000172c:	43c12083          	lw	ra,1084(sp)
80001730:	43812403          	lw	s0,1080(sp)
80001734:	43412483          	lw	s1,1076(sp)
80001738:	42c12983          	lw	s3,1068(sp)
8000173c:	42812a03          	lw	s4,1064(sp)
80001740:	42412a83          	lw	s5,1060(sp)
80001744:	42012b03          	lw	s6,1056(sp)
80001748:	41c12b83          	lw	s7,1052(sp)
8000174c:	41812c03          	lw	s8,1048(sp)
80001750:	41412c83          	lw	s9,1044(sp)
80001754:	41012d03          	lw	s10,1040(sp)
80001758:	40c12d83          	lw	s11,1036(sp)
8000175c:	00090513          	mv	a0,s2
80001760:	43012903          	lw	s2,1072(sp)
80001764:	46010113          	addi	sp,sp,1120
80001768:	00008067          	ret
8000176c:	001cc683          	lbu	a3,1(s9)
80001770:	001c8c13          	addi	s8,s9,1
80001774:	02000b93          	li	s7,32
80001778:	01569863          	bne	a3,s5,80001788 <printf+0xf8>
8000177c:	002cc683          	lbu	a3,2(s9)
80001780:	002c8c13          	addi	s8,s9,2
80001784:	03000b93          	li	s7,48
80001788:	fd068613          	addi	a2,a3,-48
8000178c:	0ff67793          	zext.b	a5,a2
80001790:	00000413          	li	s0,0
80001794:	02f4e463          	bltu	s1,a5,800017bc <printf+0x12c>
80001798:	001c4683          	lbu	a3,1(s8)
8000179c:	00241793          	slli	a5,s0,0x2
800017a0:	008787b3          	add	a5,a5,s0
800017a4:	00179793          	slli	a5,a5,0x1
800017a8:	00f60433          	add	s0,a2,a5
800017ac:	fd068613          	addi	a2,a3,-48
800017b0:	0ff67793          	zext.b	a5,a2
800017b4:	001c0c13          	addi	s8,s8,1
800017b8:	fef4f0e3          	bgeu	s1,a5,80001798 <printf+0x108>
800017bc:	f9c68693          	addi	a3,a3,-100
800017c0:	0ff6f693          	zext.b	a3,a3
800017c4:	01400793          	li	a5,20
800017c8:	001c0c93          	addi	s9,s8,1
800017cc:	02d7e063          	bltu	a5,a3,800017ec <printf+0x15c>
800017d0:	00001717          	auipc	a4,0x1
800017d4:	76c70713          	addi	a4,a4,1900 # 80002f3c <tests+0x524>
800017d8:	00269693          	slli	a3,a3,0x2
800017dc:	00e686b3          	add	a3,a3,a4
800017e0:	0006a783          	lw	a5,0(a3)
800017e4:	00e787b3          	add	a5,a5,a4
800017e8:	00078067          	jr	a5 # 1000 <_entry_offset+0x1000>
800017ec:	02500513          	li	a0,37
800017f0:	801ff0ef          	jal	ra,80000ff0 <putch>
800017f4:	000c4503          	lbu	a0,0(s8)
800017f8:	00290913          	addi	s2,s2,2
800017fc:	ff4ff0ef          	jal	ra,80000ff0 <putch>
80001800:	f25ff06f          	j	80001724 <printf+0x94>
80001804:	01412683          	lw	a3,20(sp)
80001808:	0006a783          	lw	a5,0(a3)
8000180c:	00468693          	addi	a3,a3,4
80001810:	00d12a23          	sw	a3,20(sp)
80001814:	20079863          	bnez	a5,80001a24 <printf+0x394>
80001818:	01510c23          	sb	s5,24(sp)
8000181c:	00100793          	li	a5,1
80001820:	1887dc63          	bge	a5,s0,800019b8 <printf+0x328>
80001824:	00100d13          	li	s10,1
80001828:	41a40433          	sub	s0,s0,s10
8000182c:	02805863          	blez	s0,8000185c <printf+0x1cc>
80001830:	00000d93          	li	s11,0
80001834:	001d8d93          	addi	s11,s11,1
80001838:	000b8513          	mv	a0,s7
8000183c:	fb4ff0ef          	jal	ra,80000ff0 <putch>
80001840:	fe8dcae3          	blt	s11,s0,80001834 <printf+0x1a4>
80001844:	00190913          	addi	s2,s2,1
80001848:	00000793          	li	a5,0
8000184c:	00805463          	blez	s0,80001854 <printf+0x1c4>
80001850:	fff40793          	addi	a5,s0,-1
80001854:	01278933          	add	s2,a5,s2
80001858:	ec0d06e3          	beqz	s10,80001724 <printf+0x94>
8000185c:	3f0d0793          	addi	a5,s10,1008
80001860:	01010713          	addi	a4,sp,16
80001864:	00e787b3          	add	a5,a5,a4
80001868:	c177c503          	lbu	a0,-1001(a5)
8000186c:	01a98433          	add	s0,s3,s10
80001870:	00c0006f          	j	8000187c <printf+0x1ec>
80001874:	ffe44503          	lbu	a0,-2(s0)
80001878:	fff40413          	addi	s0,s0,-1
8000187c:	f74ff0ef          	jal	ra,80000ff0 <putch>
80001880:	fe8b1ae3          	bne	s6,s0,80001874 <printf+0x1e4>
80001884:	012d0933          	add	s2,s10,s2
80001888:	e9dff06f          	j	80001724 <printf+0x94>
8000188c:	01412783          	lw	a5,20(sp)
80001890:	0007a403          	lw	s0,0(a5)
80001894:	00478793          	addi	a5,a5,4
80001898:	00f12a23          	sw	a5,20(sp)
8000189c:	00044503          	lbu	a0,0(s0)
800018a0:	e80502e3          	beqz	a0,80001724 <printf+0x94>
800018a4:	00090d13          	mv	s10,s2
800018a8:	f48ff0ef          	jal	ra,80000ff0 <putch>
800018ac:	001d0d13          	addi	s10,s10,1
800018b0:	412d07b3          	sub	a5,s10,s2
800018b4:	00f407b3          	add	a5,s0,a5
800018b8:	0007c503          	lbu	a0,0(a5)
800018bc:	fe0516e3          	bnez	a0,800018a8 <printf+0x218>
800018c0:	000d0913          	mv	s2,s10
800018c4:	e61ff06f          	j	80001724 <printf+0x94>
800018c8:	01412783          	lw	a5,20(sp)
800018cc:	03000513          	li	a0,48
800018d0:	0007a403          	lw	s0,0(a5)
800018d4:	00478793          	addi	a5,a5,4
800018d8:	00f12a23          	sw	a5,20(sp)
800018dc:	f14ff0ef          	jal	ra,80000ff0 <putch>
800018e0:	07800513          	li	a0,120
800018e4:	f0cff0ef          	jal	ra,80000ff0 <putch>
800018e8:	0e041063          	bnez	s0,800019c8 <printf+0x338>
800018ec:	03000513          	li	a0,48
800018f0:	01510c23          	sb	s5,24(sp)
800018f4:	00390913          	addi	s2,s2,3
800018f8:	ef8ff0ef          	jal	ra,80000ff0 <putch>
800018fc:	e29ff06f          	j	80001724 <printf+0x94>
80001900:	001c4783          	lbu	a5,1(s8)
80001904:	06400713          	li	a4,100
80001908:	18e78c63          	beq	a5,a4,80001aa0 <printf+0x410>
8000190c:	07800713          	li	a4,120
80001910:	1ce78863          	beq	a5,a4,80001ae0 <printf+0x450>
80001914:	000c8c13          	mv	s8,s9
80001918:	001c8c93          	addi	s9,s9,1
8000191c:	e09ff06f          	j	80001724 <printf+0x94>
80001920:	01412783          	lw	a5,20(sp)
80001924:	00190d13          	addi	s10,s2,1
80001928:	0007a703          	lw	a4,0(a5)
8000192c:	00478793          	addi	a5,a5,4
80001930:	00f12a23          	sw	a5,20(sp)
80001934:	00e12623          	sw	a4,12(sp)
80001938:	12074063          	bltz	a4,80001a58 <printf+0x3c8>
8000193c:	00c12783          	lw	a5,12(sp)
80001940:	12079663          	bnez	a5,80001a6c <printf+0x3dc>
80001944:	01510c23          	sb	s5,24(sp)
80001948:	00100793          	li	a5,1
8000194c:	0487de63          	bge	a5,s0,800019a8 <printf+0x318>
80001950:	00100d13          	li	s10,1
80001954:	41a40433          	sub	s0,s0,s10
80001958:	00000d93          	li	s11,0
8000195c:	2e805863          	blez	s0,80001c4c <printf+0x5bc>
80001960:	001d8d93          	addi	s11,s11,1
80001964:	000b8513          	mv	a0,s7
80001968:	e88ff0ef          	jal	ra,80000ff0 <putch>
8000196c:	ffb41ae3          	bne	s0,s11,80001960 <printf+0x2d0>
80001970:	00c12783          	lw	a5,12(sp)
80001974:	01010713          	addi	a4,sp,16
80001978:	01240933          	add	s2,s0,s2
8000197c:	3f078793          	addi	a5,a5,1008
80001980:	00e78db3          	add	s11,a5,a4
80001984:	c18dc503          	lbu	a0,-1000(s11)
80001988:	01a98433          	add	s0,s3,s10
8000198c:	0080006f          	j	80001994 <printf+0x304>
80001990:	fff44503          	lbu	a0,-1(s0)
80001994:	fff40413          	addi	s0,s0,-1
80001998:	e58ff0ef          	jal	ra,80000ff0 <putch>
8000199c:	fe899ae3          	bne	s3,s0,80001990 <printf+0x300>
800019a0:	012d0933          	add	s2,s10,s2
800019a4:	d81ff06f          	j	80001724 <printf+0x94>
800019a8:	03000513          	li	a0,48
800019ac:	e44ff0ef          	jal	ra,80000ff0 <putch>
800019b0:	000d0913          	mv	s2,s10
800019b4:	d71ff06f          	j	80001724 <printf+0x94>
800019b8:	03000513          	li	a0,48
800019bc:	00190913          	addi	s2,s2,1
800019c0:	e30ff0ef          	jal	ra,80000ff0 <putch>
800019c4:	d61ff06f          	j	80001724 <printf+0x94>
800019c8:	00040793          	mv	a5,s0
800019cc:	00000d13          	li	s10,0
800019d0:	0080006f          	j	800019d8 <printf+0x348>
800019d4:	00068d13          	mv	s10,a3
800019d8:	00f7f613          	andi	a2,a5,15
800019dc:	05760513          	addi	a0,a2,87 # 1057 <_entry_offset+0x1057>
800019e0:	00c4c463          	blt	s1,a2,800019e8 <printf+0x358>
800019e4:	03060513          	addi	a0,a2,48
800019e8:	001d0693          	addi	a3,s10,1
800019ec:	00d98433          	add	s0,s3,a3
800019f0:	fea40fa3          	sb	a0,-1(s0)
800019f4:	0047d793          	srli	a5,a5,0x4
800019f8:	fc079ee3          	bnez	a5,800019d4 <printf+0x344>
800019fc:	fff40413          	addi	s0,s0,-1
80001a00:	df0ff0ef          	jal	ra,80000ff0 <putch>
80001a04:	00898a63          	beq	s3,s0,80001a18 <printf+0x388>
80001a08:	fff44503          	lbu	a0,-1(s0)
80001a0c:	fff40413          	addi	s0,s0,-1
80001a10:	de0ff0ef          	jal	ra,80000ff0 <putch>
80001a14:	fe899ae3          	bne	s3,s0,80001a08 <printf+0x378>
80001a18:	00390913          	addi	s2,s2,3
80001a1c:	01a90933          	add	s2,s2,s10
80001a20:	d05ff06f          	j	80001724 <printf+0x94>
80001a24:	00000d13          	li	s10,0
80001a28:	20f05e63          	blez	a5,80001c44 <printf+0x5b4>
80001a2c:	00f7f613          	andi	a2,a5,15
80001a30:	05760513          	addi	a0,a2,87
80001a34:	00c4c463          	blt	s1,a2,80001a3c <printf+0x3ac>
80001a38:	03060513          	addi	a0,a2,48
80001a3c:	001d0d13          	addi	s10,s10,1
80001a40:	01a986b3          	add	a3,s3,s10
80001a44:	fea68fa3          	sb	a0,-1(a3)
80001a48:	4047d793          	srai	a5,a5,0x4
80001a4c:	fe0790e3          	bnez	a5,80001a2c <printf+0x39c>
80001a50:	dc8d4ce3          	blt	s10,s0,80001828 <printf+0x198>
80001a54:	e19ff06f          	j	8000186c <printf+0x1dc>
80001a58:	02d00513          	li	a0,45
80001a5c:	d94ff0ef          	jal	ra,80000ff0 <putch>
80001a60:	00c12783          	lw	a5,12(sp)
80001a64:	000d0913          	mv	s2,s10
80001a68:	40f007b3          	neg	a5,a5
80001a6c:	00000d13          	li	s10,0
80001a70:	00a00693          	li	a3,10
80001a74:	02d7e533          	rem	a0,a5,a3
80001a78:	01a12623          	sw	s10,12(sp)
80001a7c:	001d0d13          	addi	s10,s10,1
80001a80:	01a98633          	add	a2,s3,s10
80001a84:	02d7c7b3          	div	a5,a5,a3
80001a88:	03050513          	addi	a0,a0,48
80001a8c:	0ff57513          	zext.b	a0,a0
80001a90:	fea60fa3          	sb	a0,-1(a2)
80001a94:	fe0790e3          	bnez	a5,80001a74 <printf+0x3e4>
80001a98:	ea8d4ee3          	blt	s10,s0,80001954 <printf+0x2c4>
80001a9c:	eedff06f          	j	80001988 <printf+0x2f8>
80001aa0:	01412783          	lw	a5,20(sp)
80001aa4:	00190d13          	addi	s10,s2,1
80001aa8:	0007ad83          	lw	s11,0(a5)
80001aac:	00478793          	addi	a5,a5,4
80001ab0:	00f12a23          	sw	a5,20(sp)
80001ab4:	0a0dc663          	bltz	s11,80001b60 <printf+0x4d0>
80001ab8:	1c0d9a63          	bnez	s11,80001c8c <printf+0x5fc>
80001abc:	01510c23          	sb	s5,24(sp)
80001ac0:	00100793          	li	a5,1
80001ac4:	1687c063          	blt	a5,s0,80001c24 <printf+0x594>
80001ac8:	03000513          	li	a0,48
80001acc:	000c8c13          	mv	s8,s9
80001ad0:	d20ff0ef          	jal	ra,80000ff0 <putch>
80001ad4:	000d0913          	mv	s2,s10
80001ad8:	001c8c93          	addi	s9,s9,1
80001adc:	c49ff06f          	j	80001724 <printf+0x94>
80001ae0:	01412703          	lw	a4,20(sp)
80001ae4:	00072783          	lw	a5,0(a4)
80001ae8:	00470713          	addi	a4,a4,4
80001aec:	00e12a23          	sw	a4,20(sp)
80001af0:	0e079e63          	bnez	a5,80001bec <printf+0x55c>
80001af4:	01510c23          	sb	s5,24(sp)
80001af8:	00100793          	li	a5,1
80001afc:	1287d863          	bge	a5,s0,80001c2c <printf+0x59c>
80001b00:	00000d93          	li	s11,0
80001b04:	00100d13          	li	s10,1
80001b08:	41a40433          	sub	s0,s0,s10
80001b0c:	00000c13          	li	s8,0
80001b10:	14805a63          	blez	s0,80001c64 <printf+0x5d4>
80001b14:	001c0c13          	addi	s8,s8,1
80001b18:	000b8513          	mv	a0,s7
80001b1c:	cd4ff0ef          	jal	ra,80000ff0 <putch>
80001b20:	ff841ae3          	bne	s0,s8,80001b14 <printf+0x484>
80001b24:	3f0d8793          	addi	a5,s11,1008
80001b28:	01010713          	addi	a4,sp,16
80001b2c:	00e78db3          	add	s11,a5,a4
80001b30:	c18dc503          	lbu	a0,-1000(s11)
80001b34:	00890933          	add	s2,s2,s0
80001b38:	01a98433          	add	s0,s3,s10
80001b3c:	0080006f          	j	80001b44 <printf+0x4b4>
80001b40:	fff44503          	lbu	a0,-1(s0)
80001b44:	fff40413          	addi	s0,s0,-1
80001b48:	ca8ff0ef          	jal	ra,80000ff0 <putch>
80001b4c:	fe899ae3          	bne	s3,s0,80001b40 <printf+0x4b0>
80001b50:	000c8c13          	mv	s8,s9
80001b54:	012d0933          	add	s2,s10,s2
80001b58:	001c8c93          	addi	s9,s9,1
80001b5c:	bc9ff06f          	j	80001724 <printf+0x94>
80001b60:	02d00513          	li	a0,45
80001b64:	c8cff0ef          	jal	ra,80000ff0 <putch>
80001b68:	000d0913          	mv	s2,s10
80001b6c:	41b007b3          	neg	a5,s11
80001b70:	00000d13          	li	s10,0
80001b74:	00a00713          	li	a4,10
80001b78:	02e7e533          	rem	a0,a5,a4
80001b7c:	000d0d93          	mv	s11,s10
80001b80:	001d0d13          	addi	s10,s10,1
80001b84:	01a986b3          	add	a3,s3,s10
80001b88:	02e7c7b3          	div	a5,a5,a4
80001b8c:	03050513          	addi	a0,a0,48
80001b90:	0ff57513          	zext.b	a0,a0
80001b94:	fea68fa3          	sb	a0,-1(a3)
80001b98:	fe0790e3          	bnez	a5,80001b78 <printf+0x4e8>
80001b9c:	028d5a63          	bge	s10,s0,80001bd0 <printf+0x540>
80001ba0:	41a40433          	sub	s0,s0,s10
80001ba4:	00000c13          	li	s8,0
80001ba8:	0c805863          	blez	s0,80001c78 <printf+0x5e8>
80001bac:	001c0c13          	addi	s8,s8,1
80001bb0:	000b8513          	mv	a0,s7
80001bb4:	c3cff0ef          	jal	ra,80000ff0 <putch>
80001bb8:	ff841ae3          	bne	s0,s8,80001bac <printf+0x51c>
80001bbc:	3f0d8793          	addi	a5,s11,1008
80001bc0:	01010713          	addi	a4,sp,16
80001bc4:	00e78db3          	add	s11,a5,a4
80001bc8:	c18dc503          	lbu	a0,-1000(s11)
80001bcc:	01240933          	add	s2,s0,s2
80001bd0:	01a98433          	add	s0,s3,s10
80001bd4:	0080006f          	j	80001bdc <printf+0x54c>
80001bd8:	fff44503          	lbu	a0,-1(s0)
80001bdc:	fff40413          	addi	s0,s0,-1
80001be0:	c10ff0ef          	jal	ra,80000ff0 <putch>
80001be4:	fe899ae3          	bne	s3,s0,80001bd8 <printf+0x548>
80001be8:	f69ff06f          	j	80001b50 <printf+0x4c0>
80001bec:	00000d93          	li	s11,0
80001bf0:	0080006f          	j	80001bf8 <printf+0x568>
80001bf4:	000d0d93          	mv	s11,s10
80001bf8:	00f7f693          	andi	a3,a5,15
80001bfc:	05768513          	addi	a0,a3,87
80001c00:	00d4c463          	blt	s1,a3,80001c08 <printf+0x578>
80001c04:	03068513          	addi	a0,a3,48
80001c08:	001d8d13          	addi	s10,s11,1
80001c0c:	01a98733          	add	a4,s3,s10
80001c10:	fea70fa3          	sb	a0,-1(a4)
80001c14:	0047d793          	srli	a5,a5,0x4
80001c18:	fc079ee3          	bnez	a5,80001bf4 <printf+0x564>
80001c1c:	ee8d46e3          	blt	s10,s0,80001b08 <printf+0x478>
80001c20:	f19ff06f          	j	80001b38 <printf+0x4a8>
80001c24:	00100d13          	li	s10,1
80001c28:	f79ff06f          	j	80001ba0 <printf+0x510>
80001c2c:	03000513          	li	a0,48
80001c30:	000c8c13          	mv	s8,s9
80001c34:	00190913          	addi	s2,s2,1
80001c38:	bb8ff0ef          	jal	ra,80000ff0 <putch>
80001c3c:	001c8c93          	addi	s9,s9,1
80001c40:	ae5ff06f          	j	80001724 <printf+0x94>
80001c44:	be0416e3          	bnez	s0,80001830 <printf+0x1a0>
80001c48:	addff06f          	j	80001724 <printf+0x94>
80001c4c:	00c12783          	lw	a5,12(sp)
80001c50:	01010713          	addi	a4,sp,16
80001c54:	3f078793          	addi	a5,a5,1008
80001c58:	00e78db3          	add	s11,a5,a4
80001c5c:	c18dc503          	lbu	a0,-1000(s11)
80001c60:	d29ff06f          	j	80001988 <printf+0x2f8>
80001c64:	3f0d8793          	addi	a5,s11,1008
80001c68:	01010713          	addi	a4,sp,16
80001c6c:	00e78db3          	add	s11,a5,a4
80001c70:	c18dc503          	lbu	a0,-1000(s11)
80001c74:	ec5ff06f          	j	80001b38 <printf+0x4a8>
80001c78:	3f0d8793          	addi	a5,s11,1008
80001c7c:	01010713          	addi	a4,sp,16
80001c80:	00e78db3          	add	s11,a5,a4
80001c84:	c18dc503          	lbu	a0,-1000(s11)
80001c88:	f49ff06f          	j	80001bd0 <printf+0x540>
80001c8c:	000d8793          	mv	a5,s11
80001c90:	ee1ff06f          	j	80001b70 <printf+0x4e0>

80001c94 <__udivmoddi4>:
80001c94:	fe010113          	addi	sp,sp,-32
80001c98:	01212823          	sw	s2,16(sp)
80001c9c:	01412423          	sw	s4,8(sp)
80001ca0:	01512223          	sw	s5,4(sp)
80001ca4:	01612023          	sw	s6,0(sp)
80001ca8:	00112e23          	sw	ra,28(sp)
80001cac:	00812c23          	sw	s0,24(sp)
80001cb0:	00912a23          	sw	s1,20(sp)
80001cb4:	01312623          	sw	s3,12(sp)
80001cb8:	00068a93          	mv	s5,a3
80001cbc:	00050913          	mv	s2,a0
80001cc0:	00060b13          	mv	s6,a2
80001cc4:	00070a13          	mv	s4,a4
80001cc8:	04059463          	bnez	a1,80001d10 <__udivmoddi4+0x7c>
80001ccc:	18069863          	bnez	a3,80001e5c <__udivmoddi4+0x1c8>
80001cd0:	00070863          	beqz	a4,80001ce0 <__udivmoddi4+0x4c>
80001cd4:	02c577b3          	remu	a5,a0,a2
80001cd8:	00072223          	sw	zero,4(a4)
80001cdc:	00f72023          	sw	a5,0(a4)
80001ce0:	03695533          	divu	a0,s2,s6
80001ce4:	00000593          	li	a1,0
80001ce8:	01c12083          	lw	ra,28(sp)
80001cec:	01812403          	lw	s0,24(sp)
80001cf0:	01412483          	lw	s1,20(sp)
80001cf4:	01012903          	lw	s2,16(sp)
80001cf8:	00c12983          	lw	s3,12(sp)
80001cfc:	00812a03          	lw	s4,8(sp)
80001d00:	00412a83          	lw	s5,4(sp)
80001d04:	00012b03          	lw	s6,0(sp)
80001d08:	02010113          	addi	sp,sp,32
80001d0c:	00008067          	ret
80001d10:	00058993          	mv	s3,a1
80001d14:	00058413          	mv	s0,a1
80001d18:	0e061863          	bnez	a2,80001e08 <__udivmoddi4+0x174>
80001d1c:	1a068263          	beqz	a3,80001ec0 <__udivmoddi4+0x22c>
80001d20:	20050463          	beqz	a0,80001f28 <__udivmoddi4+0x294>
80001d24:	fff68793          	addi	a5,a3,-1
80001d28:	00d7f733          	and	a4,a5,a3
80001d2c:	22070c63          	beqz	a4,80001f64 <__udivmoddi4+0x2d0>
80001d30:	00068513          	mv	a0,a3
80001d34:	28c000ef          	jal	ra,80001fc0 <__clzsi2>
80001d38:	00050493          	mv	s1,a0
80001d3c:	00098513          	mv	a0,s3
80001d40:	280000ef          	jal	ra,80001fc0 <__clzsi2>
80001d44:	40a48733          	sub	a4,s1,a0
80001d48:	01e00793          	li	a5,30
80001d4c:	16e7ec63          	bltu	a5,a4,80001ec4 <__udivmoddi4+0x230>
80001d50:	00170713          	addi	a4,a4,1
80001d54:	02000e93          	li	t4,32
80001d58:	40ee8eb3          	sub	t4,t4,a4
80001d5c:	01d99633          	sll	a2,s3,t4
80001d60:	00e956b3          	srl	a3,s2,a4
80001d64:	00e9d7b3          	srl	a5,s3,a4
80001d68:	01d91eb3          	sll	t4,s2,t4
80001d6c:	00d66433          	or	s0,a2,a3
80001d70:	00000493          	li	s1,0
80001d74:	00000313          	li	t1,0
80001d78:	01fed693          	srli	a3,t4,0x1f
80001d7c:	00141813          	slli	a6,s0,0x1
80001d80:	00d86833          	or	a6,a6,a3
80001d84:	01f45413          	srli	s0,s0,0x1f
80001d88:	00179793          	slli	a5,a5,0x1
80001d8c:	0087e7b3          	or	a5,a5,s0
80001d90:	410b0e33          	sub	t3,s6,a6
80001d94:	01cb36b3          	sltu	a3,s6,t3
80001d98:	40fa88b3          	sub	a7,s5,a5
80001d9c:	40d888b3          	sub	a7,a7,a3
80001da0:	001e3e13          	seqz	t3,t3
80001da4:	41c888b3          	sub	a7,a7,t3
80001da8:	41f8de13          	srai	t3,a7,0x1f
80001dac:	016e7433          	and	s0,t3,s6
80001db0:	40880433          	sub	s0,a6,s0
80001db4:	015e7e33          	and	t3,t3,s5
80001db8:	01f4d693          	srli	a3,s1,0x1f
80001dbc:	001e9e93          	slli	t4,t4,0x1
80001dc0:	00149493          	slli	s1,s1,0x1
80001dc4:	00883833          	sltu	a6,a6,s0
80001dc8:	41c787b3          	sub	a5,a5,t3
80001dcc:	fff70713          	addi	a4,a4,-1
80001dd0:	0064e4b3          	or	s1,s1,t1
80001dd4:	00deeeb3          	or	t4,t4,a3
80001dd8:	01f8d313          	srli	t1,a7,0x1f
80001ddc:	410787b3          	sub	a5,a5,a6
80001de0:	f8071ce3          	bnez	a4,80001d78 <__udivmoddi4+0xe4>
80001de4:	01f4d993          	srli	s3,s1,0x1f
80001de8:	001e9e93          	slli	t4,t4,0x1
80001dec:	00149493          	slli	s1,s1,0x1
80001df0:	0064e533          	or	a0,s1,t1
80001df4:	01d9e5b3          	or	a1,s3,t4
80001df8:	ee0a08e3          	beqz	s4,80001ce8 <__udivmoddi4+0x54>
80001dfc:	008a2023          	sw	s0,0(s4)
80001e00:	00fa2223          	sw	a5,4(s4)
80001e04:	ee5ff06f          	j	80001ce8 <__udivmoddi4+0x54>
80001e08:	06068663          	beqz	a3,80001e74 <__udivmoddi4+0x1e0>
80001e0c:	00068513          	mv	a0,a3
80001e10:	1b0000ef          	jal	ra,80001fc0 <__clzsi2>
80001e14:	00050493          	mv	s1,a0
80001e18:	00098513          	mv	a0,s3
80001e1c:	1a4000ef          	jal	ra,80001fc0 <__clzsi2>
80001e20:	40a48733          	sub	a4,s1,a0
80001e24:	01f00793          	li	a5,31
80001e28:	08e7ee63          	bltu	a5,a4,80001ec4 <__udivmoddi4+0x230>
80001e2c:	00170713          	addi	a4,a4,1
80001e30:	02000793          	li	a5,32
80001e34:	00090e93          	mv	t4,s2
80001e38:	14f70863          	beq	a4,a5,80001f88 <__udivmoddi4+0x2f4>
80001e3c:	40e786b3          	sub	a3,a5,a4
80001e40:	00e95633          	srl	a2,s2,a4
80001e44:	00d995b3          	sll	a1,s3,a3
80001e48:	00e9d7b3          	srl	a5,s3,a4
80001e4c:	00d91eb3          	sll	t4,s2,a3
80001e50:	00c5e433          	or	s0,a1,a2
80001e54:	00000493          	li	s1,0
80001e58:	f1dff06f          	j	80001d74 <__udivmoddi4+0xe0>
80001e5c:	06070663          	beqz	a4,80001ec8 <__udivmoddi4+0x234>
80001e60:	00aa2023          	sw	a0,0(s4)
80001e64:	00072223          	sw	zero,4(a4)
80001e68:	00000513          	li	a0,0
80001e6c:	00000593          	li	a1,0
80001e70:	e79ff06f          	j	80001ce8 <__udivmoddi4+0x54>
80001e74:	fff60793          	addi	a5,a2,-1
80001e78:	00c7f733          	and	a4,a5,a2
80001e7c:	04071c63          	bnez	a4,80001ed4 <__udivmoddi4+0x240>
80001e80:	000a0863          	beqz	s4,80001e90 <__udivmoddi4+0x1fc>
80001e84:	00a7f7b3          	and	a5,a5,a0
80001e88:	00fa2023          	sw	a5,0(s4)
80001e8c:	000a2223          	sw	zero,4(s4)
80001e90:	00100793          	li	a5,1
80001e94:	0cfb0263          	beq	s6,a5,80001f58 <__udivmoddi4+0x2c4>
80001e98:	000b0513          	mv	a0,s6
80001e9c:	1bc000ef          	jal	ra,80002058 <__ctzsi2>
80001ea0:	02000713          	li	a4,32
80001ea4:	40a70733          	sub	a4,a4,a0
80001ea8:	00050793          	mv	a5,a0
80001eac:	00e99733          	sll	a4,s3,a4
80001eb0:	00a95933          	srl	s2,s2,a0
80001eb4:	01276533          	or	a0,a4,s2
80001eb8:	00f9d5b3          	srl	a1,s3,a5
80001ebc:	e2dff06f          	j	80001ce8 <__udivmoddi4+0x54>
80001ec0:	00100073          	ebreak
80001ec4:	080a1063          	bnez	s4,80001f44 <__udivmoddi4+0x2b0>
80001ec8:	00000513          	li	a0,0
80001ecc:	00000593          	li	a1,0
80001ed0:	e19ff06f          	j	80001ce8 <__udivmoddi4+0x54>
80001ed4:	00060513          	mv	a0,a2
80001ed8:	00068493          	mv	s1,a3
80001edc:	0e4000ef          	jal	ra,80001fc0 <__clzsi2>
80001ee0:	00050993          	mv	s3,a0
80001ee4:	00040513          	mv	a0,s0
80001ee8:	0d8000ef          	jal	ra,80001fc0 <__clzsi2>
80001eec:	40a98533          	sub	a0,s3,a0
80001ef0:	02150713          	addi	a4,a0,33
80001ef4:	02000693          	li	a3,32
80001ef8:	00090e93          	mv	t4,s2
80001efc:	00000793          	li	a5,0
80001f00:	e6d70ae3          	beq	a4,a3,80001d74 <__udivmoddi4+0xe0>
80001f04:	01f00613          	li	a2,31
80001f08:	08e66663          	bltu	a2,a4,80001f94 <__udivmoddi4+0x300>
80001f0c:	40e686b3          	sub	a3,a3,a4
80001f10:	00e95633          	srl	a2,s2,a4
80001f14:	00d415b3          	sll	a1,s0,a3
80001f18:	00e457b3          	srl	a5,s0,a4
80001f1c:	00d91eb3          	sll	t4,s2,a3
80001f20:	00c5e433          	or	s0,a1,a2
80001f24:	e51ff06f          	j	80001d74 <__udivmoddi4+0xe0>
80001f28:	00070863          	beqz	a4,80001f38 <__udivmoddi4+0x2a4>
80001f2c:	02d5f7b3          	remu	a5,a1,a3
80001f30:	00072023          	sw	zero,0(a4)
80001f34:	00f72223          	sw	a5,4(a4)
80001f38:	0359d533          	divu	a0,s3,s5
80001f3c:	00000593          	li	a1,0
80001f40:	da9ff06f          	j	80001ce8 <__udivmoddi4+0x54>
80001f44:	012a2023          	sw	s2,0(s4)
80001f48:	013a2223          	sw	s3,4(s4)
80001f4c:	00000513          	li	a0,0
80001f50:	00000593          	li	a1,0
80001f54:	d95ff06f          	j	80001ce8 <__udivmoddi4+0x54>
80001f58:	00090513          	mv	a0,s2
80001f5c:	00098593          	mv	a1,s3
80001f60:	d89ff06f          	j	80001ce8 <__udivmoddi4+0x54>
80001f64:	000a0863          	beqz	s4,80001f74 <__udivmoddi4+0x2e0>
80001f68:	00b7f7b3          	and	a5,a5,a1
80001f6c:	00aa2023          	sw	a0,0(s4)
80001f70:	00fa2223          	sw	a5,4(s4)
80001f74:	000a8513          	mv	a0,s5
80001f78:	0e0000ef          	jal	ra,80002058 <__ctzsi2>
80001f7c:	00a9d533          	srl	a0,s3,a0
80001f80:	00000593          	li	a1,0
80001f84:	d65ff06f          	j	80001ce8 <__udivmoddi4+0x54>
80001f88:	00000793          	li	a5,0
80001f8c:	00000493          	li	s1,0
80001f90:	de5ff06f          	j	80001d74 <__udivmoddi4+0xe0>
80001f94:	04000693          	li	a3,64
80001f98:	40e686b3          	sub	a3,a3,a4
80001f9c:	00150513          	addi	a0,a0,1
80001fa0:	00d914b3          	sll	s1,s2,a3
80001fa4:	00a95eb3          	srl	t4,s2,a0
80001fa8:	00d416b3          	sll	a3,s0,a3
80001fac:	01d6eeb3          	or	t4,a3,t4
80001fb0:	00a45433          	srl	s0,s0,a0
80001fb4:	dc1ff06f          	j	80001d74 <__udivmoddi4+0xe0>

80001fb8 <__udivdi3>:
80001fb8:	00000713          	li	a4,0
80001fbc:	cd9ff06f          	j	80001c94 <__udivmoddi4>

80001fc0 <__clzsi2>:
80001fc0:	ffff05b7          	lui	a1,0xffff0
80001fc4:	00b575b3          	and	a1,a0,a1
80001fc8:	0015b593          	seqz	a1,a1
80001fcc:	00459593          	slli	a1,a1,0x4
80001fd0:	01000793          	li	a5,16
80001fd4:	40b787b3          	sub	a5,a5,a1
80001fd8:	00010737          	lui	a4,0x10
80001fdc:	00f557b3          	srl	a5,a0,a5
80001fe0:	f0070713          	addi	a4,a4,-256 # ff00 <_entry_offset+0xff00>
80001fe4:	00e7f733          	and	a4,a5,a4
80001fe8:	00173713          	seqz	a4,a4
80001fec:	00371713          	slli	a4,a4,0x3
80001ff0:	00800693          	li	a3,8
80001ff4:	40e686b3          	sub	a3,a3,a4
80001ff8:	00d7d7b3          	srl	a5,a5,a3
80001ffc:	0f07f613          	andi	a2,a5,240
80002000:	00163613          	seqz	a2,a2
80002004:	00261613          	slli	a2,a2,0x2
80002008:	00400693          	li	a3,4
8000200c:	40c686b3          	sub	a3,a3,a2
80002010:	00d7d7b3          	srl	a5,a5,a3
80002014:	00c7f693          	andi	a3,a5,12
80002018:	0016b693          	seqz	a3,a3
8000201c:	00169693          	slli	a3,a3,0x1
80002020:	00200813          	li	a6,2
80002024:	40d80533          	sub	a0,a6,a3
80002028:	00a7d7b3          	srl	a5,a5,a0
8000202c:	0017d513          	srli	a0,a5,0x1
80002030:	00154513          	xori	a0,a0,1
80002034:	00b70733          	add	a4,a4,a1
80002038:	00157513          	andi	a0,a0,1
8000203c:	00e60633          	add	a2,a2,a4
80002040:	40f80833          	sub	a6,a6,a5
80002044:	40a00733          	neg	a4,a0
80002048:	01077733          	and	a4,a4,a6
8000204c:	00c68533          	add	a0,a3,a2
80002050:	00a70533          	add	a0,a4,a0
80002054:	00008067          	ret

80002058 <__ctzsi2>:
80002058:	01051593          	slli	a1,a0,0x10
8000205c:	0105d593          	srli	a1,a1,0x10
80002060:	0015b593          	seqz	a1,a1
80002064:	00459593          	slli	a1,a1,0x4
80002068:	00b557b3          	srl	a5,a0,a1
8000206c:	0ff7f613          	zext.b	a2,a5
80002070:	00163613          	seqz	a2,a2
80002074:	00361613          	slli	a2,a2,0x3
80002078:	00c7d7b3          	srl	a5,a5,a2
8000207c:	00f7f693          	andi	a3,a5,15
80002080:	0016b693          	seqz	a3,a3
80002084:	00269693          	slli	a3,a3,0x2
80002088:	00d7d7b3          	srl	a5,a5,a3
8000208c:	0037f713          	andi	a4,a5,3
80002090:	00173713          	seqz	a4,a4
80002094:	00171713          	slli	a4,a4,0x1
80002098:	00e7d7b3          	srl	a5,a5,a4
8000209c:	0017d513          	srli	a0,a5,0x1
800020a0:	00b60633          	add	a2,a2,a1
800020a4:	0017f793          	andi	a5,a5,1
800020a8:	00157593          	andi	a1,a0,1
800020ac:	00200513          	li	a0,2
800020b0:	00c686b3          	add	a3,a3,a2
800020b4:	40b50533          	sub	a0,a0,a1
800020b8:	fff78793          	addi	a5,a5,-1
800020bc:	00f57533          	and	a0,a0,a5
800020c0:	00d70733          	add	a4,a4,a3
800020c4:	00e50533          	add	a0,a0,a4
800020c8:	00008067          	ret

800020cc <rand>:
800020cc:	0000f697          	auipc	a3,0xf
800020d0:	ef468693          	addi	a3,a3,-268 # 80010fc0 <next>
800020d4:	0006a783          	lw	a5,0(a3)
800020d8:	41c65737          	lui	a4,0x41c65
800020dc:	e6d70713          	addi	a4,a4,-403 # 41c64e6d <_entry_offset+0x41c64e6d>
800020e0:	02e787b3          	mul	a5,a5,a4
800020e4:	00003737          	lui	a4,0x3
800020e8:	03970713          	addi	a4,a4,57 # 3039 <_entry_offset+0x3039>
800020ec:	00e787b3          	add	a5,a5,a4
800020f0:	00179513          	slli	a0,a5,0x1
800020f4:	00f6a023          	sw	a5,0(a3)
800020f8:	01155513          	srli	a0,a0,0x11
800020fc:	00008067          	ret

80002100 <strcmp>:
80002100:	00054683          	lbu	a3,0(a0)
80002104:	00000793          	li	a5,0
80002108:	00069a63          	bnez	a3,8000211c <strcmp+0x1c>
8000210c:	0300006f          	j	8000213c <strcmp+0x3c>
80002110:	02d71063          	bne	a4,a3,80002130 <strcmp+0x30>
80002114:	00064683          	lbu	a3,0(a2)
80002118:	02068063          	beqz	a3,80002138 <strcmp+0x38>
8000211c:	00f58733          	add	a4,a1,a5
80002120:	00074703          	lbu	a4,0(a4)
80002124:	00178793          	addi	a5,a5,1
80002128:	00f50633          	add	a2,a0,a5
8000212c:	fe0712e3          	bnez	a4,80002110 <strcmp+0x10>
80002130:	40e68533          	sub	a0,a3,a4
80002134:	00008067          	ret
80002138:	00f585b3          	add	a1,a1,a5
8000213c:	0005c703          	lbu	a4,0(a1) # ffff0000 <_end+0x7ff52000>
80002140:	40e68533          	sub	a0,a3,a4
80002144:	00008067          	ret

80002148 <strncmp>:
80002148:	00054683          	lbu	a3,0(a0)
8000214c:	04068863          	beqz	a3,8000219c <strncmp+0x54>
80002150:	00000793          	li	a5,0
80002154:	0200006f          	j	80002174 <strncmp+0x2c>
80002158:	02c78663          	beq	a5,a2,80002184 <strncmp+0x3c>
8000215c:	00178793          	addi	a5,a5,1
80002160:	00f50833          	add	a6,a0,a5
80002164:	02d71863          	bne	a4,a3,80002194 <strncmp+0x4c>
80002168:	00084683          	lbu	a3,0(a6)
8000216c:	00078813          	mv	a6,a5
80002170:	00068a63          	beqz	a3,80002184 <strncmp+0x3c>
80002174:	00f58733          	add	a4,a1,a5
80002178:	00074703          	lbu	a4,0(a4)
8000217c:	00078813          	mv	a6,a5
80002180:	fc071ce3          	bnez	a4,80002158 <strncmp+0x10>
80002184:	00000513          	li	a0,0
80002188:	01060863          	beq	a2,a6,80002198 <strncmp+0x50>
8000218c:	010585b3          	add	a1,a1,a6
80002190:	0005c703          	lbu	a4,0(a1)
80002194:	40e68533          	sub	a0,a3,a4
80002198:	00008067          	ret
8000219c:	00000813          	li	a6,0
800021a0:	fe5ff06f          	j	80002184 <strncmp+0x3c>

800021a4 <memcpy>:
800021a4:	02060063          	beqz	a2,800021c4 <memcpy+0x20>
800021a8:	00c50633          	add	a2,a0,a2
800021ac:	00050793          	mv	a5,a0
800021b0:	0005c703          	lbu	a4,0(a1)
800021b4:	00178793          	addi	a5,a5,1
800021b8:	00158593          	addi	a1,a1,1
800021bc:	fee78fa3          	sb	a4,-1(a5)
800021c0:	fec798e3          	bne	a5,a2,800021b0 <memcpy+0xc>
800021c4:	00008067          	ret
